

Microchip MPLAB XC8 Assembler V2.40 build 20220703182018 
                                                                                               Mon May 15 10:14:33 2023

Microchip MPLAB XC8 C Compiler v2.40 (Free license) build 20220703182018 Og1 
     1                           	processor	16F887
     2                           	pagewidth 120
     3                           	opt	flic
     4                           	psect	idataBANK1,global,class=CODE,delta=2,noexec
     5                           	psect	nvBANK3,global,class=BANK3,space=1,delta=1,noexec
     6                           	psect	cinit,global,class=CODE,merge=1,delta=2
     7                           	psect	bssBANK1,global,class=BANK1,space=1,delta=1,noexec
     8                           	psect	dataBANK1,global,class=BANK1,space=1,delta=1,noexec
     9                           	psect	bssBANK3,global,class=BANK3,space=1,delta=1,noexec
    10                           	psect	cstackBANK3,global,class=BANK3,space=1,delta=1,noexec
    11                           	psect	cstackBANK1,global,class=BANK1,space=1,delta=1,noexec
    12                           	psect	cstackCOMMON,global,class=COMMON,space=1,delta=1,noexec
    13                           	psect	cstackBANK0,global,class=BANK0,space=1,delta=1,noexec
    14                           	psect	maintext,global,class=CODE,split=1,delta=2
    15                           	psect	text1,local,class=CODE,merge=1,delta=2
    16                           	psect	text2,local,class=CODE,merge=1,delta=2
    17                           	psect	text3,local,class=CODE,merge=1,delta=2,group=1
    18                           	psect	text4,local,class=CODE,merge=1,delta=2,group=1
    19                           	psect	text5,local,class=CODE,merge=1,delta=2
    20                           	psect	text6,local,class=CODE,merge=1,delta=2,group=1
    21                           	psect	text7,local,class=CODE,merge=1,delta=2,group=1
    22                           	psect	text8,local,class=CODE,merge=1,delta=2,group=1
    23                           	psect	text9,local,class=CODE,merge=1,delta=2
    24                           	psect	intentry,global,class=CODE,delta=2
    25                           	psect	text10,local,class=CODE,merge=1,delta=2
    26                           	psect	text11,local,class=CODE,merge=1,delta=2
    27                           	psect	text12,local,class=CODE,merge=1,delta=2
    28                           	psect	text13,local,class=CODE,merge=1,delta=2
    29                           	psect	text14,local,class=CODE,merge=1,delta=2
    30                           	psect	text15,local,class=CODE,merge=1,delta=2
    31                           	psect	text16,local,class=CODE,merge=1,delta=2
    32                           	psect	text17,local,class=CODE,merge=1,delta=2,group=1
    33                           	psect	idloc,global,abs,ovrld,class=IDLOC,space=5,delta=2,noexec
    34                           	psect	config,global,abs,ovrld,class=CONFIG,space=4,delta=2,noexec
    35                           	dabs	1,0x7E,2
    36     0000                     
    37                           ; Version 2.40
    38                           ; Generated 17/11/2021 GMT
    39                           ; 
    40                           ; Copyright © 2021, Microchip Technology Inc. and its subsidiaries ("Microchip")
    41                           ; All rights reserved.
    42                           ; 
    43                           ; This software is developed by Microchip Technology Inc. and its subsidiaries ("Microch
      +                          ip").
    44                           ; 
    45                           ; Redistribution and use in source and binary forms, with or without modification, are
    46                           ; permitted provided that the following conditions are met:
    47                           ; 
    48                           ;     1. Redistributions of source code must retain the above copyright notice, this lis
      +                          t of
    49                           ;        conditions and the following disclaimer.
    50                           ; 
    51                           ;     2. Redistributions in binary form must reproduce the above copyright notice, this 
      +                          list
    52                           ;        of conditions and the following disclaimer in the documentation and/or other
    53                           ;        materials provided with the distribution. Publication is not required when
    54                           ;        this file is used in an embedded application.
    55                           ; 
    56                           ;     3. Microchip's name may not be used to endorse or promote products derived from th
      +                          is
    57                           ;        software without specific prior written permission.
    58                           ; 
    59                           ; THIS SOFTWARE IS PROVIDED BY MICROCHIP "AS IS" AND ANY EXPRESS OR IMPLIED WARRANTIES,
    60                           ; INCLUDING, BUT NOT LIMITED TO, THE IMPLIED WARRANTIES OF MERCHANTABILITY AND FITNESS F
      +                          OR
    61                           ; PURPOSE ARE DISCLAIMED.  IN NO EVENT SHALL MICROCHIP BE LIABLE FOR ANY DIRECT, INDIREC
      +                          T,
    62                           ; INCIDENTAL, SPECIAL, EXEMPLARY, OR CONSEQUENTIAL DAMAGES (INCLUDING BUT NOT LIMITED TO
    63                           ; PROCUREMENT OF SUBSTITUTE GOODS OR SERVICES; LOSS OF USE, DATA OR PROFITS; OR BUSINESS
    64                           ; INTERRUPTION) HOWSOEVER CAUSED AND ON ANY THEORY OF LIABILITY, WHETHER IN CONTRACT, ST
      +                          RICT
    65                           ; LIABILITY, OR TORT (INCLUDING NEGLIGENCE OR OTHERWISE) ARISING IN ANY WAY OUT OF THE U
      +                          SE OF
    66                           ; THIS SOFTWARE, EVEN IF ADVISED OF THE POSSIBILITY OF SUCH DAMAGE.
    67                           ; 
    68                           ; 
    69                           ; Code-generator required, PIC16F887 Definitions
    70                           ; 
    71                           ; SFR Addresses
    72     0000                     	;# 
    73     0001                     	;# 
    74     0002                     	;# 
    75     0003                     	;# 
    76     0004                     	;# 
    77     0005                     	;# 
    78     0006                     	;# 
    79     0007                     	;# 
    80     0008                     	;# 
    81     0009                     	;# 
    82     000A                     	;# 
    83     000B                     	;# 
    84     000C                     	;# 
    85     000D                     	;# 
    86     000E                     	;# 
    87     000E                     	;# 
    88     000F                     	;# 
    89     0010                     	;# 
    90     0011                     	;# 
    91     0012                     	;# 
    92     0013                     	;# 
    93     0014                     	;# 
    94     0015                     	;# 
    95     0015                     	;# 
    96     0016                     	;# 
    97     0017                     	;# 
    98     0018                     	;# 
    99     0019                     	;# 
   100     001A                     	;# 
   101     001B                     	;# 
   102     001B                     	;# 
   103     001C                     	;# 
   104     001D                     	;# 
   105     001E                     	;# 
   106     001F                     	;# 
   107     0081                     	;# 
   108     0085                     	;# 
   109     0086                     	;# 
   110     0087                     	;# 
   111     0088                     	;# 
   112     0089                     	;# 
   113     008C                     	;# 
   114     008D                     	;# 
   115     008E                     	;# 
   116     008F                     	;# 
   117     0090                     	;# 
   118     0091                     	;# 
   119     0092                     	;# 
   120     0093                     	;# 
   121     0093                     	;# 
   122     0093                     	;# 
   123     0094                     	;# 
   124     0095                     	;# 
   125     0096                     	;# 
   126     0097                     	;# 
   127     0098                     	;# 
   128     0099                     	;# 
   129     009A                     	;# 
   130     009B                     	;# 
   131     009C                     	;# 
   132     009D                     	;# 
   133     009E                     	;# 
   134     009F                     	;# 
   135     0105                     	;# 
   136     0107                     	;# 
   137     0108                     	;# 
   138     0109                     	;# 
   139     010C                     	;# 
   140     010C                     	;# 
   141     010D                     	;# 
   142     010E                     	;# 
   143     010F                     	;# 
   144     0185                     	;# 
   145     0187                     	;# 
   146     0188                     	;# 
   147     0189                     	;# 
   148     018C                     	;# 
   149     018D                     	;# 
   150     0000                     	;# 
   151     0001                     	;# 
   152     0002                     	;# 
   153     0003                     	;# 
   154     0004                     	;# 
   155     0005                     	;# 
   156     0006                     	;# 
   157     0007                     	;# 
   158     0008                     	;# 
   159     0009                     	;# 
   160     000A                     	;# 
   161     000B                     	;# 
   162     000C                     	;# 
   163     000D                     	;# 
   164     000E                     	;# 
   165     000E                     	;# 
   166     000F                     	;# 
   167     0010                     	;# 
   168     0011                     	;# 
   169     0012                     	;# 
   170     0013                     	;# 
   171     0014                     	;# 
   172     0015                     	;# 
   173     0015                     	;# 
   174     0016                     	;# 
   175     0017                     	;# 
   176     0018                     	;# 
   177     0019                     	;# 
   178     001A                     	;# 
   179     001B                     	;# 
   180     001B                     	;# 
   181     001C                     	;# 
   182     001D                     	;# 
   183     001E                     	;# 
   184     001F                     	;# 
   185     0081                     	;# 
   186     0085                     	;# 
   187     0086                     	;# 
   188     0087                     	;# 
   189     0088                     	;# 
   190     0089                     	;# 
   191     008C                     	;# 
   192     008D                     	;# 
   193     008E                     	;# 
   194     008F                     	;# 
   195     0090                     	;# 
   196     0091                     	;# 
   197     0092                     	;# 
   198     0093                     	;# 
   199     0093                     	;# 
   200     0093                     	;# 
   201     0094                     	;# 
   202     0095                     	;# 
   203     0096                     	;# 
   204     0097                     	;# 
   205     0098                     	;# 
   206     0099                     	;# 
   207     009A                     	;# 
   208     009B                     	;# 
   209     009C                     	;# 
   210     009D                     	;# 
   211     009E                     	;# 
   212     009F                     	;# 
   213     0105                     	;# 
   214     0107                     	;# 
   215     0108                     	;# 
   216     0109                     	;# 
   217     010C                     	;# 
   218     010C                     	;# 
   219     010D                     	;# 
   220     010E                     	;# 
   221     010F                     	;# 
   222     0185                     	;# 
   223     0187                     	;# 
   224     0188                     	;# 
   225     0189                     	;# 
   226     018C                     	;# 
   227     018D                     	;# 
   228     0000                     	;# 
   229     0001                     	;# 
   230     0002                     	;# 
   231     0003                     	;# 
   232     0004                     	;# 
   233     0005                     	;# 
   234     0006                     	;# 
   235     0007                     	;# 
   236     0008                     	;# 
   237     0009                     	;# 
   238     000A                     	;# 
   239     000B                     	;# 
   240     000C                     	;# 
   241     000D                     	;# 
   242     000E                     	;# 
   243     000E                     	;# 
   244     000F                     	;# 
   245     0010                     	;# 
   246     0011                     	;# 
   247     0012                     	;# 
   248     0013                     	;# 
   249     0014                     	;# 
   250     0015                     	;# 
   251     0015                     	;# 
   252     0016                     	;# 
   253     0017                     	;# 
   254     0018                     	;# 
   255     0019                     	;# 
   256     001A                     	;# 
   257     001B                     	;# 
   258     001B                     	;# 
   259     001C                     	;# 
   260     001D                     	;# 
   261     001E                     	;# 
   262     001F                     	;# 
   263     0081                     	;# 
   264     0085                     	;# 
   265     0086                     	;# 
   266     0087                     	;# 
   267     0088                     	;# 
   268     0089                     	;# 
   269     008C                     	;# 
   270     008D                     	;# 
   271     008E                     	;# 
   272     008F                     	;# 
   273     0090                     	;# 
   274     0091                     	;# 
   275     0092                     	;# 
   276     0093                     	;# 
   277     0093                     	;# 
   278     0093                     	;# 
   279     0094                     	;# 
   280     0095                     	;# 
   281     0096                     	;# 
   282     0097                     	;# 
   283     0098                     	;# 
   284     0099                     	;# 
   285     009A                     	;# 
   286     009B                     	;# 
   287     009C                     	;# 
   288     009D                     	;# 
   289     009E                     	;# 
   290     009F                     	;# 
   291     0105                     	;# 
   292     0107                     	;# 
   293     0108                     	;# 
   294     0109                     	;# 
   295     010C                     	;# 
   296     010C                     	;# 
   297     010D                     	;# 
   298     010E                     	;# 
   299     010F                     	;# 
   300     0185                     	;# 
   301     0187                     	;# 
   302     0188                     	;# 
   303     0189                     	;# 
   304     018C                     	;# 
   305     018D                     	;# 
   306                           
   307                           	psect	idataBANK1
   308     07FB                     __pidataBANK1:
   309                           
   310                           ;initializer for _cont
   311     07FB  3401               	retlw	1
   312                           
   313                           	psect	nvBANK3
   314     01E6                     __pnvBANK3:
   315     01E6                     _ang2:
   316     01E6                     	ds	1
   317     01E7                     _ang1:
   318     01E7                     	ds	1
   319     0012                     _T2CONbits	set	18
   320     001B                     _CCPR2L	set	27
   321     001D                     _CCP2CONbits	set	29
   322     0015                     _CCPR1L	set	21
   323     0017                     _CCP1CONbits	set	23
   324     0009                     _PORTE	set	9
   325     0008                     _PORTD	set	8
   326     0007                     _PORTC	set	7
   327     0006                     _PORTB	set	6
   328     0005                     _PORTA	set	5
   329     0001                     _TMR0	set	1
   330     0007                     _PORTCbits	set	7
   331     001F                     _ADCON0bits	set	31
   332     000C                     _PIR1bits	set	12
   333     000B                     _INTCONbits	set	11
   334     001E                     _ADRESH	set	30
   335     0087                     _TRISCbits	set	135
   336     0092                     _PR2	set	146
   337     009F                     _ADCON1bits	set	159
   338     008C                     _PIE1bits	set	140
   339     008F                     _OSCCONbits	set	143
   340     0096                     _IOCB	set	150
   341     0081                     _OPTION_REGbits	set	129
   342     0089                     _TRISE	set	137
   343     0088                     _TRISD	set	136
   344     0087                     _TRISC	set	135
   345     0086                     _TRISB	set	134
   346     0189                     _ANSELH	set	393
   347     0188                     _ANSELbits	set	392
   348                           
   349                           	psect	cinit
   350     0013                     start_initialization:	
   351                           ; #config settings
   352                           
   353     0013                     __initialization:
   354                           
   355                           ; Initialize objects allocated to BANK1
   356     0013  1683               	bsf	3,5	;RP0=1, select bank1
   357     0014  1303               	bcf	3,6	;RP1=0, select bank1
   358     0015  120A  118A  27FB  120A  118A  	fcall	__pidataBANK1	;fetch initializer
   359     001A  00D6               	movwf	__pdataBANK1& (0+127)
   360                           
   361                           ; Clear objects allocated to BANK3
   362     001B  1683               	bsf	3,5	;RP0=1, select bank3
   363     001C  1703               	bsf	3,6	;RP1=1, select bank3
   364     001D  01DE               	clrf	__pbssBANK3& (0+127)
   365     001E  01DF               	clrf	(__pbssBANK3+1)& (0+127)
   366     001F  01E0               	clrf	(__pbssBANK3+2)& (0+127)
   367     0020  01E1               	clrf	(__pbssBANK3+3)& (0+127)
   368     0021  01E2               	clrf	(__pbssBANK3+4)& (0+127)
   369     0022  01E3               	clrf	(__pbssBANK3+5)& (0+127)
   370     0023  01E4               	clrf	(__pbssBANK3+6)& (0+127)
   371     0024  01E5               	clrf	(__pbssBANK3+7)& (0+127)
   372                           
   373                           ; Clear objects allocated to BANK1
   374     0025  1683               	bsf	3,5	;RP0=1, select bank1
   375     0026  1303               	bcf	3,6	;RP1=0, select bank1
   376     0027  01CE               	clrf	__pbssBANK1& (0+127)
   377     0028  01CF               	clrf	(__pbssBANK1+1)& (0+127)
   378     0029  01D0               	clrf	(__pbssBANK1+2)& (0+127)
   379     002A  01D1               	clrf	(__pbssBANK1+3)& (0+127)
   380     002B  01D2               	clrf	(__pbssBANK1+4)& (0+127)
   381     002C  01D3               	clrf	(__pbssBANK1+5)& (0+127)
   382     002D  01D4               	clrf	(__pbssBANK1+6)& (0+127)
   383     002E  01D5               	clrf	(__pbssBANK1+7)& (0+127)
   384     002F                     end_of_initialization:	
   385                           ;End of C runtime variable initialization code
   386                           
   387     002F                     __end_of__initialization:
   388     002F  0183               	clrf	3
   389     0030  160A  118A  2BDA   	ljmp	_main	;jump to C main() function
   390                           
   391                           	psect	bssBANK1
   392     00CE                     __pbssBANK1:
   393     00CE                     _periodoPot:
   394     00CE                     	ds	2
   395     00D0                     _valorPot2:
   396     00D0                     	ds	2
   397     00D2                     _valorPot1:
   398     00D2                     	ds	2
   399     00D4                     _i:
   400     00D4                     	ds	2
   401                           
   402                           	psect	dataBANK1
   403     00D6                     __pdataBANK1:
   404     00D6                     _cont:
   405     00D6                     	ds	1
   406                           
   407                           	psect	bssBANK3
   408     01DE                     __pbssBANK3:
   409     01DE                     _dutyPot:
   410     01DE                     	ds	2
   411     01E0                     _potMapeado:
   412     01E0                     	ds	4
   413     01E4                     _potenciometro:
   414     01E4                     	ds	2
   415                           
   416                           	psect	cstackBANK3
   417     0190                     __pcstackBANK3:
   418     0190                     ?___flmul:
   419     0190                     ___flmul@b:	
   420                           ; 4 bytes @ 0x0
   421                           
   422                           
   423                           ; 4 bytes @ 0x0
   424     0190                     	ds	4
   425     0194                     ___flmul@a:
   426                           
   427                           ; 4 bytes @ 0x4
   428     0194                     	ds	4
   429     0198                     ___flmul@sign:
   430                           
   431                           ; 1 bytes @ 0x8
   432     0198                     	ds	1
   433     0199                     ___flmul@aexp:
   434                           
   435                           ; 1 bytes @ 0x9
   436     0199                     	ds	1
   437     019A                     ___flmul@grs:
   438                           
   439                           ; 4 bytes @ 0xA
   440     019A                     	ds	4
   441     019E                     ___flmul@bexp:
   442                           
   443                           ; 1 bytes @ 0xE
   444     019E                     	ds	1
   445     019F                     ___flmul@prod:
   446                           
   447                           ; 4 bytes @ 0xF
   448     019F                     	ds	4
   449     01A3                     ___flmul@temp:
   450                           
   451                           ; 2 bytes @ 0x13
   452     01A3                     	ds	2
   453     01A5                     ?___fldiv:
   454     01A5                     ___fldiv@a:	
   455                           ; 4 bytes @ 0x15
   456                           
   457                           
   458                           ; 4 bytes @ 0x15
   459     01A5                     	ds	4
   460     01A9                     ___fldiv@b:
   461                           
   462                           ; 4 bytes @ 0x19
   463     01A9                     	ds	4
   464     01AD                     ??___fldiv:
   465                           
   466                           ; 1 bytes @ 0x1D
   467     01AD                     	ds	5
   468     01B2                     ___fldiv@rem:
   469                           
   470                           ; 4 bytes @ 0x22
   471     01B2                     	ds	4
   472     01B6                     ___fldiv@sign:
   473                           
   474                           ; 1 bytes @ 0x26
   475     01B6                     	ds	1
   476     01B7                     ___fldiv@new_exp:
   477                           
   478                           ; 2 bytes @ 0x27
   479     01B7                     	ds	2
   480     01B9                     ___fldiv@grs:
   481                           
   482                           ; 4 bytes @ 0x29
   483     01B9                     	ds	4
   484     01BD                     ___fldiv@bexp:
   485                           
   486                           ; 1 bytes @ 0x2D
   487     01BD                     	ds	1
   488     01BE                     ___fldiv@aexp:
   489                           
   490                           ; 1 bytes @ 0x2E
   491     01BE                     	ds	1
   492     01BF                     ?___fltol:
   493     01BF                     ___fltol@f1:	
   494                           ; 4 bytes @ 0x2F
   495                           
   496                           
   497                           ; 4 bytes @ 0x2F
   498     01BF                     	ds	4
   499     01C3                     ??___fltol:
   500                           
   501                           ; 1 bytes @ 0x33
   502     01C3                     	ds	4
   503     01C7                     ?_PWM_duty:
   504     01C7                     ?_PWM_config:	
   505                           ; 1 bytes @ 0x37
   506                           
   507     01C7                     PWM_config@periodo_ms:	
   508                           ; 1 bytes @ 0x37
   509                           
   510     01C7                     PWM_duty@duty:	
   511                           ; 4 bytes @ 0x37
   512                           
   513                           
   514                           ; 4 bytes @ 0x37
   515     01C7                     	ds	4
   516     01CB                     ??_PWM_duty:
   517     01CB                     PWM_config@canal:	
   518                           ; 1 bytes @ 0x3B
   519                           
   520                           
   521                           ; 1 bytes @ 0x3B
   522     01CB                     	ds	3
   523     01CE                     PWM_duty@canal:
   524                           
   525                           ; 1 bytes @ 0x3E
   526     01CE                     	ds	1
   527     01CF                     PWM_duty@particion1:
   528                           
   529                           ; 2 bytes @ 0x3F
   530     01CF                     	ds	2
   531     01D1                     PWM_duty@particion2:
   532                           
   533                           ; 2 bytes @ 0x41
   534     01D1                     	ds	2
   535     01D3                     ??_setup:
   536                           
   537                           ; 1 bytes @ 0x43
   538     01D3                     	ds	1
   539     01D4                     ??_main:
   540                           
   541                           ; 1 bytes @ 0x44
   542     01D4                     	ds	2
   543     01D6                     _main$344:
   544                           
   545                           ; 2 bytes @ 0x46
   546     01D6                     	ds	2
   547     01D8                     _main$345:
   548                           
   549                           ; 2 bytes @ 0x48
   550     01D8                     	ds	2
   551     01DA                     main@Lmax:
   552                           
   553                           ; 2 bytes @ 0x4A
   554     01DA                     	ds	2
   555     01DC                     main@Lmin:
   556                           
   557                           ; 2 bytes @ 0x4C
   558     01DC                     	ds	2
   559                           
   560                           	psect	cstackBANK1
   561     00A0                     __pcstackBANK1:
   562     00A0                     i1___fltol@sign1:
   563                           
   564                           ; 1 bytes @ 0x0
   565     00A0                     	ds	1
   566     00A1                     i1___fltol@exp1:
   567                           
   568                           ; 1 bytes @ 0x1
   569     00A1                     	ds	1
   570     00A2                     ?i1_PWM_duty:
   571     00A2                     i1PWM_duty@duty:	
   572                           ; 1 bytes @ 0x2
   573                           
   574                           
   575                           ; 4 bytes @ 0x2
   576     00A2                     	ds	4
   577     00A6                     ??i1_PWM_duty:
   578                           
   579                           ; 1 bytes @ 0x6
   580     00A6                     	ds	3
   581     00A9                     i1PWM_duty@canal:
   582                           
   583                           ; 1 bytes @ 0x9
   584     00A9                     	ds	1
   585     00AA                     i1PWM_duty@particion1:
   586                           
   587                           ; 2 bytes @ 0xA
   588     00AA                     	ds	2
   589     00AC                     i1PWM_duty@particion2:
   590                           
   591                           ; 2 bytes @ 0xC
   592     00AC                     	ds	2
   593     00AE                     ??_isr:
   594                           
   595                           ; 1 bytes @ 0xE
   596     00AE                     	ds	7
   597     00B5                     _isr$1214:
   598                           
   599                           ; 4 bytes @ 0x15
   600     00B5                     	ds	4
   601     00B9                     ?__Umul8_16:
   602     00B9                     ?___xxtofl:	
   603                           ; 2 bytes @ 0x19
   604                           
   605     00B9                     __Umul8_16@multiplicand:	
   606                           ; 4 bytes @ 0x19
   607                           
   608     00B9                     ___xxtofl@val:	
   609                           ; 1 bytes @ 0x19
   610                           
   611                           
   612                           ; 4 bytes @ 0x19
   613     00B9                     	ds	2
   614     00BB                     ??__Umul8_16:
   615                           
   616                           ; 1 bytes @ 0x1B
   617     00BB                     	ds	2
   618     00BD                     ??___xxtofl:
   619     00BD                     __Umul8_16@product:	
   620                           ; 1 bytes @ 0x1D
   621                           
   622                           
   623                           ; 2 bytes @ 0x1D
   624     00BD                     	ds	2
   625     00BF                     __Umul8_16@word_mpld:
   626                           
   627                           ; 2 bytes @ 0x1F
   628     00BF                     	ds	2
   629     00C1                     __Umul8_16@multiplier:
   630     00C1                     ___xxtofl@sign:	
   631                           ; 1 bytes @ 0x21
   632                           
   633                           
   634                           ; 1 bytes @ 0x21
   635     00C1                     	ds	1
   636     00C2                     ___xxtofl@exp:
   637                           
   638                           ; 1 bytes @ 0x22
   639     00C2                     	ds	1
   640     00C3                     ___xxtofl@arg:
   641                           
   642                           ; 4 bytes @ 0x23
   643     00C3                     	ds	4
   644     00C7                     ??___flmul:
   645                           
   646                           ; 1 bytes @ 0x27
   647     00C7                     	ds	5
   648     00CC                     ___fltol@sign1:
   649                           
   650                           ; 1 bytes @ 0x2C
   651     00CC                     	ds	1
   652     00CD                     ___fltol@exp1:
   653                           
   654                           ; 1 bytes @ 0x2D
   655     00CD                     	ds	1
   656     00CE                     ??_PWM_config:
   657                           
   658                           	psect	cstackCOMMON
   659     0070                     __pcstackCOMMON:	
   660                           ; 1 bytes @ 0x2E
   661                           
   662     0070                     ?_pulse:
   663     0070                     ??_pulse:	
   664                           ; 1 bytes @ 0x0
   665                           
   666     0070                     ?_setup:	
   667                           ; 1 bytes @ 0x0
   668                           
   669     0070                     ?_isr:	
   670                           ; 1 bytes @ 0x0
   671                           
   672     0070                     ?_main:	
   673                           ; 1 bytes @ 0x0
   674                           
   675     0070                     ?i1__Umul8_16:	
   676                           ; 1 bytes @ 0x0
   677                           
   678     0070                     ?i1___xxtofl:	
   679                           ; 2 bytes @ 0x0
   680                           
   681     0070                     i1__Umul8_16@multiplicand:	
   682                           ; 4 bytes @ 0x0
   683                           
   684     0070                     i1___xxtofl@val:	
   685                           ; 1 bytes @ 0x0
   686                           
   687                           
   688                           ; 4 bytes @ 0x0
   689     0070                     	ds	2
   690     0072                     ??i1__Umul8_16:
   691                           
   692                           ; 1 bytes @ 0x2
   693     0072                     	ds	2
   694     0074                     ??i1___xxtofl:
   695     0074                     i1__Umul8_16@product:	
   696                           ; 1 bytes @ 0x4
   697                           
   698                           
   699                           ; 2 bytes @ 0x4
   700     0074                     	ds	2
   701     0076                     i1__Umul8_16@word_mpld:
   702                           
   703                           ; 2 bytes @ 0x6
   704     0076                     	ds	2
   705     0078                     i1__Umul8_16@multiplier:
   706     0078                     i1___xxtofl@sign:	
   707                           ; 1 bytes @ 0x8
   708                           
   709                           
   710                           ; 1 bytes @ 0x8
   711     0078                     	ds	1
   712     0079                     i1___xxtofl@exp:
   713                           
   714                           ; 1 bytes @ 0x9
   715     0079                     	ds	1
   716     007A                     i1___xxtofl@arg:
   717                           
   718                           ; 4 bytes @ 0xA
   719     007A                     	ds	4
   720                           
   721                           	psect	cstackBANK0
   722     0020                     __pcstackBANK0:
   723     0020                     ?i1___fldiv:
   724     0020                     i1___fldiv@a:	
   725                           ; 4 bytes @ 0x0
   726                           
   727                           
   728                           ; 4 bytes @ 0x0
   729     0020                     	ds	4
   730     0024                     i1___fldiv@b:
   731                           
   732                           ; 4 bytes @ 0x4
   733     0024                     	ds	4
   734     0028                     ??i1___fldiv:
   735                           
   736                           ; 1 bytes @ 0x8
   737     0028                     	ds	5
   738     002D                     i1___fldiv@rem:
   739                           
   740                           ; 4 bytes @ 0xD
   741     002D                     	ds	4
   742     0031                     i1___fldiv@sign:
   743                           
   744                           ; 1 bytes @ 0x11
   745     0031                     	ds	1
   746     0032                     i1___fldiv@new_exp:
   747                           
   748                           ; 2 bytes @ 0x12
   749     0032                     	ds	2
   750     0034                     i1___fldiv@grs:
   751                           
   752                           ; 4 bytes @ 0x14
   753     0034                     	ds	4
   754     0038                     i1___fldiv@bexp:
   755                           
   756                           ; 1 bytes @ 0x18
   757     0038                     	ds	1
   758     0039                     i1___fldiv@aexp:
   759                           
   760                           ; 1 bytes @ 0x19
   761     0039                     	ds	1
   762     003A                     ?i1___flmul:
   763     003A                     i1___flmul@b:	
   764                           ; 4 bytes @ 0x1A
   765                           
   766                           
   767                           ; 4 bytes @ 0x1A
   768     003A                     	ds	4
   769     003E                     i1___flmul@a:
   770                           
   771                           ; 4 bytes @ 0x1E
   772     003E                     	ds	4
   773     0042                     ??i1___flmul:
   774                           
   775                           ; 1 bytes @ 0x22
   776     0042                     	ds	5
   777     0047                     i1___flmul@sign:
   778                           
   779                           ; 1 bytes @ 0x27
   780     0047                     	ds	1
   781     0048                     i1___flmul@grs:
   782                           
   783                           ; 4 bytes @ 0x28
   784     0048                     	ds	4
   785     004C                     i1___flmul@aexp:
   786                           
   787                           ; 1 bytes @ 0x2C
   788     004C                     	ds	1
   789     004D                     i1___flmul@bexp:
   790                           
   791                           ; 1 bytes @ 0x2D
   792     004D                     	ds	1
   793     004E                     i1___flmul@prod:
   794                           
   795                           ; 4 bytes @ 0x2E
   796     004E                     	ds	4
   797     0052                     i1___flmul@temp:
   798                           
   799                           ; 2 bytes @ 0x32
   800     0052                     	ds	2
   801     0054                     ?___fladd:
   802     0054                     ___fladd@b:	
   803                           ; 4 bytes @ 0x34
   804                           
   805                           
   806                           ; 4 bytes @ 0x34
   807     0054                     	ds	4
   808     0058                     ___fladd@a:
   809                           
   810                           ; 4 bytes @ 0x38
   811     0058                     	ds	4
   812     005C                     ??___fladd:
   813                           
   814                           ; 1 bytes @ 0x3C
   815     005C                     	ds	8
   816     0064                     ___fladd@signs:
   817                           
   818                           ; 1 bytes @ 0x44
   819     0064                     	ds	1
   820     0065                     ___fladd@aexp:
   821                           
   822                           ; 1 bytes @ 0x45
   823     0065                     	ds	1
   824     0066                     ___fladd@bexp:
   825                           
   826                           ; 1 bytes @ 0x46
   827     0066                     	ds	1
   828     0067                     ___fladd@grs:
   829                           
   830                           ; 1 bytes @ 0x47
   831     0067                     	ds	1
   832     0068                     ?i1___fltol:
   833     0068                     i1___fltol@f1:	
   834                           ; 4 bytes @ 0x48
   835                           
   836                           
   837                           ; 4 bytes @ 0x48
   838     0068                     	ds	4
   839     006C                     ??i1___fltol:
   840                           
   841                           ; 1 bytes @ 0x4C
   842     006C                     	ds	4
   843                           
   844                           	psect	maintext
   845     13DA                     __pmaintext:	
   846 ;;
   847 ;;Main: autosize = 0, tempsize = 2, incstack = 0, save=0
   848 ;;
   849 ;; *************** function _main *****************
   850 ;; Defined at:
   851 ;;		line 118 in file "Progra_IRONMAN.c"
   852 ;; Parameters:    Size  Location     Type
   853 ;;		None
   854 ;; Auto vars:     Size  Location     Type
   855 ;;  Lmin            2   76[BANK3 ] int 
   856 ;;  Lmax            2   74[BANK3 ] int 
   857 ;; Return value:  Size  Location     Type
   858 ;;                  1    wreg      void 
   859 ;; Registers used:
   860 ;;		wreg, status,2, status,0, btemp+1, pclath, cstack
   861 ;; Tracked objects:
   862 ;;		On entry : B00/0
   863 ;;		On exit  : 0/0
   864 ;;		Unchanged: 0/0
   865 ;; Data sizes:     COMMON   BANK0   BANK1   BANK3   BANK2
   866 ;;      Params:         0       0       0       0       0
   867 ;;      Locals:         0       0       0       8       0
   868 ;;      Temps:          0       0       0       2       0
   869 ;;      Totals:         0       0       0      10       0
   870 ;;Total ram usage:       10 bytes
   871 ;; Hardware stack levels required when called: 8
   872 ;; This function calls:
   873 ;;		___fldiv
   874 ;;		___flmul
   875 ;;		___fltol
   876 ;;		___xxtofl
   877 ;;		_setup
   878 ;; This function is called by:
   879 ;;		Startup code after reset
   880 ;; This function uses a non-reentrant model
   881 ;;
   882                           
   883     13DA                     _main:	
   884                           ;psect for function _main
   885                           
   886     13DA                     l3562:	
   887                           ;incstack = 0
   888                           ; Regs used in _main: [wreg+status,2+status,0+btemp+1+pclath+cstack]
   889                           
   890                           
   891                           ;Progra_IRONMAN.c: 119:     int Lmin = 14, Lmax = 32;
   892     13DA  300E               	movlw	14
   893     13DB  1683               	bsf	3,5	;RP0=1, select bank3
   894     13DC  1703               	bsf	3,6	;RP1=1, select bank3
   895     13DD  00DC               	movwf	main@Lmin^(0+384)
   896     13DE  3000               	movlw	0
   897     13DF  00DD               	movwf	(main@Lmin^(0+384)+1)
   898     13E0  3020               	movlw	32
   899     13E1  00DA               	movwf	main@Lmax^(0+384)
   900     13E2  3000               	movlw	0
   901     13E3  00DB               	movwf	(main@Lmax^(0+384)+1)
   902                           
   903                           ;Progra_IRONMAN.c: 120:     ang1 = Lmin;
   904     13E4  300E               	movlw	14
   905     13E5  00E7               	movwf	_ang1^(0+384)
   906                           
   907                           ;Progra_IRONMAN.c: 121:     ang2 = Lmin;
   908     13E6  300E               	movlw	14
   909     13E7  00E6               	movwf	_ang2^(0+384)
   910     13E8                     l3564:
   911                           
   912                           ;Progra_IRONMAN.c: 122:     setup ();
   913     13E8  160A  118A  218E  160A  118A  	fcall	_setup
   914     13ED                     l3566:
   915                           
   916                           ;Progra_IRONMAN.c: 123:     ADCON0bits.GO = 1;
   917     13ED  1283               	bcf	3,5	;RP0=0, select bank0
   918     13EE  1303               	bcf	3,6	;RP1=0, select bank0
   919     13EF  149F               	bsf	31,1	;volatile
   920     13F0                     l3568:
   921                           
   922                           ;Progra_IRONMAN.c: 135:         ang1 = (ang1<Lmin) ? Lmin:ang1;
   923     13F0  1683               	bsf	3,5	;RP0=1, select bank3
   924     13F1  1703               	bsf	3,6	;RP1=1, select bank3
   925     13F2  085D               	movf	(main@Lmin+1)^(0+384),w
   926     13F3  3A80               	xorlw	128
   927     13F4  3C80               	sublw	128
   928     13F5  1D03               	skipz
   929     13F6  2BF9               	goto	u5895
   930     13F7  085C               	movf	main@Lmin^(0+384),w
   931     13F8  0267               	subwf	_ang1^(0+384),w
   932     13F9                     u5895:
   933     13F9  1C03               	skipc
   934     13FA  2BFC               	goto	u5891
   935     13FB  2BFD               	goto	u5890
   936     13FC                     u5891:
   937     13FC  2C07               	goto	l3572
   938     13FD                     u5890:
   939     13FD                     l3570:
   940     13FD  1683               	bsf	3,5	;RP0=1, select bank3
   941     13FE  1703               	bsf	3,6	;RP1=1, select bank3
   942     13FF  0867               	movf	_ang1^(0+384),w
   943     1400  00D4               	movwf	??_main^(0+384)
   944     1401  01D5               	clrf	(??_main^(0+384)+1)
   945     1402  0854               	movf	??_main^(0+384),w
   946     1403  00D6               	movwf	_main$344^(0+384)
   947     1404  0855               	movf	(??_main+1)^(0+384),w
   948     1405  00D7               	movwf	(_main$344+1)^(0+384)
   949     1406  2C0D               	goto	l101
   950     1407                     l3572:
   951     1407  1683               	bsf	3,5	;RP0=1, select bank3
   952     1408  1703               	bsf	3,6	;RP1=1, select bank3
   953     1409  085D               	movf	(main@Lmin+1)^(0+384),w
   954     140A  00D7               	movwf	(_main$344+1)^(0+384)
   955     140B  085C               	movf	main@Lmin^(0+384),w
   956     140C  00D6               	movwf	_main$344^(0+384)
   957     140D                     l101:
   958     140D  0856               	movf	_main$344^(0+384),w
   959     140E  00E7               	movwf	_ang1^(0+384)
   960                           
   961                           ;Progra_IRONMAN.c: 136:         ang1 = (ang1>Lmax) ? Lmax:ang1;
   962     140F  085B               	movf	(main@Lmax+1)^(0+384),w
   963     1410  3A80               	xorlw	128
   964     1411  00D4               	movwf	??_main^(0+384)
   965     1412  3080               	movlw	128
   966     1413  0254               	subwf	??_main^(0+384),w
   967     1414  1D03               	skipz
   968     1415  2C18               	goto	u5905
   969     1416  0867               	movf	_ang1^(0+384),w
   970     1417  025A               	subwf	main@Lmax^(0+384),w
   971     1418                     u5905:
   972     1418  1C03               	skipc
   973     1419  2C1B               	goto	u5901
   974     141A  2C1C               	goto	u5900
   975     141B                     u5901:
   976     141B  2C26               	goto	l3576
   977     141C                     u5900:
   978     141C                     l3574:
   979     141C  1683               	bsf	3,5	;RP0=1, select bank3
   980     141D  1703               	bsf	3,6	;RP1=1, select bank3
   981     141E  0867               	movf	_ang1^(0+384),w
   982     141F  00D4               	movwf	??_main^(0+384)
   983     1420  01D5               	clrf	(??_main^(0+384)+1)
   984     1421  0854               	movf	??_main^(0+384),w
   985     1422  00D8               	movwf	_main$345^(0+384)
   986     1423  0855               	movf	(??_main+1)^(0+384),w
   987     1424  00D9               	movwf	(_main$345+1)^(0+384)
   988     1425  2C2C               	goto	l105
   989     1426                     l3576:
   990     1426  1683               	bsf	3,5	;RP0=1, select bank3
   991     1427  1703               	bsf	3,6	;RP1=1, select bank3
   992     1428  085B               	movf	(main@Lmax+1)^(0+384),w
   993     1429  00D9               	movwf	(_main$345+1)^(0+384)
   994     142A  085A               	movf	main@Lmax^(0+384),w
   995     142B  00D8               	movwf	_main$345^(0+384)
   996     142C                     l105:
   997     142C  0858               	movf	_main$345^(0+384),w
   998     142D  00E7               	movwf	_ang1^(0+384)
   999     142E                     l3578:
  1000                           
  1001                           ;Progra_IRONMAN.c: 138:         potMapeado = (0.39215686f*potenciometro)/100;
  1002     142E  3042               	movlw	66
  1003     142F  00A8               	movwf	(___fldiv@a+3)^(0+384)
  1004     1430  30C8               	movlw	200
  1005     1431  00A7               	movwf	(___fldiv@a+2)^(0+384)
  1006     1432  3000               	movlw	0
  1007     1433  00A6               	movwf	(___fldiv@a+1)^(0+384)
  1008     1434  3000               	movlw	0
  1009     1435  00A5               	movwf	___fldiv@a^(0+384)
  1010     1436  303E               	movlw	62
  1011     1437  0093               	movwf	(___flmul@b+3)^(0+384)
  1012     1438  30C8               	movlw	200
  1013     1439  0092               	movwf	(___flmul@b+2)^(0+384)
  1014     143A  30C8               	movlw	200
  1015     143B  0091               	movwf	(___flmul@b+1)^(0+384)
  1016     143C  30C9               	movlw	201
  1017     143D  0090               	movwf	___flmul@b^(0+384)
  1018     143E  0864               	movf	_potenciometro^(0+384),w
  1019     143F  1683               	bsf	3,5	;RP0=1, select bank1
  1020     1440  1303               	bcf	3,6	;RP1=0, select bank1
  1021     1441  00B9               	movwf	___xxtofl@val^(0+128)
  1022     1442  1683               	bsf	3,5	;RP0=1, select bank3
  1023     1443  1703               	bsf	3,6	;RP1=1, select bank3
  1024     1444  0865               	movf	(_potenciometro+1)^(0+384),w
  1025     1445  1683               	bsf	3,5	;RP0=1, select bank1
  1026     1446  1303               	bcf	3,6	;RP1=0, select bank1
  1027     1447  00BA               	movwf	(___xxtofl@val+1)^(0+128)
  1028     1448  3000               	movlw	0
  1029     1449  1BBA               	btfsc	(___xxtofl@val+1)^(0+128),7
  1030     144A  30FF               	movlw	255
  1031     144B  00BB               	movwf	(___xxtofl@val+2)^(0+128)
  1032     144C  00BC               	movwf	(___xxtofl@val+3)^(0+128)
  1033     144D  3001               	movlw	1
  1034     144E  120A  158A  202A  160A  118A  	fcall	___xxtofl
  1035     1453  1683               	bsf	3,5	;RP0=1, select bank1
  1036     1454  1303               	bcf	3,6	;RP1=0, select bank1
  1037     1455  083C               	movf	(?___xxtofl+3)^(0+128),w
  1038     1456  1683               	bsf	3,5	;RP0=1, select bank3
  1039     1457  1703               	bsf	3,6	;RP1=1, select bank3
  1040     1458  0097               	movwf	(___flmul@a+3)^(0+384)
  1041     1459  1683               	bsf	3,5	;RP0=1, select bank1
  1042     145A  1303               	bcf	3,6	;RP1=0, select bank1
  1043     145B  083B               	movf	(?___xxtofl+2)^(0+128),w
  1044     145C  1683               	bsf	3,5	;RP0=1, select bank3
  1045     145D  1703               	bsf	3,6	;RP1=1, select bank3
  1046     145E  0096               	movwf	(___flmul@a+2)^(0+384)
  1047     145F  1683               	bsf	3,5	;RP0=1, select bank1
  1048     1460  1303               	bcf	3,6	;RP1=0, select bank1
  1049     1461  083A               	movf	(?___xxtofl+1)^(0+128),w
  1050     1462  1683               	bsf	3,5	;RP0=1, select bank3
  1051     1463  1703               	bsf	3,6	;RP1=1, select bank3
  1052     1464  0095               	movwf	(___flmul@a+1)^(0+384)
  1053     1465  1683               	bsf	3,5	;RP0=1, select bank1
  1054     1466  1303               	bcf	3,6	;RP1=0, select bank1
  1055     1467  0839               	movf	?___xxtofl^(0+128),w
  1056     1468  1683               	bsf	3,5	;RP0=1, select bank3
  1057     1469  1703               	bsf	3,6	;RP1=1, select bank3
  1058     146A  0094               	movwf	___flmul@a^(0+384)
  1059     146B  120A  118A  2033  160A  118A  	fcall	___flmul
  1060     1470  1683               	bsf	3,5	;RP0=1, select bank3
  1061     1471  1703               	bsf	3,6	;RP1=1, select bank3
  1062     1472  0813               	movf	(?___flmul+3)^(0+384),w
  1063     1473  00AC               	movwf	(___fldiv@b+3)^(0+384)
  1064     1474  0812               	movf	(?___flmul+2)^(0+384),w
  1065     1475  00AB               	movwf	(___fldiv@b+2)^(0+384)
  1066     1476  0811               	movf	(?___flmul+1)^(0+384),w
  1067     1477  00AA               	movwf	(___fldiv@b+1)^(0+384)
  1068     1478  0810               	movf	?___flmul^(0+384),w
  1069     1479  00A9               	movwf	___fldiv@b^(0+384)
  1070     147A  120A  158A  20E4  160A  118A  	fcall	___fldiv
  1071     147F  1683               	bsf	3,5	;RP0=1, select bank3
  1072     1480  1703               	bsf	3,6	;RP1=1, select bank3
  1073     1481  0828               	movf	(?___fldiv+3)^(0+384),w
  1074     1482  00E3               	movwf	(_potMapeado+3)^(0+384)
  1075     1483  0827               	movf	(?___fldiv+2)^(0+384),w
  1076     1484  00E2               	movwf	(_potMapeado+2)^(0+384)
  1077     1485  0826               	movf	(?___fldiv+1)^(0+384),w
  1078     1486  00E1               	movwf	(_potMapeado+1)^(0+384)
  1079     1487  0825               	movf	?___fldiv^(0+384),w
  1080     1488  00E0               	movwf	_potMapeado^(0+384)
  1081     1489                     l3580:
  1082                           
  1083                           ;Progra_IRONMAN.c: 139:         dutyPot = (int)(0.0000001f * potMapeado);
  1084     1489  0863               	movf	(_potMapeado+3)^(0+384),w
  1085     148A  0097               	movwf	(___flmul@a+3)^(0+384)
  1086     148B  0862               	movf	(_potMapeado+2)^(0+384),w
  1087     148C  0096               	movwf	(___flmul@a+2)^(0+384)
  1088     148D  0861               	movf	(_potMapeado+1)^(0+384),w
  1089     148E  0095               	movwf	(___flmul@a+1)^(0+384)
  1090     148F  0860               	movf	_potMapeado^(0+384),w
  1091     1490  0094               	movwf	___flmul@a^(0+384)
  1092     1491  3033               	movlw	51
  1093     1492  0093               	movwf	(___flmul@b+3)^(0+384)
  1094     1493  30D6               	movlw	214
  1095     1494  0092               	movwf	(___flmul@b+2)^(0+384)
  1096     1495  30BF               	movlw	191
  1097     1496  0091               	movwf	(___flmul@b+1)^(0+384)
  1098     1497  3095               	movlw	149
  1099     1498  0090               	movwf	___flmul@b^(0+384)
  1100     1499  120A  118A  2033  160A  118A  	fcall	___flmul
  1101     149E  1683               	bsf	3,5	;RP0=1, select bank3
  1102     149F  1703               	bsf	3,6	;RP1=1, select bank3
  1103     14A0  0813               	movf	(?___flmul+3)^(0+384),w
  1104     14A1  00C2               	movwf	(___fltol@f1+3)^(0+384)
  1105     14A2  0812               	movf	(?___flmul+2)^(0+384),w
  1106     14A3  00C1               	movwf	(___fltol@f1+2)^(0+384)
  1107     14A4  0811               	movf	(?___flmul+1)^(0+384),w
  1108     14A5  00C0               	movwf	(___fltol@f1+1)^(0+384)
  1109     14A6  0810               	movf	?___flmul^(0+384),w
  1110     14A7  00BF               	movwf	___fltol@f1^(0+384)
  1111     14A8  160A  118A  2100  160A  118A  	fcall	___fltol
  1112     14AD  1683               	bsf	3,5	;RP0=1, select bank3
  1113     14AE  1703               	bsf	3,6	;RP1=1, select bank3
  1114     14AF  0840               	movf	(?___fltol+1)^(0+384),w
  1115     14B0  00DF               	movwf	(_dutyPot+1)^(0+384)
  1116     14B1  083F               	movf	?___fltol^(0+384),w
  1117     14B2  00DE               	movwf	_dutyPot^(0+384)
  1118     14B3                     l3582:
  1119                           
  1120                           ;Progra_IRONMAN.c: 142:         if (ADCON0bits.GO == 0) {
  1121     14B3  1283               	bcf	3,5	;RP0=0, select bank0
  1122     14B4  1303               	bcf	3,6	;RP1=0, select bank0
  1123     14B5  189F               	btfsc	31,1	;volatile
  1124     14B6  2CB8               	goto	u5911
  1125     14B7  2CB9               	goto	u5910
  1126     14B8                     u5911:
  1127     14B8  2BF0               	goto	l3568
  1128     14B9                     u5910:
  1129     14B9                     l3584:
  1130                           
  1131                           ;Progra_IRONMAN.c: 143:             if(ADCON0bits.CHS == 0b0000)
  1132     14B9  0C1F               	rrf	31,w	;volatile
  1133     14BA  1683               	bsf	3,5	;RP0=1, select bank3
  1134     14BB  1703               	bsf	3,6	;RP1=1, select bank3
  1135     14BC  00D4               	movwf	??_main^(0+384)
  1136     14BD  0C54               	rrf	??_main^(0+384),w
  1137     14BE  390F               	andlw	15
  1138     14BF  3A00               	xorlw	0
  1139     14C0  1D03               	skipz
  1140     14C1  2CC3               	goto	u5921
  1141     14C2  2CC4               	goto	u5920
  1142     14C3                     u5921:
  1143     14C3  2CCB               	goto	l3588
  1144     14C4                     u5920:
  1145     14C4                     l3586:
  1146                           
  1147                           ;Progra_IRONMAN.c: 144:             {;Progra_IRONMAN.c: 145:                 ADCON0bits.
      +                          CHS = 0b0100;
  1148     14C4  1283               	bcf	3,5	;RP0=0, select bank0
  1149     14C5  1303               	bcf	3,6	;RP1=0, select bank0
  1150     14C6  081F               	movf	31,w	;volatile
  1151     14C7  39C3               	andlw	-61
  1152     14C8  3810               	iorlw	16
  1153     14C9  009F               	movwf	31	;volatile
  1154                           
  1155                           ;Progra_IRONMAN.c: 146:             }
  1156     14CA  2CF0               	goto	l3596
  1157     14CB                     l3588:
  1158     14CB  1283               	bcf	3,5	;RP0=0, select bank0
  1159     14CC  1303               	bcf	3,6	;RP1=0, select bank0
  1160     14CD  0C1F               	rrf	31,w	;volatile
  1161     14CE  1683               	bsf	3,5	;RP0=1, select bank3
  1162     14CF  1703               	bsf	3,6	;RP1=1, select bank3
  1163     14D0  00D4               	movwf	??_main^(0+384)
  1164     14D1  0C54               	rrf	??_main^(0+384),w
  1165     14D2  390F               	andlw	15
  1166     14D3  3A04               	xorlw	4
  1167     14D4  1D03               	skipz
  1168     14D5  2CD7               	goto	u5931
  1169     14D6  2CD8               	goto	u5930
  1170     14D7                     u5931:
  1171     14D7  2CDF               	goto	l3592
  1172     14D8                     u5930:
  1173     14D8                     l3590:
  1174                           
  1175                           ;Progra_IRONMAN.c: 148:             {;Progra_IRONMAN.c: 149:                 ADCON0bits.
      +                          CHS = 0b0010;
  1176     14D8  1283               	bcf	3,5	;RP0=0, select bank0
  1177     14D9  1303               	bcf	3,6	;RP1=0, select bank0
  1178     14DA  081F               	movf	31,w	;volatile
  1179     14DB  39C3               	andlw	-61
  1180     14DC  3808               	iorlw	8
  1181     14DD  009F               	movwf	31	;volatile
  1182                           
  1183                           ;Progra_IRONMAN.c: 150:             }
  1184     14DE  2CF0               	goto	l3596
  1185     14DF                     l3592:
  1186     14DF  1283               	bcf	3,5	;RP0=0, select bank0
  1187     14E0  1303               	bcf	3,6	;RP1=0, select bank0
  1188     14E1  0C1F               	rrf	31,w	;volatile
  1189     14E2  1683               	bsf	3,5	;RP0=1, select bank3
  1190     14E3  1703               	bsf	3,6	;RP1=1, select bank3
  1191     14E4  00D4               	movwf	??_main^(0+384)
  1192     14E5  0C54               	rrf	??_main^(0+384),w
  1193     14E6  390F               	andlw	15
  1194     14E7  3A02               	xorlw	2
  1195     14E8  1D03               	skipz
  1196     14E9  2CEB               	goto	u5941
  1197     14EA  2CEC               	goto	u5940
  1198     14EB                     u5941:
  1199     14EB  2CF0               	goto	l3596
  1200     14EC                     u5940:
  1201     14EC                     l3594:
  1202                           
  1203                           ;Progra_IRONMAN.c: 152:             {;Progra_IRONMAN.c: 153:                 ADCON0bits.
      +                          CHS = 0b0000;
  1204     14EC  30C3               	movlw	-61
  1205     14ED  1283               	bcf	3,5	;RP0=0, select bank0
  1206     14EE  1303               	bcf	3,6	;RP1=0, select bank0
  1207     14EF  059F               	andwf	31,f	;volatile
  1208     14F0                     l3596:
  1209                           
  1210                           ;Progra_IRONMAN.c: 155:             _delay((unsigned long)((1000)*(4000000/4000000.0)));
  1211     14F0  30C7               	movlw	199
  1212     14F1  1683               	bsf	3,5	;RP0=1, select bank3
  1213     14F2  1703               	bsf	3,6	;RP1=1, select bank3
  1214     14F3  00D4               	movwf	??_main^(0+384)
  1215     14F4                     u5957:
  1216     14F4  2CF5               	nop2
  1217     14F5  0BD4               	decfsz	??_main^(0+384),f
  1218     14F6  2CF4               	goto	u5957
  1219     14F7  2CF8               	nop2
  1220     14F8                     l3598:
  1221                           
  1222                           ;Progra_IRONMAN.c: 156:             ADCON0bits.GO = 1;
  1223     14F8  1283               	bcf	3,5	;RP0=0, select bank0
  1224     14F9  1303               	bcf	3,6	;RP1=0, select bank0
  1225     14FA  149F               	bsf	31,1	;volatile
  1226     14FB  2BF0               	goto	l3568
  1227     14FC  120A  118A  2810   	ljmp	start
  1228     14FF                     __end_of_main:
  1229                           
  1230                           	psect	text1
  1231     118E                     __ptext1:	
  1232 ;; *************** function _setup *****************
  1233 ;; Defined at:
  1234 ;;		line 174 in file "Progra_IRONMAN.c"
  1235 ;; Parameters:    Size  Location     Type
  1236 ;;		None
  1237 ;; Auto vars:     Size  Location     Type
  1238 ;;		None
  1239 ;; Return value:  Size  Location     Type
  1240 ;;                  1    wreg      void 
  1241 ;; Registers used:
  1242 ;;		wreg, status,2, status,0, btemp+1, pclath, cstack
  1243 ;; Tracked objects:
  1244 ;;		On entry : 0/0
  1245 ;;		On exit  : 0/0
  1246 ;;		Unchanged: 0/0
  1247 ;; Data sizes:     COMMON   BANK0   BANK1   BANK3   BANK2
  1248 ;;      Params:         0       0       0       0       0
  1249 ;;      Locals:         0       0       0       0       0
  1250 ;;      Temps:          0       0       0       1       0
  1251 ;;      Totals:         0       0       0       1       0
  1252 ;;Total ram usage:        1 bytes
  1253 ;; Hardware stack levels used: 1
  1254 ;; Hardware stack levels required when called: 7
  1255 ;; This function calls:
  1256 ;;		_PWM_config
  1257 ;;		_PWM_duty
  1258 ;; This function is called by:
  1259 ;;		_main
  1260 ;; This function uses a non-reentrant model
  1261 ;;
  1262                           
  1263     118E                     _setup:	
  1264                           ;psect for function _setup
  1265                           
  1266     118E                     l3482:	
  1267                           ;incstack = 0
  1268                           ; Regs used in _setup: [wreg+status,2+status,0+btemp+1+pclath+cstack]
  1269                           
  1270                           
  1271                           ;Progra_IRONMAN.c: 176:     ANSELbits.ANS0 = 1;
  1272     118E  1683               	bsf	3,5	;RP0=1, select bank3
  1273     118F  1703               	bsf	3,6	;RP1=1, select bank3
  1274     1190  1408               	bsf	8,0	;volatile
  1275                           
  1276                           ;Progra_IRONMAN.c: 177:     ANSELbits.ANS2 = 1;
  1277     1191  1508               	bsf	8,2	;volatile
  1278                           
  1279                           ;Progra_IRONMAN.c: 178:     ANSELbits.ANS4 = 1;
  1280     1192  1608               	bsf	8,4	;volatile
  1281     1193                     l3484:
  1282                           
  1283                           ;Progra_IRONMAN.c: 179:     ANSELH = 0;
  1284     1193  0189               	clrf	9	;volatile
  1285     1194                     l3486:
  1286                           
  1287                           ;Progra_IRONMAN.c: 182:     TRISB = 0x0f;
  1288     1194  300F               	movlw	15
  1289     1195  1683               	bsf	3,5	;RP0=1, select bank1
  1290     1196  1303               	bcf	3,6	;RP1=0, select bank1
  1291     1197  0086               	movwf	6	;volatile
  1292     1198                     l3488:
  1293                           
  1294                           ;Progra_IRONMAN.c: 183:     TRISC = 0;
  1295     1198  0187               	clrf	7	;volatile
  1296     1199                     l3490:
  1297                           
  1298                           ;Progra_IRONMAN.c: 184:     TRISD = 0;
  1299     1199  0188               	clrf	8	;volatile
  1300     119A                     l3492:
  1301                           
  1302                           ;Progra_IRONMAN.c: 185:     TRISE = 0;
  1303     119A  0189               	clrf	9	;volatile
  1304     119B                     l3494:
  1305                           
  1306                           ;Progra_IRONMAN.c: 188:     PORTA = 0;
  1307     119B  1283               	bcf	3,5	;RP0=0, select bank0
  1308     119C  1303               	bcf	3,6	;RP1=0, select bank0
  1309     119D  0185               	clrf	5	;volatile
  1310     119E                     l3496:
  1311                           
  1312                           ;Progra_IRONMAN.c: 189:     PORTB = 0;
  1313     119E  0186               	clrf	6	;volatile
  1314     119F                     l3498:
  1315                           
  1316                           ;Progra_IRONMAN.c: 190:     PORTC = 0;
  1317     119F  0187               	clrf	7	;volatile
  1318     11A0                     l3500:
  1319                           
  1320                           ;Progra_IRONMAN.c: 191:     PORTD = 0;
  1321     11A0  0188               	clrf	8	;volatile
  1322     11A1                     l3502:
  1323                           
  1324                           ;Progra_IRONMAN.c: 192:     PORTE = 0;
  1325     11A1  0189               	clrf	9	;volatile
  1326     11A2                     l3504:
  1327                           
  1328                           ;Progra_IRONMAN.c: 194:     OPTION_REGbits.nRBPU = 0;
  1329     11A2  1683               	bsf	3,5	;RP0=1, select bank1
  1330     11A3  1303               	bcf	3,6	;RP1=0, select bank1
  1331     11A4  1381               	bcf	1,7	;volatile
  1332     11A5                     l3506:
  1333                           
  1334                           ;Progra_IRONMAN.c: 195:     IOCB = 0b01111111;
  1335     11A5  307F               	movlw	127
  1336     11A6  0096               	movwf	22	;volatile
  1337     11A7                     l3508:
  1338                           
  1339                           ;Progra_IRONMAN.c: 197:     OSCCONbits.IRCF = 0b110 ;
  1340     11A7  080F               	movf	15,w	;volatile
  1341     11A8  398F               	andlw	-113
  1342     11A9  3860               	iorlw	96
  1343     11AA  008F               	movwf	15	;volatile
  1344     11AB                     l3510:
  1345                           
  1346                           ;Progra_IRONMAN.c: 198:     OSCCONbits.SCS = 1;
  1347     11AB  140F               	bsf	15,0	;volatile
  1348     11AC                     l3512:
  1349                           
  1350                           ;Progra_IRONMAN.c: 203:     OPTION_REGbits.T0CS = 0;
  1351     11AC  1281               	bcf	1,5	;volatile
  1352     11AD                     l3514:
  1353                           
  1354                           ;Progra_IRONMAN.c: 204:     OPTION_REGbits.PSA = 0;
  1355     11AD  1181               	bcf	1,3	;volatile
  1356     11AE                     l3516:
  1357                           
  1358                           ;Progra_IRONMAN.c: 205:     OPTION_REGbits.PS2 = 1;
  1359     11AE  1501               	bsf	1,2	;volatile
  1360     11AF                     l3518:
  1361                           
  1362                           ;Progra_IRONMAN.c: 206:     OPTION_REGbits.PS1 = 0;
  1363     11AF  1081               	bcf	1,1	;volatile
  1364     11B0                     l3520:
  1365                           
  1366                           ;Progra_IRONMAN.c: 207:     OPTION_REGbits.PS0 = 1;
  1367     11B0  1401               	bsf	1,0	;volatile
  1368     11B1                     l3522:
  1369                           
  1370                           ;Progra_IRONMAN.c: 208:     TMR0 = 0;
  1371     11B1  1283               	bcf	3,5	;RP0=0, select bank0
  1372     11B2  1303               	bcf	3,6	;RP1=0, select bank0
  1373     11B3  0181               	clrf	1	;volatile
  1374     11B4                     l3524:
  1375                           
  1376                           ;Progra_IRONMAN.c: 211:     INTCONbits.RBIF = 0;
  1377     11B4  100B               	bcf	11,0	;volatile
  1378     11B5                     l3526:
  1379                           
  1380                           ;Progra_IRONMAN.c: 212:     INTCONbits.RBIE = 1;
  1381     11B5  158B               	bsf	11,3	;volatile
  1382     11B6                     l3528:
  1383                           
  1384                           ;Progra_IRONMAN.c: 213:     INTCONbits.T0IF = 0;
  1385     11B6  110B               	bcf	11,2	;volatile
  1386     11B7                     l3530:
  1387                           
  1388                           ;Progra_IRONMAN.c: 214:     INTCONbits.T0IE = 1;
  1389     11B7  168B               	bsf	11,5	;volatile
  1390     11B8                     l3532:
  1391                           
  1392                           ;Progra_IRONMAN.c: 215:     PIR1bits.ADIF = 0;
  1393     11B8  130C               	bcf	12,6	;volatile
  1394     11B9                     l3534:
  1395                           
  1396                           ;Progra_IRONMAN.c: 216:     INTCONbits.PEIE = 1;
  1397     11B9  170B               	bsf	11,6	;volatile
  1398     11BA                     l3536:
  1399                           
  1400                           ;Progra_IRONMAN.c: 217:     PIE1bits.ADIE = 1;
  1401     11BA  1683               	bsf	3,5	;RP0=1, select bank1
  1402     11BB  1303               	bcf	3,6	;RP1=0, select bank1
  1403     11BC  170C               	bsf	12,6	;volatile
  1404     11BD                     l3538:
  1405                           
  1406                           ;Progra_IRONMAN.c: 218:     INTCONbits.GIE = 1;
  1407     11BD  178B               	bsf	11,7	;volatile
  1408     11BE                     l3540:
  1409                           
  1410                           ;Progra_IRONMAN.c: 219:     ADCON0bits.GO = 1;
  1411     11BE  1283               	bcf	3,5	;RP0=0, select bank0
  1412     11BF  1303               	bcf	3,6	;RP1=0, select bank0
  1413     11C0  149F               	bsf	31,1	;volatile
  1414                           
  1415                           ;Progra_IRONMAN.c: 222:     ADCON0bits.CHS = 0b0000;
  1416     11C1  30C3               	movlw	-61
  1417     11C2  059F               	andwf	31,f	;volatile
  1418     11C3                     l3542:
  1419                           
  1420                           ;Progra_IRONMAN.c: 223:     ADCON1bits.VCFG0 = 0;
  1421     11C3  1683               	bsf	3,5	;RP0=1, select bank1
  1422     11C4  1303               	bcf	3,6	;RP1=0, select bank1
  1423     11C5  121F               	bcf	31,4	;volatile
  1424     11C6                     l3544:
  1425                           
  1426                           ;Progra_IRONMAN.c: 224:     ADCON1bits.VCFG1 = 0;
  1427     11C6  129F               	bcf	31,5	;volatile
  1428                           
  1429                           ;Progra_IRONMAN.c: 225:     ADCON0bits.ADCS = 0b10;
  1430     11C7  1283               	bcf	3,5	;RP0=0, select bank0
  1431     11C8  1303               	bcf	3,6	;RP1=0, select bank0
  1432     11C9  081F               	movf	31,w	;volatile
  1433     11CA  393F               	andlw	-193
  1434     11CB  3880               	iorlw	128
  1435     11CC  009F               	movwf	31	;volatile
  1436     11CD                     l3546:
  1437                           
  1438                           ;Progra_IRONMAN.c: 227:     ADCON1bits.ADFM = 0;
  1439     11CD  1683               	bsf	3,5	;RP0=1, select bank1
  1440     11CE  1303               	bcf	3,6	;RP1=0, select bank1
  1441     11CF  139F               	bcf	31,7	;volatile
  1442     11D0                     l3548:
  1443                           
  1444                           ;Progra_IRONMAN.c: 228:     ADCON0bits.ADON = 1;
  1445     11D0  1283               	bcf	3,5	;RP0=0, select bank0
  1446     11D1  1303               	bcf	3,6	;RP1=0, select bank0
  1447     11D2  141F               	bsf	31,0	;volatile
  1448     11D3                     l3550:
  1449                           
  1450                           ;Progra_IRONMAN.c: 229:      _delay((unsigned long)((1)*(4000000/4000.0)));
  1451     11D3  30C7               	movlw	199
  1452     11D4  1683               	bsf	3,5	;RP0=1, select bank3
  1453     11D5  1703               	bsf	3,6	;RP1=1, select bank3
  1454     11D6  00D3               	movwf	??_setup^(0+384)
  1455     11D7                     u5967:
  1456     11D7  29D8               	nop2
  1457     11D8  0BD3               	decfsz	??_setup^(0+384),f
  1458     11D9  29D7               	goto	u5967
  1459     11DA  29DB               	nop2
  1460     11DB                     l3552:
  1461                           
  1462                           ;Progra_IRONMAN.c: 232:     PWM_config(1, 0.020f);
  1463     11DB  303C               	movlw	60
  1464     11DC  1683               	bsf	3,5	;RP0=1, select bank3
  1465     11DD  1703               	bsf	3,6	;RP1=1, select bank3
  1466     11DE  00CA               	movwf	(PWM_config@periodo_ms+3)^(0+384)
  1467     11DF  30A3               	movlw	163
  1468     11E0  00C9               	movwf	(PWM_config@periodo_ms+2)^(0+384)
  1469     11E1  30D7               	movlw	215
  1470     11E2  00C8               	movwf	(PWM_config@periodo_ms+1)^(0+384)
  1471     11E3  300A               	movlw	10
  1472     11E4  00C7               	movwf	PWM_config@periodo_ms^(0+384)
  1473     11E5  3001               	movlw	1
  1474     11E6  160A  118A  2004  160A  118A  	fcall	_PWM_config
  1475     11EB                     l3554:
  1476                           
  1477                           ;Progra_IRONMAN.c: 233:     PWM_duty(1, 0.00035f);
  1478     11EB  3039               	movlw	57
  1479     11EC  1683               	bsf	3,5	;RP0=1, select bank3
  1480     11ED  1703               	bsf	3,6	;RP1=1, select bank3
  1481     11EE  00CA               	movwf	(PWM_duty@duty+3)^(0+384)
  1482     11EF  30B7               	movlw	183
  1483     11F0  00C9               	movwf	(PWM_duty@duty+2)^(0+384)
  1484     11F1  3080               	movlw	128
  1485     11F2  00C8               	movwf	(PWM_duty@duty+1)^(0+384)
  1486     11F3  3034               	movlw	52
  1487     11F4  00C7               	movwf	PWM_duty@duty^(0+384)
  1488     11F5  3001               	movlw	1
  1489     11F6  160A  118A  22D4  160A  118A  	fcall	_PWM_duty
  1490     11FB                     l3556:
  1491                           
  1492                           ;Progra_IRONMAN.c: 234:     PWM_config(2, 0.020f);
  1493     11FB  303C               	movlw	60
  1494     11FC  1683               	bsf	3,5	;RP0=1, select bank3
  1495     11FD  1703               	bsf	3,6	;RP1=1, select bank3
  1496     11FE  00CA               	movwf	(PWM_config@periodo_ms+3)^(0+384)
  1497     11FF  30A3               	movlw	163
  1498     1200  00C9               	movwf	(PWM_config@periodo_ms+2)^(0+384)
  1499     1201  30D7               	movlw	215
  1500     1202  00C8               	movwf	(PWM_config@periodo_ms+1)^(0+384)
  1501     1203  300A               	movlw	10
  1502     1204  00C7               	movwf	PWM_config@periodo_ms^(0+384)
  1503     1205  3002               	movlw	2
  1504     1206  160A  118A  2004  160A  118A  	fcall	_PWM_config
  1505     120B                     l3558:
  1506                           
  1507                           ;Progra_IRONMAN.c: 235:     PWM_duty(2, 0.00035f);
  1508     120B  3039               	movlw	57
  1509     120C  1683               	bsf	3,5	;RP0=1, select bank3
  1510     120D  1703               	bsf	3,6	;RP1=1, select bank3
  1511     120E  00CA               	movwf	(PWM_duty@duty+3)^(0+384)
  1512     120F  30B7               	movlw	183
  1513     1210  00C9               	movwf	(PWM_duty@duty+2)^(0+384)
  1514     1211  3080               	movlw	128
  1515     1212  00C8               	movwf	(PWM_duty@duty+1)^(0+384)
  1516     1213  3034               	movlw	52
  1517     1214  00C7               	movwf	PWM_duty@duty^(0+384)
  1518     1215  3002               	movlw	2
  1519     1216  160A  118A  22D4  160A  118A  	fcall	_PWM_duty
  1520     121B                     l117:
  1521     121B  0008               	return
  1522     121C                     __end_of_setup:
  1523                           
  1524                           	psect	text2
  1525     12D4                     __ptext2:	
  1526 ;; *************** function _PWM_duty *****************
  1527 ;; Defined at:
  1528 ;;		line 34 in file "PWM_SERVO1.c"
  1529 ;; Parameters:    Size  Location     Type
  1530 ;;  canal           1    wreg     unsigned char 
  1531 ;;  duty            4   55[BANK3 ] float 
  1532 ;; Auto vars:     Size  Location     Type
  1533 ;;  canal           1   62[BANK3 ] unsigned char 
  1534 ;;  particion2      2   65[BANK3 ] int 
  1535 ;;  particion1      2   63[BANK3 ] int 
  1536 ;; Return value:  Size  Location     Type
  1537 ;;                  1    wreg      void 
  1538 ;; Registers used:
  1539 ;;		wreg, status,2, status,0, btemp+1, pclath, cstack
  1540 ;; Tracked objects:
  1541 ;;		On entry : 0/0
  1542 ;;		On exit  : 0/0
  1543 ;;		Unchanged: 0/0
  1544 ;; Data sizes:     COMMON   BANK0   BANK1   BANK3   BANK2
  1545 ;;      Params:         0       0       0       4       0
  1546 ;;      Locals:         0       0       0       5       0
  1547 ;;      Temps:          0       0       0       3       0
  1548 ;;      Totals:         0       0       0      12       0
  1549 ;;Total ram usage:       12 bytes
  1550 ;; Hardware stack levels used: 1
  1551 ;; Hardware stack levels required when called: 6
  1552 ;; This function calls:
  1553 ;;		___fldiv
  1554 ;;		___flmul
  1555 ;;		___fltol
  1556 ;; This function is called by:
  1557 ;;		_setup
  1558 ;; This function uses a non-reentrant model
  1559 ;;
  1560                           
  1561     12D4                     _PWM_duty:	
  1562                           ;psect for function _PWM_duty
  1563                           
  1564                           
  1565                           ;incstack = 0
  1566                           ; Regs used in _PWM_duty: [wreg+status,2+status,0+btemp+1+pclath+cstack]
  1567                           ;PWM_duty@canal stored from wreg
  1568     12D4  1683               	bsf	3,5	;RP0=1, select bank3
  1569     12D5  1703               	bsf	3,6	;RP1=1, select bank3
  1570     12D6  00CE               	movwf	PWM_duty@canal^(0+384)
  1571     12D7                     l3424:
  1572                           
  1573                           ;PWM_SERVO1.c: 35:     if (canal == 1){
  1574     12D7  034E               	decf	PWM_duty@canal^(0+384),w
  1575     12D8  1D03               	btfss	3,2
  1576     12D9  2ADB               	goto	u5831
  1577     12DA  2ADC               	goto	u5830
  1578     12DB                     u5831:
  1579     12DB  2B59               	goto	l3434
  1580     12DC                     u5830:
  1581     12DC                     l3426:
  1582                           
  1583                           ;PWM_SERVO1.c: 36:         int particion1 = (int)(4*duty/((1.0f/4000000)*16));
  1584     12DC  084A               	movf	(PWM_duty@duty+3)^(0+384),w
  1585     12DD  0097               	movwf	(___flmul@a+3)^(0+384)
  1586     12DE  0849               	movf	(PWM_duty@duty+2)^(0+384),w
  1587     12DF  0096               	movwf	(___flmul@a+2)^(0+384)
  1588     12E0  0848               	movf	(PWM_duty@duty+1)^(0+384),w
  1589     12E1  0095               	movwf	(___flmul@a+1)^(0+384)
  1590     12E2  0847               	movf	PWM_duty@duty^(0+384),w
  1591     12E3  0094               	movwf	___flmul@a^(0+384)
  1592     12E4  3040               	movlw	64
  1593     12E5  0093               	movwf	(___flmul@b+3)^(0+384)
  1594     12E6  3080               	movlw	128
  1595     12E7  0092               	movwf	(___flmul@b+2)^(0+384)
  1596     12E8  3000               	movlw	0
  1597     12E9  0091               	movwf	(___flmul@b+1)^(0+384)
  1598     12EA  3000               	movlw	0
  1599     12EB  0090               	movwf	___flmul@b^(0+384)
  1600     12EC  120A  118A  2033  160A  118A  	fcall	___flmul
  1601     12F1  1683               	bsf	3,5	;RP0=1, select bank3
  1602     12F2  1703               	bsf	3,6	;RP1=1, select bank3
  1603     12F3  0813               	movf	(?___flmul+3)^(0+384),w
  1604     12F4  00AC               	movwf	(___fldiv@b+3)^(0+384)
  1605     12F5  0812               	movf	(?___flmul+2)^(0+384),w
  1606     12F6  00AB               	movwf	(___fldiv@b+2)^(0+384)
  1607     12F7  0811               	movf	(?___flmul+1)^(0+384),w
  1608     12F8  00AA               	movwf	(___fldiv@b+1)^(0+384)
  1609     12F9  0810               	movf	?___flmul^(0+384),w
  1610     12FA  00A9               	movwf	___fldiv@b^(0+384)
  1611     12FB  3036               	movlw	54
  1612     12FC  00A8               	movwf	(___fldiv@a+3)^(0+384)
  1613     12FD  3086               	movlw	134
  1614     12FE  00A7               	movwf	(___fldiv@a+2)^(0+384)
  1615     12FF  3037               	movlw	55
  1616     1300  00A6               	movwf	(___fldiv@a+1)^(0+384)
  1617     1301  30BD               	movlw	189
  1618     1302  00A5               	movwf	___fldiv@a^(0+384)
  1619     1303  120A  158A  20E4  160A  118A  	fcall	___fldiv
  1620     1308  1683               	bsf	3,5	;RP0=1, select bank3
  1621     1309  1703               	bsf	3,6	;RP1=1, select bank3
  1622     130A  0828               	movf	(?___fldiv+3)^(0+384),w
  1623     130B  00C2               	movwf	(___fltol@f1+3)^(0+384)
  1624     130C  0827               	movf	(?___fldiv+2)^(0+384),w
  1625     130D  00C1               	movwf	(___fltol@f1+2)^(0+384)
  1626     130E  0826               	movf	(?___fldiv+1)^(0+384),w
  1627     130F  00C0               	movwf	(___fltol@f1+1)^(0+384)
  1628     1310  0825               	movf	?___fldiv^(0+384),w
  1629     1311  00BF               	movwf	___fltol@f1^(0+384)
  1630     1312  160A  118A  2100  160A  118A  	fcall	___fltol
  1631     1317  1683               	bsf	3,5	;RP0=1, select bank3
  1632     1318  1703               	bsf	3,6	;RP1=1, select bank3
  1633     1319  0840               	movf	(?___fltol+1)^(0+384),w
  1634     131A  00D0               	movwf	(PWM_duty@particion1+1)^(0+384)
  1635     131B  083F               	movf	?___fltol^(0+384),w
  1636     131C  00CF               	movwf	PWM_duty@particion1^(0+384)
  1637     131D                     l3428:
  1638                           
  1639                           ;PWM_SERVO1.c: 37:         CCPR1L = (char)(-((particion1 >> 2)-94));
  1640     131D  0850               	movf	(PWM_duty@particion1+1)^(0+384),w
  1641     131E  00CC               	movwf	(??_PWM_duty^(0+384)+1)
  1642     131F  084F               	movf	PWM_duty@particion1^(0+384),w
  1643     1320  00CB               	movwf	??_PWM_duty^(0+384)
  1644     1321  0D4C               	rlf	(??_PWM_duty^(0+384)+1),w
  1645     1322  0CCC               	rrf	(??_PWM_duty^(0+384)+1),f
  1646     1323  0CCB               	rrf	??_PWM_duty^(0+384),f
  1647     1324  0D4C               	rlf	(??_PWM_duty^(0+384)+1),w
  1648     1325  0CCC               	rrf	(??_PWM_duty^(0+384)+1),f
  1649     1326  0CCB               	rrf	??_PWM_duty^(0+384),f
  1650     1327  084B               	movf	??_PWM_duty^(0+384),w
  1651     1328  3EA2               	addlw	162
  1652     1329  3AFF               	xorlw	255
  1653     132A  3E01               	addlw	1
  1654     132B  1283               	bcf	3,5	;RP0=0, select bank0
  1655     132C  1303               	bcf	3,6	;RP1=0, select bank0
  1656     132D  0095               	movwf	21	;volatile
  1657     132E                     l3430:
  1658                           
  1659                           ;PWM_SERVO1.c: 38:         CCP1CONbits.DC1B0 = (particion1&(0b1));
  1660     132E  1683               	bsf	3,5	;RP0=1, select bank3
  1661     132F  1703               	bsf	3,6	;RP1=1, select bank3
  1662     1330  084F               	movf	PWM_duty@particion1^(0+384),w
  1663     1331  3901               	andlw	1
  1664     1332  00CB               	movwf	??_PWM_duty^(0+384)
  1665     1333  0ECB               	swapf	??_PWM_duty^(0+384),f
  1666     1334  1283               	bcf	3,5	;RP0=0, select bank0
  1667     1335  1303               	bcf	3,6	;RP1=0, select bank0
  1668     1336  0817               	movf	23,w	;volatile
  1669     1337  1683               	bsf	3,5	;RP0=1, select bank3
  1670     1338  1703               	bsf	3,6	;RP1=1, select bank3
  1671     1339  064B               	xorwf	??_PWM_duty^(0+384),w
  1672     133A  39EF               	andlw	-17
  1673     133B  064B               	xorwf	??_PWM_duty^(0+384),w
  1674     133C  1283               	bcf	3,5	;RP0=0, select bank0
  1675     133D  1303               	bcf	3,6	;RP1=0, select bank0
  1676     133E  0097               	movwf	23	;volatile
  1677     133F                     l3432:
  1678                           
  1679                           ;PWM_SERVO1.c: 39:         CCP1CONbits.DC1B1 = ((particion1>>1) &(0b1));
  1680     133F  1683               	bsf	3,5	;RP0=1, select bank3
  1681     1340  1703               	bsf	3,6	;RP1=1, select bank3
  1682     1341  0850               	movf	(PWM_duty@particion1+1)^(0+384),w
  1683     1342  00CC               	movwf	(??_PWM_duty^(0+384)+1)
  1684     1343  084F               	movf	PWM_duty@particion1^(0+384),w
  1685     1344  00CB               	movwf	??_PWM_duty^(0+384)
  1686     1345  0D4C               	rlf	(??_PWM_duty^(0+384)+1),w
  1687     1346  0CCC               	rrf	(??_PWM_duty^(0+384)+1),f
  1688     1347  0CCB               	rrf	??_PWM_duty^(0+384),f
  1689     1348  084B               	movf	??_PWM_duty^(0+384),w
  1690     1349  3901               	andlw	1
  1691     134A  00CD               	movwf	(??_PWM_duty+2)^(0+384)
  1692     134B  0ECD               	swapf	(??_PWM_duty+2)^(0+384),f
  1693     134C  0DCD               	rlf	(??_PWM_duty+2)^(0+384),f
  1694     134D  1283               	bcf	3,5	;RP0=0, select bank0
  1695     134E  1303               	bcf	3,6	;RP1=0, select bank0
  1696     134F  0817               	movf	23,w	;volatile
  1697     1350  1683               	bsf	3,5	;RP0=1, select bank3
  1698     1351  1703               	bsf	3,6	;RP1=1, select bank3
  1699     1352  064D               	xorwf	(??_PWM_duty+2)^(0+384),w
  1700     1353  39DF               	andlw	-33
  1701     1354  064D               	xorwf	(??_PWM_duty+2)^(0+384),w
  1702     1355  1283               	bcf	3,5	;RP0=0, select bank0
  1703     1356  1303               	bcf	3,6	;RP1=0, select bank0
  1704     1357  0097               	movwf	23	;volatile
  1705                           
  1706                           ;PWM_SERVO1.c: 40:     }
  1707     1358  2BD9               	goto	l150
  1708     1359                     l3434:
  1709     1359  3002               	movlw	2
  1710     135A  064E               	xorwf	PWM_duty@canal^(0+384),w
  1711     135B  1D03               	btfss	3,2
  1712     135C  2B5E               	goto	u5841
  1713     135D  2B5F               	goto	u5840
  1714     135E                     u5841:
  1715     135E  2BD9               	goto	l150
  1716     135F                     u5840:
  1717     135F                     l3436:
  1718                           
  1719                           ;PWM_SERVO1.c: 42:         int particion2 = (int)(4*duty/((1.0f/4000000)*16));
  1720     135F  084A               	movf	(PWM_duty@duty+3)^(0+384),w
  1721     1360  0097               	movwf	(___flmul@a+3)^(0+384)
  1722     1361  0849               	movf	(PWM_duty@duty+2)^(0+384),w
  1723     1362  0096               	movwf	(___flmul@a+2)^(0+384)
  1724     1363  0848               	movf	(PWM_duty@duty+1)^(0+384),w
  1725     1364  0095               	movwf	(___flmul@a+1)^(0+384)
  1726     1365  0847               	movf	PWM_duty@duty^(0+384),w
  1727     1366  0094               	movwf	___flmul@a^(0+384)
  1728     1367  3040               	movlw	64
  1729     1368  0093               	movwf	(___flmul@b+3)^(0+384)
  1730     1369  3080               	movlw	128
  1731     136A  0092               	movwf	(___flmul@b+2)^(0+384)
  1732     136B  3000               	movlw	0
  1733     136C  0091               	movwf	(___flmul@b+1)^(0+384)
  1734     136D  3000               	movlw	0
  1735     136E  0090               	movwf	___flmul@b^(0+384)
  1736     136F  120A  118A  2033  160A  118A  	fcall	___flmul
  1737     1374  1683               	bsf	3,5	;RP0=1, select bank3
  1738     1375  1703               	bsf	3,6	;RP1=1, select bank3
  1739     1376  0813               	movf	(?___flmul+3)^(0+384),w
  1740     1377  00AC               	movwf	(___fldiv@b+3)^(0+384)
  1741     1378  0812               	movf	(?___flmul+2)^(0+384),w
  1742     1379  00AB               	movwf	(___fldiv@b+2)^(0+384)
  1743     137A  0811               	movf	(?___flmul+1)^(0+384),w
  1744     137B  00AA               	movwf	(___fldiv@b+1)^(0+384)
  1745     137C  0810               	movf	?___flmul^(0+384),w
  1746     137D  00A9               	movwf	___fldiv@b^(0+384)
  1747     137E  3036               	movlw	54
  1748     137F  00A8               	movwf	(___fldiv@a+3)^(0+384)
  1749     1380  3086               	movlw	134
  1750     1381  00A7               	movwf	(___fldiv@a+2)^(0+384)
  1751     1382  3037               	movlw	55
  1752     1383  00A6               	movwf	(___fldiv@a+1)^(0+384)
  1753     1384  30BD               	movlw	189
  1754     1385  00A5               	movwf	___fldiv@a^(0+384)
  1755     1386  120A  158A  20E4  160A  118A  	fcall	___fldiv
  1756     138B  1683               	bsf	3,5	;RP0=1, select bank3
  1757     138C  1703               	bsf	3,6	;RP1=1, select bank3
  1758     138D  0828               	movf	(?___fldiv+3)^(0+384),w
  1759     138E  00C2               	movwf	(___fltol@f1+3)^(0+384)
  1760     138F  0827               	movf	(?___fldiv+2)^(0+384),w
  1761     1390  00C1               	movwf	(___fltol@f1+2)^(0+384)
  1762     1391  0826               	movf	(?___fldiv+1)^(0+384),w
  1763     1392  00C0               	movwf	(___fltol@f1+1)^(0+384)
  1764     1393  0825               	movf	?___fldiv^(0+384),w
  1765     1394  00BF               	movwf	___fltol@f1^(0+384)
  1766     1395  160A  118A  2100  160A  118A  	fcall	___fltol
  1767     139A  1683               	bsf	3,5	;RP0=1, select bank3
  1768     139B  1703               	bsf	3,6	;RP1=1, select bank3
  1769     139C  0840               	movf	(?___fltol+1)^(0+384),w
  1770     139D  00D2               	movwf	(PWM_duty@particion2+1)^(0+384)
  1771     139E  083F               	movf	?___fltol^(0+384),w
  1772     139F  00D1               	movwf	PWM_duty@particion2^(0+384)
  1773     13A0                     l3438:
  1774                           
  1775                           ;PWM_SERVO1.c: 43:         CCPR2L = (char)(((particion2 >> 2)+94));
  1776     13A0  0852               	movf	(PWM_duty@particion2+1)^(0+384),w
  1777     13A1  00CC               	movwf	(??_PWM_duty^(0+384)+1)
  1778     13A2  0851               	movf	PWM_duty@particion2^(0+384),w
  1779     13A3  00CB               	movwf	??_PWM_duty^(0+384)
  1780     13A4  0D4C               	rlf	(??_PWM_duty^(0+384)+1),w
  1781     13A5  0CCC               	rrf	(??_PWM_duty^(0+384)+1),f
  1782     13A6  0CCB               	rrf	??_PWM_duty^(0+384),f
  1783     13A7  0D4C               	rlf	(??_PWM_duty^(0+384)+1),w
  1784     13A8  0CCC               	rrf	(??_PWM_duty^(0+384)+1),f
  1785     13A9  0CCB               	rrf	??_PWM_duty^(0+384),f
  1786     13AA  084B               	movf	??_PWM_duty^(0+384),w
  1787     13AB  3E5E               	addlw	94
  1788     13AC  1283               	bcf	3,5	;RP0=0, select bank0
  1789     13AD  1303               	bcf	3,6	;RP1=0, select bank0
  1790     13AE  009B               	movwf	27	;volatile
  1791     13AF                     l3440:
  1792                           
  1793                           ;PWM_SERVO1.c: 44:         CCP2CONbits.DC2B0 = (particion2&(0b1));
  1794     13AF  1683               	bsf	3,5	;RP0=1, select bank3
  1795     13B0  1703               	bsf	3,6	;RP1=1, select bank3
  1796     13B1  0851               	movf	PWM_duty@particion2^(0+384),w
  1797     13B2  3901               	andlw	1
  1798     13B3  00CB               	movwf	??_PWM_duty^(0+384)
  1799     13B4  0ECB               	swapf	??_PWM_duty^(0+384),f
  1800     13B5  1283               	bcf	3,5	;RP0=0, select bank0
  1801     13B6  1303               	bcf	3,6	;RP1=0, select bank0
  1802     13B7  081D               	movf	29,w	;volatile
  1803     13B8  1683               	bsf	3,5	;RP0=1, select bank3
  1804     13B9  1703               	bsf	3,6	;RP1=1, select bank3
  1805     13BA  064B               	xorwf	??_PWM_duty^(0+384),w
  1806     13BB  39EF               	andlw	-17
  1807     13BC  064B               	xorwf	??_PWM_duty^(0+384),w
  1808     13BD  1283               	bcf	3,5	;RP0=0, select bank0
  1809     13BE  1303               	bcf	3,6	;RP1=0, select bank0
  1810     13BF  009D               	movwf	29	;volatile
  1811     13C0                     l3442:
  1812                           
  1813                           ;PWM_SERVO1.c: 45:         CCP2CONbits.DC2B1 = ((particion2>>1) &(0b1));
  1814     13C0  1683               	bsf	3,5	;RP0=1, select bank3
  1815     13C1  1703               	bsf	3,6	;RP1=1, select bank3
  1816     13C2  0852               	movf	(PWM_duty@particion2+1)^(0+384),w
  1817     13C3  00CC               	movwf	(??_PWM_duty^(0+384)+1)
  1818     13C4  0851               	movf	PWM_duty@particion2^(0+384),w
  1819     13C5  00CB               	movwf	??_PWM_duty^(0+384)
  1820     13C6  0D4C               	rlf	(??_PWM_duty^(0+384)+1),w
  1821     13C7  0CCC               	rrf	(??_PWM_duty^(0+384)+1),f
  1822     13C8  0CCB               	rrf	??_PWM_duty^(0+384),f
  1823     13C9  084B               	movf	??_PWM_duty^(0+384),w
  1824     13CA  3901               	andlw	1
  1825     13CB  00CD               	movwf	(??_PWM_duty+2)^(0+384)
  1826     13CC  0ECD               	swapf	(??_PWM_duty+2)^(0+384),f
  1827     13CD  0DCD               	rlf	(??_PWM_duty+2)^(0+384),f
  1828     13CE  1283               	bcf	3,5	;RP0=0, select bank0
  1829     13CF  1303               	bcf	3,6	;RP1=0, select bank0
  1830     13D0  081D               	movf	29,w	;volatile
  1831     13D1  1683               	bsf	3,5	;RP0=1, select bank3
  1832     13D2  1703               	bsf	3,6	;RP1=1, select bank3
  1833     13D3  064D               	xorwf	(??_PWM_duty+2)^(0+384),w
  1834     13D4  39DF               	andlw	-33
  1835     13D5  064D               	xorwf	(??_PWM_duty+2)^(0+384),w
  1836     13D6  1283               	bcf	3,5	;RP0=0, select bank0
  1837     13D7  1303               	bcf	3,6	;RP1=0, select bank0
  1838     13D8  009D               	movwf	29	;volatile
  1839     13D9                     l150:
  1840     13D9  0008               	return
  1841     13DA                     __end_of_PWM_duty:
  1842                           
  1843                           	psect	text3
  1844     0033                     __ptext3:	
  1845 ;; *************** function ___flmul *****************
  1846 ;; Defined at:
  1847 ;;		line 8 in file "C:\Program Files\Microchip\xc8\v2.40\pic\sources\c90\common\sprcmul.c"
  1848 ;; Parameters:    Size  Location     Type
  1849 ;;  b               4    0[BANK3 ] void 
  1850 ;;  a               4    4[BANK3 ] void 
  1851 ;; Auto vars:     Size  Location     Type
  1852 ;;  prod            4   15[BANK3 ] struct .
  1853 ;;  grs             4   10[BANK3 ] unsigned long 
  1854 ;;  temp            2   19[BANK3 ] struct .
  1855 ;;  bexp            1   14[BANK3 ] unsigned char 
  1856 ;;  aexp            1    9[BANK3 ] unsigned char 
  1857 ;;  sign            1    8[BANK3 ] unsigned char 
  1858 ;; Return value:  Size  Location     Type
  1859 ;;                  4    0[BANK3 ] unsigned char 
  1860 ;; Registers used:
  1861 ;;		wreg, status,2, status,0, btemp+1, pclath, cstack
  1862 ;; Tracked objects:
  1863 ;;		On entry : 0/0
  1864 ;;		On exit  : 0/0
  1865 ;;		Unchanged: 0/0
  1866 ;; Data sizes:     COMMON   BANK0   BANK1   BANK3   BANK2
  1867 ;;      Params:         0       0       0       8       0
  1868 ;;      Locals:         0       0       0      13       0
  1869 ;;      Temps:          0       0       5       0       0
  1870 ;;      Totals:         0       0       5      21       0
  1871 ;;Total ram usage:       26 bytes
  1872 ;; Hardware stack levels used: 1
  1873 ;; Hardware stack levels required when called: 5
  1874 ;; This function calls:
  1875 ;;		__Umul8_16
  1876 ;; This function is called by:
  1877 ;;		_main
  1878 ;;		_PWM_duty
  1879 ;; This function uses a non-reentrant model
  1880 ;;
  1881                           
  1882     0033                     ___flmul:	
  1883                           ;psect for function ___flmul
  1884                           
  1885     0033                     l3284:	
  1886                           ;incstack = 0
  1887                           ; Regs used in ___flmul: [wreg+status,2+status,0+btemp+1+pclath+cstack]
  1888                           
  1889     0033  1683               	bsf	3,5	;RP0=1, select bank3
  1890     0034  1703               	bsf	3,6	;RP1=1, select bank3
  1891     0035  0813               	movf	(___flmul@b^(0+384)+3),w
  1892     0036  3980               	andlw	128
  1893     0037  0098               	movwf	___flmul@sign^(0+384)
  1894     0038                     l3286:
  1895     0038  0813               	movf	(___flmul@b^(0+384)+3),w
  1896     0039  1683               	bsf	3,5	;RP0=1, select bank1
  1897     003A  1303               	bcf	3,6	;RP1=0, select bank1
  1898     003B  00C7               	movwf	??___flmul^(0+128)
  1899     003C  0747               	addwf	??___flmul^(0+128),w
  1900     003D  1683               	bsf	3,5	;RP0=1, select bank3
  1901     003E  1703               	bsf	3,6	;RP1=1, select bank3
  1902     003F  009E               	movwf	___flmul@bexp^(0+384)
  1903     0040                     l3288:
  1904     0040  1F92               	btfss	(___flmul@b^(0+384)+2),7
  1905     0041  2843               	goto	u5461
  1906     0042  2844               	goto	u5460
  1907     0043                     u5461:
  1908     0043  2845               	goto	l3292
  1909     0044                     u5460:
  1910     0044                     l3290:
  1911     0044  141E               	bsf	___flmul@bexp^(0+384),0
  1912     0045                     l3292:
  1913     0045  081E               	movf	___flmul@bexp^(0+384),w
  1914     0046  1903               	btfsc	3,2
  1915     0047  2849               	goto	u5471
  1916     0048  284A               	goto	u5470
  1917     0049                     u5471:
  1918     0049  2859               	goto	l3300
  1919     004A                     u5470:
  1920     004A                     l3294:
  1921     004A  0A1E               	incf	___flmul@bexp^(0+384),w
  1922     004B  1D03               	btfss	3,2
  1923     004C  284E               	goto	u5481
  1924     004D  284F               	goto	u5480
  1925     004E                     u5481:
  1926     004E  2857               	goto	l3298
  1927     004F                     u5480:
  1928     004F                     l3296:
  1929     004F  3000               	movlw	0
  1930     0050  0093               	movwf	(___flmul@b+3)^(0+384)
  1931     0051  3000               	movlw	0
  1932     0052  0092               	movwf	(___flmul@b+2)^(0+384)
  1933     0053  3000               	movlw	0
  1934     0054  0091               	movwf	(___flmul@b+1)^(0+384)
  1935     0055  3000               	movlw	0
  1936     0056  0090               	movwf	___flmul@b^(0+384)
  1937     0057                     l3298:
  1938     0057  1792               	bsf	(___flmul@b^(0+384)+2),7
  1939     0058  2861               	goto	l3302
  1940     0059                     l3300:
  1941     0059  3000               	movlw	0
  1942     005A  0093               	movwf	(___flmul@b+3)^(0+384)
  1943     005B  3000               	movlw	0
  1944     005C  0092               	movwf	(___flmul@b+2)^(0+384)
  1945     005D  3000               	movlw	0
  1946     005E  0091               	movwf	(___flmul@b+1)^(0+384)
  1947     005F  3000               	movlw	0
  1948     0060  0090               	movwf	___flmul@b^(0+384)
  1949     0061                     l3302:
  1950     0061  0817               	movf	(___flmul@a^(0+384)+3),w
  1951     0062  3980               	andlw	128
  1952     0063  1683               	bsf	3,5	;RP0=1, select bank1
  1953     0064  1303               	bcf	3,6	;RP1=0, select bank1
  1954     0065  00C7               	movwf	??___flmul^(0+128)
  1955     0066  0847               	movf	??___flmul^(0+128),w
  1956     0067  1683               	bsf	3,5	;RP0=1, select bank3
  1957     0068  1703               	bsf	3,6	;RP1=1, select bank3
  1958     0069  0698               	xorwf	___flmul@sign^(0+384),f
  1959     006A                     l3304:
  1960     006A  0817               	movf	(___flmul@a^(0+384)+3),w
  1961     006B  1683               	bsf	3,5	;RP0=1, select bank1
  1962     006C  1303               	bcf	3,6	;RP1=0, select bank1
  1963     006D  00C7               	movwf	??___flmul^(0+128)
  1964     006E  0747               	addwf	??___flmul^(0+128),w
  1965     006F  1683               	bsf	3,5	;RP0=1, select bank3
  1966     0070  1703               	bsf	3,6	;RP1=1, select bank3
  1967     0071  0099               	movwf	___flmul@aexp^(0+384)
  1968     0072                     l3306:
  1969     0072  1F96               	btfss	(___flmul@a^(0+384)+2),7
  1970     0073  2875               	goto	u5491
  1971     0074  2876               	goto	u5490
  1972     0075                     u5491:
  1973     0075  2877               	goto	l3310
  1974     0076                     u5490:
  1975     0076                     l3308:
  1976     0076  1419               	bsf	___flmul@aexp^(0+384),0
  1977     0077                     l3310:
  1978     0077  0819               	movf	___flmul@aexp^(0+384),w
  1979     0078  1903               	btfsc	3,2
  1980     0079  287B               	goto	u5501
  1981     007A  287C               	goto	u5500
  1982     007B                     u5501:
  1983     007B  288B               	goto	l3318
  1984     007C                     u5500:
  1985     007C                     l3312:
  1986     007C  0A19               	incf	___flmul@aexp^(0+384),w
  1987     007D  1D03               	btfss	3,2
  1988     007E  2880               	goto	u5511
  1989     007F  2881               	goto	u5510
  1990     0080                     u5511:
  1991     0080  2889               	goto	l3316
  1992     0081                     u5510:
  1993     0081                     l3314:
  1994     0081  3000               	movlw	0
  1995     0082  0097               	movwf	(___flmul@a+3)^(0+384)
  1996     0083  3000               	movlw	0
  1997     0084  0096               	movwf	(___flmul@a+2)^(0+384)
  1998     0085  3000               	movlw	0
  1999     0086  0095               	movwf	(___flmul@a+1)^(0+384)
  2000     0087  3000               	movlw	0
  2001     0088  0094               	movwf	___flmul@a^(0+384)
  2002     0089                     l3316:
  2003     0089  1796               	bsf	(___flmul@a^(0+384)+2),7
  2004     008A  2893               	goto	l3320
  2005     008B                     l3318:
  2006     008B  3000               	movlw	0
  2007     008C  0097               	movwf	(___flmul@a+3)^(0+384)
  2008     008D  3000               	movlw	0
  2009     008E  0096               	movwf	(___flmul@a+2)^(0+384)
  2010     008F  3000               	movlw	0
  2011     0090  0095               	movwf	(___flmul@a+1)^(0+384)
  2012     0091  3000               	movlw	0
  2013     0092  0094               	movwf	___flmul@a^(0+384)
  2014     0093                     l3320:
  2015     0093  0819               	movf	___flmul@aexp^(0+384),w
  2016     0094  1903               	btfsc	3,2
  2017     0095  2897               	goto	u5521
  2018     0096  2898               	goto	u5520
  2019     0097                     u5521:
  2020     0097  289D               	goto	l3324
  2021     0098                     u5520:
  2022     0098                     l3322:
  2023     0098  081E               	movf	___flmul@bexp^(0+384),w
  2024     0099  1D03               	btfss	3,2
  2025     009A  289C               	goto	u5531
  2026     009B  289D               	goto	u5530
  2027     009C                     u5531:
  2028     009C  28A6               	goto	l3328
  2029     009D                     u5530:
  2030     009D                     l3324:
  2031     009D  3000               	movlw	0
  2032     009E  0093               	movwf	(?___flmul+3)^(0+384)
  2033     009F  3000               	movlw	0
  2034     00A0  0092               	movwf	(?___flmul+2)^(0+384)
  2035     00A1  3000               	movlw	0
  2036     00A2  0091               	movwf	(?___flmul+1)^(0+384)
  2037     00A3  3000               	movlw	0
  2038     00A4  0090               	movwf	?___flmul^(0+384)
  2039     00A5  2D63               	goto	l625
  2040     00A6                     l3328:
  2041     00A6  0810               	movf	___flmul@b^(0+384),w
  2042     00A7  1683               	bsf	3,5	;RP0=1, select bank1
  2043     00A8  1303               	bcf	3,6	;RP1=0, select bank1
  2044     00A9  00B9               	movwf	__Umul8_16@multiplicand^(0+128)
  2045     00AA  1683               	bsf	3,5	;RP0=1, select bank3
  2046     00AB  1703               	bsf	3,6	;RP1=1, select bank3
  2047     00AC  0816               	movf	(___flmul@a^(0+384)+2),w
  2048     00AD  120A  118A  27BC  120A  118A  	fcall	__Umul8_16
  2049     00B2  1683               	bsf	3,5	;RP0=1, select bank1
  2050     00B3  1303               	bcf	3,6	;RP1=0, select bank1
  2051     00B4  083A               	movf	(?__Umul8_16+1)^(0+128),w
  2052     00B5  1683               	bsf	3,5	;RP0=1, select bank3
  2053     00B6  1703               	bsf	3,6	;RP1=1, select bank3
  2054     00B7  00A4               	movwf	(___flmul@temp+1)^(0+384)
  2055     00B8  1683               	bsf	3,5	;RP0=1, select bank1
  2056     00B9  1303               	bcf	3,6	;RP1=0, select bank1
  2057     00BA  0839               	movf	?__Umul8_16^(0+128),w
  2058     00BB  1683               	bsf	3,5	;RP0=1, select bank3
  2059     00BC  1703               	bsf	3,6	;RP1=1, select bank3
  2060     00BD  00A3               	movwf	___flmul@temp^(0+384)
  2061     00BE                     l3330:
  2062     00BE  0823               	movf	___flmul@temp^(0+384),w
  2063     00BF  1683               	bsf	3,5	;RP0=1, select bank1
  2064     00C0  1303               	bcf	3,6	;RP1=0, select bank1
  2065     00C1  00C7               	movwf	??___flmul^(0+128)
  2066     00C2  01C8               	clrf	(??___flmul^(0+128)+1)
  2067     00C3  01C9               	clrf	(??___flmul^(0+128)+2)
  2068     00C4  01CA               	clrf	(??___flmul^(0+128)+3)
  2069     00C5  084A               	movf	(??___flmul+3)^(0+128),w
  2070     00C6  1683               	bsf	3,5	;RP0=1, select bank3
  2071     00C7  1703               	bsf	3,6	;RP1=1, select bank3
  2072     00C8  009D               	movwf	(___flmul@grs+3)^(0+384)
  2073     00C9  1683               	bsf	3,5	;RP0=1, select bank1
  2074     00CA  1303               	bcf	3,6	;RP1=0, select bank1
  2075     00CB  0849               	movf	(??___flmul+2)^(0+128),w
  2076     00CC  1683               	bsf	3,5	;RP0=1, select bank3
  2077     00CD  1703               	bsf	3,6	;RP1=1, select bank3
  2078     00CE  009C               	movwf	(___flmul@grs+2)^(0+384)
  2079     00CF  1683               	bsf	3,5	;RP0=1, select bank1
  2080     00D0  1303               	bcf	3,6	;RP1=0, select bank1
  2081     00D1  0848               	movf	(??___flmul+1)^(0+128),w
  2082     00D2  1683               	bsf	3,5	;RP0=1, select bank3
  2083     00D3  1703               	bsf	3,6	;RP1=1, select bank3
  2084     00D4  009B               	movwf	(___flmul@grs+1)^(0+384)
  2085     00D5  1683               	bsf	3,5	;RP0=1, select bank1
  2086     00D6  1303               	bcf	3,6	;RP1=0, select bank1
  2087     00D7  0847               	movf	??___flmul^(0+128),w
  2088     00D8  1683               	bsf	3,5	;RP0=1, select bank3
  2089     00D9  1703               	bsf	3,6	;RP1=1, select bank3
  2090     00DA  009A               	movwf	___flmul@grs^(0+384)
  2091     00DB                     l3332:
  2092     00DB  0824               	movf	(___flmul@temp^(0+384)+1),w
  2093     00DC  1683               	bsf	3,5	;RP0=1, select bank1
  2094     00DD  1303               	bcf	3,6	;RP1=0, select bank1
  2095     00DE  00C7               	movwf	??___flmul^(0+128)
  2096     00DF  01C8               	clrf	(??___flmul^(0+128)+1)
  2097     00E0  01C9               	clrf	(??___flmul^(0+128)+2)
  2098     00E1  01CA               	clrf	(??___flmul^(0+128)+3)
  2099     00E2  084A               	movf	(??___flmul+3)^(0+128),w
  2100     00E3  1683               	bsf	3,5	;RP0=1, select bank3
  2101     00E4  1703               	bsf	3,6	;RP1=1, select bank3
  2102     00E5  00A2               	movwf	(___flmul@prod+3)^(0+384)
  2103     00E6  1683               	bsf	3,5	;RP0=1, select bank1
  2104     00E7  1303               	bcf	3,6	;RP1=0, select bank1
  2105     00E8  0849               	movf	(??___flmul+2)^(0+128),w
  2106     00E9  1683               	bsf	3,5	;RP0=1, select bank3
  2107     00EA  1703               	bsf	3,6	;RP1=1, select bank3
  2108     00EB  00A1               	movwf	(___flmul@prod+2)^(0+384)
  2109     00EC  1683               	bsf	3,5	;RP0=1, select bank1
  2110     00ED  1303               	bcf	3,6	;RP1=0, select bank1
  2111     00EE  0848               	movf	(??___flmul+1)^(0+128),w
  2112     00EF  1683               	bsf	3,5	;RP0=1, select bank3
  2113     00F0  1703               	bsf	3,6	;RP1=1, select bank3
  2114     00F1  00A0               	movwf	(___flmul@prod+1)^(0+384)
  2115     00F2  1683               	bsf	3,5	;RP0=1, select bank1
  2116     00F3  1303               	bcf	3,6	;RP1=0, select bank1
  2117     00F4  0847               	movf	??___flmul^(0+128),w
  2118     00F5  1683               	bsf	3,5	;RP0=1, select bank3
  2119     00F6  1703               	bsf	3,6	;RP1=1, select bank3
  2120     00F7  009F               	movwf	___flmul@prod^(0+384)
  2121     00F8  0811               	movf	(___flmul@b^(0+384)+1),w
  2122     00F9  1683               	bsf	3,5	;RP0=1, select bank1
  2123     00FA  1303               	bcf	3,6	;RP1=0, select bank1
  2124     00FB  00B9               	movwf	__Umul8_16@multiplicand^(0+128)
  2125     00FC  1683               	bsf	3,5	;RP0=1, select bank3
  2126     00FD  1703               	bsf	3,6	;RP1=1, select bank3
  2127     00FE  0815               	movf	(___flmul@a^(0+384)+1),w
  2128     00FF  120A  118A  27BC  120A  118A  	fcall	__Umul8_16
  2129     0104  1683               	bsf	3,5	;RP0=1, select bank1
  2130     0105  1303               	bcf	3,6	;RP1=0, select bank1
  2131     0106  083A               	movf	(?__Umul8_16+1)^(0+128),w
  2132     0107  1683               	bsf	3,5	;RP0=1, select bank3
  2133     0108  1703               	bsf	3,6	;RP1=1, select bank3
  2134     0109  00A4               	movwf	(___flmul@temp+1)^(0+384)
  2135     010A  1683               	bsf	3,5	;RP0=1, select bank1
  2136     010B  1303               	bcf	3,6	;RP1=0, select bank1
  2137     010C  0839               	movf	?__Umul8_16^(0+128),w
  2138     010D  1683               	bsf	3,5	;RP0=1, select bank3
  2139     010E  1703               	bsf	3,6	;RP1=1, select bank3
  2140     010F  00A3               	movwf	___flmul@temp^(0+384)
  2141     0110                     l3334:
  2142     0110  0823               	movf	___flmul@temp^(0+384),w
  2143     0111  1683               	bsf	3,5	;RP0=1, select bank1
  2144     0112  1303               	bcf	3,6	;RP1=0, select bank1
  2145     0113  00C7               	movwf	??___flmul^(0+128)
  2146     0114  01C8               	clrf	(??___flmul^(0+128)+1)
  2147     0115  01C9               	clrf	(??___flmul^(0+128)+2)
  2148     0116  01CA               	clrf	(??___flmul^(0+128)+3)
  2149     0117  0847               	movf	??___flmul^(0+128),w
  2150     0118  1683               	bsf	3,5	;RP0=1, select bank3
  2151     0119  1703               	bsf	3,6	;RP1=1, select bank3
  2152     011A  079A               	addwf	___flmul@grs^(0+384),f
  2153     011B  1683               	bsf	3,5	;RP0=1, select bank1
  2154     011C  1303               	bcf	3,6	;RP1=0, select bank1
  2155     011D  0848               	movf	(??___flmul+1)^(0+128),w
  2156     011E  1103               	clrz
  2157     011F  1803               	skipnc
  2158     0120  3E01               	addlw	1
  2159     0121  1903               	skipnz
  2160     0122  2926               	goto	u5541
  2161     0123  1683               	bsf	3,5	;RP0=1, select bank3
  2162     0124  1703               	bsf	3,6	;RP1=1, select bank3
  2163     0125  079B               	addwf	(___flmul@grs+1)^(0+384),f
  2164     0126                     u5541:
  2165     0126  1683               	bsf	3,5	;RP0=1, select bank1
  2166     0127  1303               	bcf	3,6	;RP1=0, select bank1
  2167     0128  0849               	movf	(??___flmul+2)^(0+128),w
  2168     0129  1103               	clrz
  2169     012A  1803               	skipnc
  2170     012B  3E01               	addlw	1
  2171     012C  1903               	skipnz
  2172     012D  2931               	goto	u5542
  2173     012E  1683               	bsf	3,5	;RP0=1, select bank3
  2174     012F  1703               	bsf	3,6	;RP1=1, select bank3
  2175     0130  079C               	addwf	(___flmul@grs+2)^(0+384),f
  2176     0131                     u5542:
  2177     0131  1683               	bsf	3,5	;RP0=1, select bank1
  2178     0132  1303               	bcf	3,6	;RP1=0, select bank1
  2179     0133  084A               	movf	(??___flmul+3)^(0+128),w
  2180     0134  1103               	clrz
  2181     0135  1803               	skipnc
  2182     0136  3E01               	addlw	1
  2183     0137  1903               	skipnz
  2184     0138  293C               	goto	u5543
  2185     0139  1683               	bsf	3,5	;RP0=1, select bank3
  2186     013A  1703               	bsf	3,6	;RP1=1, select bank3
  2187     013B  079D               	addwf	(___flmul@grs+3)^(0+384),f
  2188     013C                     u5543:
  2189     013C  1683               	bsf	3,5	;RP0=1, select bank1
  2190     013D  1303               	bcf	3,6	;RP1=0, select bank1
  2191     013E  1683               	bsf	3,5	;RP0=1, select bank3
  2192     013F  1703               	bsf	3,6	;RP1=1, select bank3
  2193     0140                     l3336:
  2194     0140  0824               	movf	(___flmul@temp^(0+384)+1),w
  2195     0141  1683               	bsf	3,5	;RP0=1, select bank1
  2196     0142  1303               	bcf	3,6	;RP1=0, select bank1
  2197     0143  00C7               	movwf	??___flmul^(0+128)
  2198     0144  01C8               	clrf	(??___flmul^(0+128)+1)
  2199     0145  01C9               	clrf	(??___flmul^(0+128)+2)
  2200     0146  01CA               	clrf	(??___flmul^(0+128)+3)
  2201     0147  0847               	movf	??___flmul^(0+128),w
  2202     0148  1683               	bsf	3,5	;RP0=1, select bank3
  2203     0149  1703               	bsf	3,6	;RP1=1, select bank3
  2204     014A  079F               	addwf	___flmul@prod^(0+384),f
  2205     014B  1683               	bsf	3,5	;RP0=1, select bank1
  2206     014C  1303               	bcf	3,6	;RP1=0, select bank1
  2207     014D  0848               	movf	(??___flmul+1)^(0+128),w
  2208     014E  1103               	clrz
  2209     014F  1803               	skipnc
  2210     0150  3E01               	addlw	1
  2211     0151  1903               	skipnz
  2212     0152  2956               	goto	u5551
  2213     0153  1683               	bsf	3,5	;RP0=1, select bank3
  2214     0154  1703               	bsf	3,6	;RP1=1, select bank3
  2215     0155  07A0               	addwf	(___flmul@prod+1)^(0+384),f
  2216     0156                     u5551:
  2217     0156  1683               	bsf	3,5	;RP0=1, select bank1
  2218     0157  1303               	bcf	3,6	;RP1=0, select bank1
  2219     0158  0849               	movf	(??___flmul+2)^(0+128),w
  2220     0159  1103               	clrz
  2221     015A  1803               	skipnc
  2222     015B  3E01               	addlw	1
  2223     015C  1903               	skipnz
  2224     015D  2961               	goto	u5552
  2225     015E  1683               	bsf	3,5	;RP0=1, select bank3
  2226     015F  1703               	bsf	3,6	;RP1=1, select bank3
  2227     0160  07A1               	addwf	(___flmul@prod+2)^(0+384),f
  2228     0161                     u5552:
  2229     0161  1683               	bsf	3,5	;RP0=1, select bank1
  2230     0162  1303               	bcf	3,6	;RP1=0, select bank1
  2231     0163  084A               	movf	(??___flmul+3)^(0+128),w
  2232     0164  1103               	clrz
  2233     0165  1803               	skipnc
  2234     0166  3E01               	addlw	1
  2235     0167  1903               	skipnz
  2236     0168  296C               	goto	u5553
  2237     0169  1683               	bsf	3,5	;RP0=1, select bank3
  2238     016A  1703               	bsf	3,6	;RP1=1, select bank3
  2239     016B  07A2               	addwf	(___flmul@prod+3)^(0+384),f
  2240     016C                     u5553:
  2241     016C  1683               	bsf	3,5	;RP0=1, select bank1
  2242     016D  1303               	bcf	3,6	;RP1=0, select bank1
  2243     016E  1683               	bsf	3,5	;RP0=1, select bank3
  2244     016F  1703               	bsf	3,6	;RP1=1, select bank3
  2245     0170  0812               	movf	(___flmul@b^(0+384)+2),w
  2246     0171  1683               	bsf	3,5	;RP0=1, select bank1
  2247     0172  1303               	bcf	3,6	;RP1=0, select bank1
  2248     0173  00B9               	movwf	__Umul8_16@multiplicand^(0+128)
  2249     0174  1683               	bsf	3,5	;RP0=1, select bank3
  2250     0175  1703               	bsf	3,6	;RP1=1, select bank3
  2251     0176  0814               	movf	___flmul@a^(0+384),w
  2252     0177  120A  118A  27BC  120A  118A  	fcall	__Umul8_16
  2253     017C  1683               	bsf	3,5	;RP0=1, select bank1
  2254     017D  1303               	bcf	3,6	;RP1=0, select bank1
  2255     017E  083A               	movf	(?__Umul8_16+1)^(0+128),w
  2256     017F  1683               	bsf	3,5	;RP0=1, select bank3
  2257     0180  1703               	bsf	3,6	;RP1=1, select bank3
  2258     0181  00A4               	movwf	(___flmul@temp+1)^(0+384)
  2259     0182  1683               	bsf	3,5	;RP0=1, select bank1
  2260     0183  1303               	bcf	3,6	;RP1=0, select bank1
  2261     0184  0839               	movf	?__Umul8_16^(0+128),w
  2262     0185  1683               	bsf	3,5	;RP0=1, select bank3
  2263     0186  1703               	bsf	3,6	;RP1=1, select bank3
  2264     0187  00A3               	movwf	___flmul@temp^(0+384)
  2265     0188                     l3338:
  2266     0188  0823               	movf	___flmul@temp^(0+384),w
  2267     0189  1683               	bsf	3,5	;RP0=1, select bank1
  2268     018A  1303               	bcf	3,6	;RP1=0, select bank1
  2269     018B  00C7               	movwf	??___flmul^(0+128)
  2270     018C  01C8               	clrf	(??___flmul^(0+128)+1)
  2271     018D  01C9               	clrf	(??___flmul^(0+128)+2)
  2272     018E  01CA               	clrf	(??___flmul^(0+128)+3)
  2273     018F  0847               	movf	??___flmul^(0+128),w
  2274     0190  1683               	bsf	3,5	;RP0=1, select bank3
  2275     0191  1703               	bsf	3,6	;RP1=1, select bank3
  2276     0192  079A               	addwf	___flmul@grs^(0+384),f
  2277     0193  1683               	bsf	3,5	;RP0=1, select bank1
  2278     0194  1303               	bcf	3,6	;RP1=0, select bank1
  2279     0195  0848               	movf	(??___flmul+1)^(0+128),w
  2280     0196  1103               	clrz
  2281     0197  1803               	skipnc
  2282     0198  3E01               	addlw	1
  2283     0199  1903               	skipnz
  2284     019A  299E               	goto	u5561
  2285     019B  1683               	bsf	3,5	;RP0=1, select bank3
  2286     019C  1703               	bsf	3,6	;RP1=1, select bank3
  2287     019D  079B               	addwf	(___flmul@grs+1)^(0+384),f
  2288     019E                     u5561:
  2289     019E  1683               	bsf	3,5	;RP0=1, select bank1
  2290     019F  1303               	bcf	3,6	;RP1=0, select bank1
  2291     01A0  0849               	movf	(??___flmul+2)^(0+128),w
  2292     01A1  1103               	clrz
  2293     01A2  1803               	skipnc
  2294     01A3  3E01               	addlw	1
  2295     01A4  1903               	skipnz
  2296     01A5  29A9               	goto	u5562
  2297     01A6  1683               	bsf	3,5	;RP0=1, select bank3
  2298     01A7  1703               	bsf	3,6	;RP1=1, select bank3
  2299     01A8  079C               	addwf	(___flmul@grs+2)^(0+384),f
  2300     01A9                     u5562:
  2301     01A9  1683               	bsf	3,5	;RP0=1, select bank1
  2302     01AA  1303               	bcf	3,6	;RP1=0, select bank1
  2303     01AB  084A               	movf	(??___flmul+3)^(0+128),w
  2304     01AC  1103               	clrz
  2305     01AD  1803               	skipnc
  2306     01AE  3E01               	addlw	1
  2307     01AF  1903               	skipnz
  2308     01B0  29B4               	goto	u5563
  2309     01B1  1683               	bsf	3,5	;RP0=1, select bank3
  2310     01B2  1703               	bsf	3,6	;RP1=1, select bank3
  2311     01B3  079D               	addwf	(___flmul@grs+3)^(0+384),f
  2312     01B4                     u5563:
  2313     01B4  1683               	bsf	3,5	;RP0=1, select bank1
  2314     01B5  1303               	bcf	3,6	;RP1=0, select bank1
  2315     01B6  1683               	bsf	3,5	;RP0=1, select bank3
  2316     01B7  1703               	bsf	3,6	;RP1=1, select bank3
  2317     01B8                     l3340:
  2318     01B8  0824               	movf	(___flmul@temp^(0+384)+1),w
  2319     01B9  1683               	bsf	3,5	;RP0=1, select bank1
  2320     01BA  1303               	bcf	3,6	;RP1=0, select bank1
  2321     01BB  00C7               	movwf	??___flmul^(0+128)
  2322     01BC  01C8               	clrf	(??___flmul^(0+128)+1)
  2323     01BD  01C9               	clrf	(??___flmul^(0+128)+2)
  2324     01BE  01CA               	clrf	(??___flmul^(0+128)+3)
  2325     01BF  0847               	movf	??___flmul^(0+128),w
  2326     01C0  1683               	bsf	3,5	;RP0=1, select bank3
  2327     01C1  1703               	bsf	3,6	;RP1=1, select bank3
  2328     01C2  079F               	addwf	___flmul@prod^(0+384),f
  2329     01C3  1683               	bsf	3,5	;RP0=1, select bank1
  2330     01C4  1303               	bcf	3,6	;RP1=0, select bank1
  2331     01C5  0848               	movf	(??___flmul+1)^(0+128),w
  2332     01C6  1103               	clrz
  2333     01C7  1803               	skipnc
  2334     01C8  3E01               	addlw	1
  2335     01C9  1903               	skipnz
  2336     01CA  29CE               	goto	u5571
  2337     01CB  1683               	bsf	3,5	;RP0=1, select bank3
  2338     01CC  1703               	bsf	3,6	;RP1=1, select bank3
  2339     01CD  07A0               	addwf	(___flmul@prod+1)^(0+384),f
  2340     01CE                     u5571:
  2341     01CE  1683               	bsf	3,5	;RP0=1, select bank1
  2342     01CF  1303               	bcf	3,6	;RP1=0, select bank1
  2343     01D0  0849               	movf	(??___flmul+2)^(0+128),w
  2344     01D1  1103               	clrz
  2345     01D2  1803               	skipnc
  2346     01D3  3E01               	addlw	1
  2347     01D4  1903               	skipnz
  2348     01D5  29D9               	goto	u5572
  2349     01D6  1683               	bsf	3,5	;RP0=1, select bank3
  2350     01D7  1703               	bsf	3,6	;RP1=1, select bank3
  2351     01D8  07A1               	addwf	(___flmul@prod+2)^(0+384),f
  2352     01D9                     u5572:
  2353     01D9  1683               	bsf	3,5	;RP0=1, select bank1
  2354     01DA  1303               	bcf	3,6	;RP1=0, select bank1
  2355     01DB  084A               	movf	(??___flmul+3)^(0+128),w
  2356     01DC  1103               	clrz
  2357     01DD  1803               	skipnc
  2358     01DE  3E01               	addlw	1
  2359     01DF  1903               	skipnz
  2360     01E0  29E4               	goto	u5573
  2361     01E1  1683               	bsf	3,5	;RP0=1, select bank3
  2362     01E2  1703               	bsf	3,6	;RP1=1, select bank3
  2363     01E3  07A2               	addwf	(___flmul@prod+3)^(0+384),f
  2364     01E4                     u5573:
  2365     01E4  1683               	bsf	3,5	;RP0=1, select bank1
  2366     01E5  1303               	bcf	3,6	;RP1=0, select bank1
  2367     01E6  1683               	bsf	3,5	;RP0=1, select bank3
  2368     01E7  1703               	bsf	3,6	;RP1=1, select bank3
  2369     01E8                     l3342:
  2370     01E8  3008               	movlw	8
  2371     01E9  1683               	bsf	3,5	;RP0=1, select bank1
  2372     01EA  1303               	bcf	3,6	;RP1=0, select bank1
  2373     01EB  00C7               	movwf	??___flmul^(0+128)
  2374     01EC                     u5585:
  2375     01EC  1003               	clrc
  2376     01ED  1683               	bsf	3,5	;RP0=1, select bank3
  2377     01EE  1703               	bsf	3,6	;RP1=1, select bank3
  2378     01EF  0D9A               	rlf	___flmul@grs^(0+384),f
  2379     01F0  0D9B               	rlf	(___flmul@grs+1)^(0+384),f
  2380     01F1  0D9C               	rlf	(___flmul@grs+2)^(0+384),f
  2381     01F2  0D9D               	rlf	(___flmul@grs+3)^(0+384),f
  2382     01F3  1683               	bsf	3,5	;RP0=1, select bank1
  2383     01F4  1303               	bcf	3,6	;RP1=0, select bank1
  2384     01F5  0BC7               	decfsz	??___flmul^(0+128),f
  2385     01F6  29EC               	goto	u5585
  2386     01F7                     l3344:
  2387     01F7  1683               	bsf	3,5	;RP0=1, select bank3
  2388     01F8  1703               	bsf	3,6	;RP1=1, select bank3
  2389     01F9  0811               	movf	(___flmul@b^(0+384)+1),w
  2390     01FA  1683               	bsf	3,5	;RP0=1, select bank1
  2391     01FB  1303               	bcf	3,6	;RP1=0, select bank1
  2392     01FC  00B9               	movwf	__Umul8_16@multiplicand^(0+128)
  2393     01FD  1683               	bsf	3,5	;RP0=1, select bank3
  2394     01FE  1703               	bsf	3,6	;RP1=1, select bank3
  2395     01FF  0814               	movf	___flmul@a^(0+384),w
  2396     0200  120A  118A  27BC  120A  118A  	fcall	__Umul8_16
  2397     0205  1683               	bsf	3,5	;RP0=1, select bank1
  2398     0206  1303               	bcf	3,6	;RP1=0, select bank1
  2399     0207  083A               	movf	(?__Umul8_16+1)^(0+128),w
  2400     0208  1683               	bsf	3,5	;RP0=1, select bank3
  2401     0209  1703               	bsf	3,6	;RP1=1, select bank3
  2402     020A  00A4               	movwf	(___flmul@temp+1)^(0+384)
  2403     020B  1683               	bsf	3,5	;RP0=1, select bank1
  2404     020C  1303               	bcf	3,6	;RP1=0, select bank1
  2405     020D  0839               	movf	?__Umul8_16^(0+128),w
  2406     020E  1683               	bsf	3,5	;RP0=1, select bank3
  2407     020F  1703               	bsf	3,6	;RP1=1, select bank3
  2408     0210  00A3               	movwf	___flmul@temp^(0+384)
  2409     0211                     l3346:
  2410     0211  0823               	movf	___flmul@temp^(0+384),w
  2411     0212  1683               	bsf	3,5	;RP0=1, select bank1
  2412     0213  1303               	bcf	3,6	;RP1=0, select bank1
  2413     0214  00C7               	movwf	??___flmul^(0+128)
  2414     0215  1683               	bsf	3,5	;RP0=1, select bank3
  2415     0216  1703               	bsf	3,6	;RP1=1, select bank3
  2416     0217  0824               	movf	(___flmul@temp+1)^(0+384),w
  2417     0218  1683               	bsf	3,5	;RP0=1, select bank1
  2418     0219  1303               	bcf	3,6	;RP1=0, select bank1
  2419     021A  00C8               	movwf	(??___flmul^(0+128)+1)
  2420     021B  01C9               	clrf	(??___flmul^(0+128)+2)
  2421     021C  01CA               	clrf	(??___flmul^(0+128)+3)
  2422     021D  0847               	movf	??___flmul^(0+128),w
  2423     021E  1683               	bsf	3,5	;RP0=1, select bank3
  2424     021F  1703               	bsf	3,6	;RP1=1, select bank3
  2425     0220  079A               	addwf	___flmul@grs^(0+384),f
  2426     0221  1683               	bsf	3,5	;RP0=1, select bank1
  2427     0222  1303               	bcf	3,6	;RP1=0, select bank1
  2428     0223  0848               	movf	(??___flmul+1)^(0+128),w
  2429     0224  1103               	clrz
  2430     0225  1803               	skipnc
  2431     0226  3E01               	addlw	1
  2432     0227  1903               	skipnz
  2433     0228  2A2C               	goto	u5591
  2434     0229  1683               	bsf	3,5	;RP0=1, select bank3
  2435     022A  1703               	bsf	3,6	;RP1=1, select bank3
  2436     022B  079B               	addwf	(___flmul@grs+1)^(0+384),f
  2437     022C                     u5591:
  2438     022C  1683               	bsf	3,5	;RP0=1, select bank1
  2439     022D  1303               	bcf	3,6	;RP1=0, select bank1
  2440     022E  0849               	movf	(??___flmul+2)^(0+128),w
  2441     022F  1103               	clrz
  2442     0230  1803               	skipnc
  2443     0231  3E01               	addlw	1
  2444     0232  1903               	skipnz
  2445     0233  2A37               	goto	u5592
  2446     0234  1683               	bsf	3,5	;RP0=1, select bank3
  2447     0235  1703               	bsf	3,6	;RP1=1, select bank3
  2448     0236  079C               	addwf	(___flmul@grs+2)^(0+384),f
  2449     0237                     u5592:
  2450     0237  1683               	bsf	3,5	;RP0=1, select bank1
  2451     0238  1303               	bcf	3,6	;RP1=0, select bank1
  2452     0239  084A               	movf	(??___flmul+3)^(0+128),w
  2453     023A  1103               	clrz
  2454     023B  1803               	skipnc
  2455     023C  3E01               	addlw	1
  2456     023D  1903               	skipnz
  2457     023E  2A42               	goto	u5593
  2458     023F  1683               	bsf	3,5	;RP0=1, select bank3
  2459     0240  1703               	bsf	3,6	;RP1=1, select bank3
  2460     0241  079D               	addwf	(___flmul@grs+3)^(0+384),f
  2461     0242                     u5593:
  2462     0242  1683               	bsf	3,5	;RP0=1, select bank1
  2463     0243  1303               	bcf	3,6	;RP1=0, select bank1
  2464     0244  1683               	bsf	3,5	;RP0=1, select bank3
  2465     0245  1703               	bsf	3,6	;RP1=1, select bank3
  2466     0246                     l3348:
  2467     0246  0810               	movf	___flmul@b^(0+384),w
  2468     0247  1683               	bsf	3,5	;RP0=1, select bank1
  2469     0248  1303               	bcf	3,6	;RP1=0, select bank1
  2470     0249  00B9               	movwf	__Umul8_16@multiplicand^(0+128)
  2471     024A  1683               	bsf	3,5	;RP0=1, select bank3
  2472     024B  1703               	bsf	3,6	;RP1=1, select bank3
  2473     024C  0815               	movf	(___flmul@a^(0+384)+1),w
  2474     024D  120A  118A  27BC  120A  118A  	fcall	__Umul8_16
  2475     0252  1683               	bsf	3,5	;RP0=1, select bank1
  2476     0253  1303               	bcf	3,6	;RP1=0, select bank1
  2477     0254  083A               	movf	(?__Umul8_16+1)^(0+128),w
  2478     0255  1683               	bsf	3,5	;RP0=1, select bank3
  2479     0256  1703               	bsf	3,6	;RP1=1, select bank3
  2480     0257  00A4               	movwf	(___flmul@temp+1)^(0+384)
  2481     0258  1683               	bsf	3,5	;RP0=1, select bank1
  2482     0259  1303               	bcf	3,6	;RP1=0, select bank1
  2483     025A  0839               	movf	?__Umul8_16^(0+128),w
  2484     025B  1683               	bsf	3,5	;RP0=1, select bank3
  2485     025C  1703               	bsf	3,6	;RP1=1, select bank3
  2486     025D  00A3               	movwf	___flmul@temp^(0+384)
  2487     025E                     l3350:
  2488     025E  0823               	movf	___flmul@temp^(0+384),w
  2489     025F  1683               	bsf	3,5	;RP0=1, select bank1
  2490     0260  1303               	bcf	3,6	;RP1=0, select bank1
  2491     0261  00C7               	movwf	??___flmul^(0+128)
  2492     0262  1683               	bsf	3,5	;RP0=1, select bank3
  2493     0263  1703               	bsf	3,6	;RP1=1, select bank3
  2494     0264  0824               	movf	(___flmul@temp+1)^(0+384),w
  2495     0265  1683               	bsf	3,5	;RP0=1, select bank1
  2496     0266  1303               	bcf	3,6	;RP1=0, select bank1
  2497     0267  00C8               	movwf	(??___flmul^(0+128)+1)
  2498     0268  01C9               	clrf	(??___flmul^(0+128)+2)
  2499     0269  01CA               	clrf	(??___flmul^(0+128)+3)
  2500     026A  0847               	movf	??___flmul^(0+128),w
  2501     026B  1683               	bsf	3,5	;RP0=1, select bank3
  2502     026C  1703               	bsf	3,6	;RP1=1, select bank3
  2503     026D  079A               	addwf	___flmul@grs^(0+384),f
  2504     026E  1683               	bsf	3,5	;RP0=1, select bank1
  2505     026F  1303               	bcf	3,6	;RP1=0, select bank1
  2506     0270  0848               	movf	(??___flmul+1)^(0+128),w
  2507     0271  1103               	clrz
  2508     0272  1803               	skipnc
  2509     0273  3E01               	addlw	1
  2510     0274  1903               	skipnz
  2511     0275  2A79               	goto	u5601
  2512     0276  1683               	bsf	3,5	;RP0=1, select bank3
  2513     0277  1703               	bsf	3,6	;RP1=1, select bank3
  2514     0278  079B               	addwf	(___flmul@grs+1)^(0+384),f
  2515     0279                     u5601:
  2516     0279  1683               	bsf	3,5	;RP0=1, select bank1
  2517     027A  1303               	bcf	3,6	;RP1=0, select bank1
  2518     027B  0849               	movf	(??___flmul+2)^(0+128),w
  2519     027C  1103               	clrz
  2520     027D  1803               	skipnc
  2521     027E  3E01               	addlw	1
  2522     027F  1903               	skipnz
  2523     0280  2A84               	goto	u5602
  2524     0281  1683               	bsf	3,5	;RP0=1, select bank3
  2525     0282  1703               	bsf	3,6	;RP1=1, select bank3
  2526     0283  079C               	addwf	(___flmul@grs+2)^(0+384),f
  2527     0284                     u5602:
  2528     0284  1683               	bsf	3,5	;RP0=1, select bank1
  2529     0285  1303               	bcf	3,6	;RP1=0, select bank1
  2530     0286  084A               	movf	(??___flmul+3)^(0+128),w
  2531     0287  1103               	clrz
  2532     0288  1803               	skipnc
  2533     0289  3E01               	addlw	1
  2534     028A  1903               	skipnz
  2535     028B  2A8F               	goto	u5603
  2536     028C  1683               	bsf	3,5	;RP0=1, select bank3
  2537     028D  1703               	bsf	3,6	;RP1=1, select bank3
  2538     028E  079D               	addwf	(___flmul@grs+3)^(0+384),f
  2539     028F                     u5603:
  2540     028F  1683               	bsf	3,5	;RP0=1, select bank1
  2541     0290  1303               	bcf	3,6	;RP1=0, select bank1
  2542     0291  1683               	bsf	3,5	;RP0=1, select bank3
  2543     0292  1703               	bsf	3,6	;RP1=1, select bank3
  2544     0293                     l3352:
  2545     0293  3008               	movlw	8
  2546     0294  1683               	bsf	3,5	;RP0=1, select bank1
  2547     0295  1303               	bcf	3,6	;RP1=0, select bank1
  2548     0296  00C7               	movwf	??___flmul^(0+128)
  2549     0297                     u5615:
  2550     0297  1003               	clrc
  2551     0298  1683               	bsf	3,5	;RP0=1, select bank3
  2552     0299  1703               	bsf	3,6	;RP1=1, select bank3
  2553     029A  0D9A               	rlf	___flmul@grs^(0+384),f
  2554     029B  0D9B               	rlf	(___flmul@grs+1)^(0+384),f
  2555     029C  0D9C               	rlf	(___flmul@grs+2)^(0+384),f
  2556     029D  0D9D               	rlf	(___flmul@grs+3)^(0+384),f
  2557     029E  1683               	bsf	3,5	;RP0=1, select bank1
  2558     029F  1303               	bcf	3,6	;RP1=0, select bank1
  2559     02A0  0BC7               	decfsz	??___flmul^(0+128),f
  2560     02A1  2A97               	goto	u5615
  2561     02A2  1683               	bsf	3,5	;RP0=1, select bank3
  2562     02A3  1703               	bsf	3,6	;RP1=1, select bank3
  2563     02A4  0810               	movf	___flmul@b^(0+384),w
  2564     02A5  1683               	bsf	3,5	;RP0=1, select bank1
  2565     02A6  1303               	bcf	3,6	;RP1=0, select bank1
  2566     02A7  00B9               	movwf	__Umul8_16@multiplicand^(0+128)
  2567     02A8  1683               	bsf	3,5	;RP0=1, select bank3
  2568     02A9  1703               	bsf	3,6	;RP1=1, select bank3
  2569     02AA  0814               	movf	___flmul@a^(0+384),w
  2570     02AB  120A  118A  27BC  120A  118A  	fcall	__Umul8_16
  2571     02B0  1683               	bsf	3,5	;RP0=1, select bank1
  2572     02B1  1303               	bcf	3,6	;RP1=0, select bank1
  2573     02B2  083A               	movf	(?__Umul8_16+1)^(0+128),w
  2574     02B3  1683               	bsf	3,5	;RP0=1, select bank3
  2575     02B4  1703               	bsf	3,6	;RP1=1, select bank3
  2576     02B5  00A4               	movwf	(___flmul@temp+1)^(0+384)
  2577     02B6  1683               	bsf	3,5	;RP0=1, select bank1
  2578     02B7  1303               	bcf	3,6	;RP1=0, select bank1
  2579     02B8  0839               	movf	?__Umul8_16^(0+128),w
  2580     02B9  1683               	bsf	3,5	;RP0=1, select bank3
  2581     02BA  1703               	bsf	3,6	;RP1=1, select bank3
  2582     02BB  00A3               	movwf	___flmul@temp^(0+384)
  2583     02BC                     l3354:
  2584     02BC  0823               	movf	___flmul@temp^(0+384),w
  2585     02BD  1683               	bsf	3,5	;RP0=1, select bank1
  2586     02BE  1303               	bcf	3,6	;RP1=0, select bank1
  2587     02BF  00C7               	movwf	??___flmul^(0+128)
  2588     02C0  1683               	bsf	3,5	;RP0=1, select bank3
  2589     02C1  1703               	bsf	3,6	;RP1=1, select bank3
  2590     02C2  0824               	movf	(___flmul@temp+1)^(0+384),w
  2591     02C3  1683               	bsf	3,5	;RP0=1, select bank1
  2592     02C4  1303               	bcf	3,6	;RP1=0, select bank1
  2593     02C5  00C8               	movwf	(??___flmul^(0+128)+1)
  2594     02C6  01C9               	clrf	(??___flmul^(0+128)+2)
  2595     02C7  01CA               	clrf	(??___flmul^(0+128)+3)
  2596     02C8  0847               	movf	??___flmul^(0+128),w
  2597     02C9  1683               	bsf	3,5	;RP0=1, select bank3
  2598     02CA  1703               	bsf	3,6	;RP1=1, select bank3
  2599     02CB  079A               	addwf	___flmul@grs^(0+384),f
  2600     02CC  1683               	bsf	3,5	;RP0=1, select bank1
  2601     02CD  1303               	bcf	3,6	;RP1=0, select bank1
  2602     02CE  0848               	movf	(??___flmul+1)^(0+128),w
  2603     02CF  1103               	clrz
  2604     02D0  1803               	skipnc
  2605     02D1  3E01               	addlw	1
  2606     02D2  1903               	skipnz
  2607     02D3  2AD7               	goto	u5621
  2608     02D4  1683               	bsf	3,5	;RP0=1, select bank3
  2609     02D5  1703               	bsf	3,6	;RP1=1, select bank3
  2610     02D6  079B               	addwf	(___flmul@grs+1)^(0+384),f
  2611     02D7                     u5621:
  2612     02D7  1683               	bsf	3,5	;RP0=1, select bank1
  2613     02D8  1303               	bcf	3,6	;RP1=0, select bank1
  2614     02D9  0849               	movf	(??___flmul+2)^(0+128),w
  2615     02DA  1103               	clrz
  2616     02DB  1803               	skipnc
  2617     02DC  3E01               	addlw	1
  2618     02DD  1903               	skipnz
  2619     02DE  2AE2               	goto	u5622
  2620     02DF  1683               	bsf	3,5	;RP0=1, select bank3
  2621     02E0  1703               	bsf	3,6	;RP1=1, select bank3
  2622     02E1  079C               	addwf	(___flmul@grs+2)^(0+384),f
  2623     02E2                     u5622:
  2624     02E2  1683               	bsf	3,5	;RP0=1, select bank1
  2625     02E3  1303               	bcf	3,6	;RP1=0, select bank1
  2626     02E4  084A               	movf	(??___flmul+3)^(0+128),w
  2627     02E5  1103               	clrz
  2628     02E6  1803               	skipnc
  2629     02E7  3E01               	addlw	1
  2630     02E8  1903               	skipnz
  2631     02E9  2AED               	goto	u5623
  2632     02EA  1683               	bsf	3,5	;RP0=1, select bank3
  2633     02EB  1703               	bsf	3,6	;RP1=1, select bank3
  2634     02EC  079D               	addwf	(___flmul@grs+3)^(0+384),f
  2635     02ED                     u5623:
  2636     02ED  1683               	bsf	3,5	;RP0=1, select bank1
  2637     02EE  1303               	bcf	3,6	;RP1=0, select bank1
  2638     02EF  1683               	bsf	3,5	;RP0=1, select bank3
  2639     02F0  1703               	bsf	3,6	;RP1=1, select bank3
  2640     02F1                     l3356:
  2641     02F1  0811               	movf	(___flmul@b^(0+384)+1),w
  2642     02F2  1683               	bsf	3,5	;RP0=1, select bank1
  2643     02F3  1303               	bcf	3,6	;RP1=0, select bank1
  2644     02F4  00B9               	movwf	__Umul8_16@multiplicand^(0+128)
  2645     02F5  1683               	bsf	3,5	;RP0=1, select bank3
  2646     02F6  1703               	bsf	3,6	;RP1=1, select bank3
  2647     02F7  0816               	movf	(___flmul@a^(0+384)+2),w
  2648     02F8  120A  118A  27BC  120A  118A  	fcall	__Umul8_16
  2649     02FD  1683               	bsf	3,5	;RP0=1, select bank1
  2650     02FE  1303               	bcf	3,6	;RP1=0, select bank1
  2651     02FF  083A               	movf	(?__Umul8_16+1)^(0+128),w
  2652     0300  1683               	bsf	3,5	;RP0=1, select bank3
  2653     0301  1703               	bsf	3,6	;RP1=1, select bank3
  2654     0302  00A4               	movwf	(___flmul@temp+1)^(0+384)
  2655     0303  1683               	bsf	3,5	;RP0=1, select bank1
  2656     0304  1303               	bcf	3,6	;RP1=0, select bank1
  2657     0305  0839               	movf	?__Umul8_16^(0+128),w
  2658     0306  1683               	bsf	3,5	;RP0=1, select bank3
  2659     0307  1703               	bsf	3,6	;RP1=1, select bank3
  2660     0308  00A3               	movwf	___flmul@temp^(0+384)
  2661     0309  0823               	movf	___flmul@temp^(0+384),w
  2662     030A  1683               	bsf	3,5	;RP0=1, select bank1
  2663     030B  1303               	bcf	3,6	;RP1=0, select bank1
  2664     030C  00C7               	movwf	??___flmul^(0+128)
  2665     030D  1683               	bsf	3,5	;RP0=1, select bank3
  2666     030E  1703               	bsf	3,6	;RP1=1, select bank3
  2667     030F  0824               	movf	(___flmul@temp+1)^(0+384),w
  2668     0310  1683               	bsf	3,5	;RP0=1, select bank1
  2669     0311  1303               	bcf	3,6	;RP1=0, select bank1
  2670     0312  00C8               	movwf	(??___flmul^(0+128)+1)
  2671     0313  01C9               	clrf	(??___flmul^(0+128)+2)
  2672     0314  01CA               	clrf	(??___flmul^(0+128)+3)
  2673     0315  0847               	movf	??___flmul^(0+128),w
  2674     0316  1683               	bsf	3,5	;RP0=1, select bank3
  2675     0317  1703               	bsf	3,6	;RP1=1, select bank3
  2676     0318  079F               	addwf	___flmul@prod^(0+384),f
  2677     0319  1683               	bsf	3,5	;RP0=1, select bank1
  2678     031A  1303               	bcf	3,6	;RP1=0, select bank1
  2679     031B  0848               	movf	(??___flmul+1)^(0+128),w
  2680     031C  1103               	clrz
  2681     031D  1803               	skipnc
  2682     031E  3E01               	addlw	1
  2683     031F  1903               	skipnz
  2684     0320  2B24               	goto	u5631
  2685     0321  1683               	bsf	3,5	;RP0=1, select bank3
  2686     0322  1703               	bsf	3,6	;RP1=1, select bank3
  2687     0323  07A0               	addwf	(___flmul@prod+1)^(0+384),f
  2688     0324                     u5631:
  2689     0324  1683               	bsf	3,5	;RP0=1, select bank1
  2690     0325  1303               	bcf	3,6	;RP1=0, select bank1
  2691     0326  0849               	movf	(??___flmul+2)^(0+128),w
  2692     0327  1103               	clrz
  2693     0328  1803               	skipnc
  2694     0329  3E01               	addlw	1
  2695     032A  1903               	skipnz
  2696     032B  2B2F               	goto	u5632
  2697     032C  1683               	bsf	3,5	;RP0=1, select bank3
  2698     032D  1703               	bsf	3,6	;RP1=1, select bank3
  2699     032E  07A1               	addwf	(___flmul@prod+2)^(0+384),f
  2700     032F                     u5632:
  2701     032F  1683               	bsf	3,5	;RP0=1, select bank1
  2702     0330  1303               	bcf	3,6	;RP1=0, select bank1
  2703     0331  084A               	movf	(??___flmul+3)^(0+128),w
  2704     0332  1103               	clrz
  2705     0333  1803               	skipnc
  2706     0334  3E01               	addlw	1
  2707     0335  1903               	skipnz
  2708     0336  2B3A               	goto	u5633
  2709     0337  1683               	bsf	3,5	;RP0=1, select bank3
  2710     0338  1703               	bsf	3,6	;RP1=1, select bank3
  2711     0339  07A2               	addwf	(___flmul@prod+3)^(0+384),f
  2712     033A                     u5633:
  2713     033A  1683               	bsf	3,5	;RP0=1, select bank1
  2714     033B  1303               	bcf	3,6	;RP1=0, select bank1
  2715     033C  1683               	bsf	3,5	;RP0=1, select bank3
  2716     033D  1703               	bsf	3,6	;RP1=1, select bank3
  2717     033E                     l3358:
  2718     033E  0812               	movf	(___flmul@b^(0+384)+2),w
  2719     033F  1683               	bsf	3,5	;RP0=1, select bank1
  2720     0340  1303               	bcf	3,6	;RP1=0, select bank1
  2721     0341  00B9               	movwf	__Umul8_16@multiplicand^(0+128)
  2722     0342  1683               	bsf	3,5	;RP0=1, select bank3
  2723     0343  1703               	bsf	3,6	;RP1=1, select bank3
  2724     0344  0815               	movf	(___flmul@a^(0+384)+1),w
  2725     0345  120A  118A  27BC  120A  118A  	fcall	__Umul8_16
  2726     034A  1683               	bsf	3,5	;RP0=1, select bank1
  2727     034B  1303               	bcf	3,6	;RP1=0, select bank1
  2728     034C  083A               	movf	(?__Umul8_16+1)^(0+128),w
  2729     034D  1683               	bsf	3,5	;RP0=1, select bank3
  2730     034E  1703               	bsf	3,6	;RP1=1, select bank3
  2731     034F  00A4               	movwf	(___flmul@temp+1)^(0+384)
  2732     0350  1683               	bsf	3,5	;RP0=1, select bank1
  2733     0351  1303               	bcf	3,6	;RP1=0, select bank1
  2734     0352  0839               	movf	?__Umul8_16^(0+128),w
  2735     0353  1683               	bsf	3,5	;RP0=1, select bank3
  2736     0354  1703               	bsf	3,6	;RP1=1, select bank3
  2737     0355  00A3               	movwf	___flmul@temp^(0+384)
  2738     0356                     l3360:
  2739     0356  0823               	movf	___flmul@temp^(0+384),w
  2740     0357  1683               	bsf	3,5	;RP0=1, select bank1
  2741     0358  1303               	bcf	3,6	;RP1=0, select bank1
  2742     0359  00C7               	movwf	??___flmul^(0+128)
  2743     035A  1683               	bsf	3,5	;RP0=1, select bank3
  2744     035B  1703               	bsf	3,6	;RP1=1, select bank3
  2745     035C  0824               	movf	(___flmul@temp+1)^(0+384),w
  2746     035D  1683               	bsf	3,5	;RP0=1, select bank1
  2747     035E  1303               	bcf	3,6	;RP1=0, select bank1
  2748     035F  00C8               	movwf	(??___flmul^(0+128)+1)
  2749     0360  01C9               	clrf	(??___flmul^(0+128)+2)
  2750     0361  01CA               	clrf	(??___flmul^(0+128)+3)
  2751     0362  0847               	movf	??___flmul^(0+128),w
  2752     0363  1683               	bsf	3,5	;RP0=1, select bank3
  2753     0364  1703               	bsf	3,6	;RP1=1, select bank3
  2754     0365  079F               	addwf	___flmul@prod^(0+384),f
  2755     0366  1683               	bsf	3,5	;RP0=1, select bank1
  2756     0367  1303               	bcf	3,6	;RP1=0, select bank1
  2757     0368  0848               	movf	(??___flmul+1)^(0+128),w
  2758     0369  1103               	clrz
  2759     036A  1803               	skipnc
  2760     036B  3E01               	addlw	1
  2761     036C  1903               	skipnz
  2762     036D  2B71               	goto	u5641
  2763     036E  1683               	bsf	3,5	;RP0=1, select bank3
  2764     036F  1703               	bsf	3,6	;RP1=1, select bank3
  2765     0370  07A0               	addwf	(___flmul@prod+1)^(0+384),f
  2766     0371                     u5641:
  2767     0371  1683               	bsf	3,5	;RP0=1, select bank1
  2768     0372  1303               	bcf	3,6	;RP1=0, select bank1
  2769     0373  0849               	movf	(??___flmul+2)^(0+128),w
  2770     0374  1103               	clrz
  2771     0375  1803               	skipnc
  2772     0376  3E01               	addlw	1
  2773     0377  1903               	skipnz
  2774     0378  2B7C               	goto	u5642
  2775     0379  1683               	bsf	3,5	;RP0=1, select bank3
  2776     037A  1703               	bsf	3,6	;RP1=1, select bank3
  2777     037B  07A1               	addwf	(___flmul@prod+2)^(0+384),f
  2778     037C                     u5642:
  2779     037C  1683               	bsf	3,5	;RP0=1, select bank1
  2780     037D  1303               	bcf	3,6	;RP1=0, select bank1
  2781     037E  084A               	movf	(??___flmul+3)^(0+128),w
  2782     037F  1103               	clrz
  2783     0380  1803               	skipnc
  2784     0381  3E01               	addlw	1
  2785     0382  1903               	skipnz
  2786     0383  2B87               	goto	u5643
  2787     0384  1683               	bsf	3,5	;RP0=1, select bank3
  2788     0385  1703               	bsf	3,6	;RP1=1, select bank3
  2789     0386  07A2               	addwf	(___flmul@prod+3)^(0+384),f
  2790     0387                     u5643:
  2791     0387  1683               	bsf	3,5	;RP0=1, select bank1
  2792     0388  1303               	bcf	3,6	;RP1=0, select bank1
  2793     0389  1683               	bsf	3,5	;RP0=1, select bank3
  2794     038A  1703               	bsf	3,6	;RP1=1, select bank3
  2795     038B  0812               	movf	(___flmul@b^(0+384)+2),w
  2796     038C  1683               	bsf	3,5	;RP0=1, select bank1
  2797     038D  1303               	bcf	3,6	;RP1=0, select bank1
  2798     038E  00B9               	movwf	__Umul8_16@multiplicand^(0+128)
  2799     038F  1683               	bsf	3,5	;RP0=1, select bank3
  2800     0390  1703               	bsf	3,6	;RP1=1, select bank3
  2801     0391  0816               	movf	(___flmul@a^(0+384)+2),w
  2802     0392  120A  118A  27BC  120A  118A  	fcall	__Umul8_16
  2803     0397  1683               	bsf	3,5	;RP0=1, select bank1
  2804     0398  1303               	bcf	3,6	;RP1=0, select bank1
  2805     0399  083A               	movf	(?__Umul8_16+1)^(0+128),w
  2806     039A  1683               	bsf	3,5	;RP0=1, select bank3
  2807     039B  1703               	bsf	3,6	;RP1=1, select bank3
  2808     039C  00A4               	movwf	(___flmul@temp+1)^(0+384)
  2809     039D  1683               	bsf	3,5	;RP0=1, select bank1
  2810     039E  1303               	bcf	3,6	;RP1=0, select bank1
  2811     039F  0839               	movf	?__Umul8_16^(0+128),w
  2812     03A0  1683               	bsf	3,5	;RP0=1, select bank3
  2813     03A1  1703               	bsf	3,6	;RP1=1, select bank3
  2814     03A2  00A3               	movwf	___flmul@temp^(0+384)
  2815     03A3                     l3362:
  2816     03A3  0823               	movf	___flmul@temp^(0+384),w
  2817     03A4  1683               	bsf	3,5	;RP0=1, select bank1
  2818     03A5  1303               	bcf	3,6	;RP1=0, select bank1
  2819     03A6  00C7               	movwf	??___flmul^(0+128)
  2820     03A7  1683               	bsf	3,5	;RP0=1, select bank3
  2821     03A8  1703               	bsf	3,6	;RP1=1, select bank3
  2822     03A9  0824               	movf	(___flmul@temp+1)^(0+384),w
  2823     03AA  1683               	bsf	3,5	;RP0=1, select bank1
  2824     03AB  1303               	bcf	3,6	;RP1=0, select bank1
  2825     03AC  00C8               	movwf	(??___flmul^(0+128)+1)
  2826     03AD  01C9               	clrf	(??___flmul^(0+128)+2)
  2827     03AE  01CA               	clrf	(??___flmul^(0+128)+3)
  2828     03AF  3008               	movlw	8
  2829     03B0                     u5655:
  2830     03B0  1003               	clrc
  2831     03B1  0DC7               	rlf	??___flmul^(0+128),f
  2832     03B2  0DC8               	rlf	(??___flmul^(0+128)+1),f
  2833     03B3  0DC9               	rlf	(??___flmul^(0+128)+2),f
  2834     03B4  0DCA               	rlf	(??___flmul^(0+128)+3),f
  2835     03B5                     u5650:
  2836     03B5  3EFF               	addlw	-1
  2837     03B6  1D03               	skipz
  2838     03B7  2BB0               	goto	u5655
  2839     03B8  0847               	movf	??___flmul^(0+128),w
  2840     03B9  1683               	bsf	3,5	;RP0=1, select bank3
  2841     03BA  1703               	bsf	3,6	;RP1=1, select bank3
  2842     03BB  079F               	addwf	___flmul@prod^(0+384),f
  2843     03BC  1683               	bsf	3,5	;RP0=1, select bank1
  2844     03BD  1303               	bcf	3,6	;RP1=0, select bank1
  2845     03BE  0848               	movf	(??___flmul+1)^(0+128),w
  2846     03BF  1103               	clrz
  2847     03C0  1803               	skipnc
  2848     03C1  3E01               	addlw	1
  2849     03C2  1903               	skipnz
  2850     03C3  2BC7               	goto	u5661
  2851     03C4  1683               	bsf	3,5	;RP0=1, select bank3
  2852     03C5  1703               	bsf	3,6	;RP1=1, select bank3
  2853     03C6  07A0               	addwf	(___flmul@prod+1)^(0+384),f
  2854     03C7                     u5661:
  2855     03C7  1683               	bsf	3,5	;RP0=1, select bank1
  2856     03C8  1303               	bcf	3,6	;RP1=0, select bank1
  2857     03C9  0849               	movf	(??___flmul+2)^(0+128),w
  2858     03CA  1103               	clrz
  2859     03CB  1803               	skipnc
  2860     03CC  3E01               	addlw	1
  2861     03CD  1903               	skipnz
  2862     03CE  2BD2               	goto	u5662
  2863     03CF  1683               	bsf	3,5	;RP0=1, select bank3
  2864     03D0  1703               	bsf	3,6	;RP1=1, select bank3
  2865     03D1  07A1               	addwf	(___flmul@prod+2)^(0+384),f
  2866     03D2                     u5662:
  2867     03D2  1683               	bsf	3,5	;RP0=1, select bank1
  2868     03D3  1303               	bcf	3,6	;RP1=0, select bank1
  2869     03D4  084A               	movf	(??___flmul+3)^(0+128),w
  2870     03D5  1103               	clrz
  2871     03D6  1803               	skipnc
  2872     03D7  3E01               	addlw	1
  2873     03D8  1903               	skipnz
  2874     03D9  2BDD               	goto	u5663
  2875     03DA  1683               	bsf	3,5	;RP0=1, select bank3
  2876     03DB  1703               	bsf	3,6	;RP1=1, select bank3
  2877     03DC  07A2               	addwf	(___flmul@prod+3)^(0+384),f
  2878     03DD                     u5663:
  2879     03DD  1683               	bsf	3,5	;RP0=1, select bank1
  2880     03DE  1303               	bcf	3,6	;RP1=0, select bank1
  2881     03DF  1683               	bsf	3,5	;RP0=1, select bank3
  2882     03E0  1703               	bsf	3,6	;RP1=1, select bank3
  2883     03E1                     l3364:
  2884     03E1  081A               	movf	___flmul@grs^(0+384),w
  2885     03E2  1683               	bsf	3,5	;RP0=1, select bank1
  2886     03E3  1303               	bcf	3,6	;RP1=0, select bank1
  2887     03E4  00C7               	movwf	??___flmul^(0+128)
  2888     03E5  1683               	bsf	3,5	;RP0=1, select bank3
  2889     03E6  1703               	bsf	3,6	;RP1=1, select bank3
  2890     03E7  081B               	movf	(___flmul@grs+1)^(0+384),w
  2891     03E8  1683               	bsf	3,5	;RP0=1, select bank1
  2892     03E9  1303               	bcf	3,6	;RP1=0, select bank1
  2893     03EA  00C8               	movwf	(??___flmul^(0+128)+1)
  2894     03EB  1683               	bsf	3,5	;RP0=1, select bank3
  2895     03EC  1703               	bsf	3,6	;RP1=1, select bank3
  2896     03ED  081C               	movf	(___flmul@grs+2)^(0+384),w
  2897     03EE  1683               	bsf	3,5	;RP0=1, select bank1
  2898     03EF  1303               	bcf	3,6	;RP1=0, select bank1
  2899     03F0  00C9               	movwf	(??___flmul^(0+128)+2)
  2900     03F1  1683               	bsf	3,5	;RP0=1, select bank3
  2901     03F2  1703               	bsf	3,6	;RP1=1, select bank3
  2902     03F3  081D               	movf	(___flmul@grs+3)^(0+384),w
  2903     03F4  1683               	bsf	3,5	;RP0=1, select bank1
  2904     03F5  1303               	bcf	3,6	;RP1=0, select bank1
  2905     03F6  00CA               	movwf	(??___flmul^(0+128)+3)
  2906     03F7  3018               	movlw	24
  2907     03F8                     u5675:
  2908     03F8  1003               	clrc
  2909     03F9  0CCA               	rrf	(??___flmul^(0+128)+3),f
  2910     03FA  0CC9               	rrf	(??___flmul^(0+128)+2),f
  2911     03FB  0CC8               	rrf	(??___flmul^(0+128)+1),f
  2912     03FC  0CC7               	rrf	??___flmul^(0+128),f
  2913     03FD                     u5670:
  2914     03FD  3EFF               	addlw	-1
  2915     03FE  1D03               	skipz
  2916     03FF  2BF8               	goto	u5675
  2917     0400  0847               	movf	??___flmul^(0+128),w
  2918     0401  1683               	bsf	3,5	;RP0=1, select bank3
  2919     0402  1703               	bsf	3,6	;RP1=1, select bank3
  2920     0403  079F               	addwf	___flmul@prod^(0+384),f
  2921     0404  1683               	bsf	3,5	;RP0=1, select bank1
  2922     0405  1303               	bcf	3,6	;RP1=0, select bank1
  2923     0406  0848               	movf	(??___flmul+1)^(0+128),w
  2924     0407  1103               	clrz
  2925     0408  1803               	skipnc
  2926     0409  3E01               	addlw	1
  2927     040A  1903               	skipnz
  2928     040B  2C0F               	goto	u5681
  2929     040C  1683               	bsf	3,5	;RP0=1, select bank3
  2930     040D  1703               	bsf	3,6	;RP1=1, select bank3
  2931     040E  07A0               	addwf	(___flmul@prod+1)^(0+384),f
  2932     040F                     u5681:
  2933     040F  1683               	bsf	3,5	;RP0=1, select bank1
  2934     0410  1303               	bcf	3,6	;RP1=0, select bank1
  2935     0411  0849               	movf	(??___flmul+2)^(0+128),w
  2936     0412  1103               	clrz
  2937     0413  1803               	skipnc
  2938     0414  3E01               	addlw	1
  2939     0415  1903               	skipnz
  2940     0416  2C1A               	goto	u5682
  2941     0417  1683               	bsf	3,5	;RP0=1, select bank3
  2942     0418  1703               	bsf	3,6	;RP1=1, select bank3
  2943     0419  07A1               	addwf	(___flmul@prod+2)^(0+384),f
  2944     041A                     u5682:
  2945     041A  1683               	bsf	3,5	;RP0=1, select bank1
  2946     041B  1303               	bcf	3,6	;RP1=0, select bank1
  2947     041C  084A               	movf	(??___flmul+3)^(0+128),w
  2948     041D  1103               	clrz
  2949     041E  1803               	skipnc
  2950     041F  3E01               	addlw	1
  2951     0420  1903               	skipnz
  2952     0421  2C25               	goto	u5683
  2953     0422  1683               	bsf	3,5	;RP0=1, select bank3
  2954     0423  1703               	bsf	3,6	;RP1=1, select bank3
  2955     0424  07A2               	addwf	(___flmul@prod+3)^(0+384),f
  2956     0425                     u5683:
  2957     0425  1683               	bsf	3,5	;RP0=1, select bank1
  2958     0426  1303               	bcf	3,6	;RP1=0, select bank1
  2959     0427  1683               	bsf	3,5	;RP0=1, select bank3
  2960     0428  1703               	bsf	3,6	;RP1=1, select bank3
  2961     0429                     l3366:
  2962     0429  3008               	movlw	8
  2963     042A  1683               	bsf	3,5	;RP0=1, select bank1
  2964     042B  1303               	bcf	3,6	;RP1=0, select bank1
  2965     042C  00C7               	movwf	??___flmul^(0+128)
  2966     042D                     u5695:
  2967     042D  1003               	clrc
  2968     042E  1683               	bsf	3,5	;RP0=1, select bank3
  2969     042F  1703               	bsf	3,6	;RP1=1, select bank3
  2970     0430  0D9A               	rlf	___flmul@grs^(0+384),f
  2971     0431  0D9B               	rlf	(___flmul@grs+1)^(0+384),f
  2972     0432  0D9C               	rlf	(___flmul@grs+2)^(0+384),f
  2973     0433  0D9D               	rlf	(___flmul@grs+3)^(0+384),f
  2974     0434  1683               	bsf	3,5	;RP0=1, select bank1
  2975     0435  1303               	bcf	3,6	;RP1=0, select bank1
  2976     0436  0BC7               	decfsz	??___flmul^(0+128),f
  2977     0437  2C2D               	goto	u5695
  2978     0438                     l3368:
  2979     0438  1683               	bsf	3,5	;RP0=1, select bank3
  2980     0439  1703               	bsf	3,6	;RP1=1, select bank3
  2981     043A  081E               	movf	___flmul@bexp^(0+384),w
  2982     043B  0719               	addwf	___flmul@aexp^(0+384),w
  2983     043C  1683               	bsf	3,5	;RP0=1, select bank1
  2984     043D  1303               	bcf	3,6	;RP1=0, select bank1
  2985     043E  00C7               	movwf	??___flmul^(0+128)
  2986     043F  01C8               	clrf	(??___flmul^(0+128)+1)
  2987     0440  0DC8               	rlf	(??___flmul+1)^(0+128),f
  2988     0441  0847               	movf	??___flmul^(0+128),w
  2989     0442  3E82               	addlw	130
  2990     0443  1683               	bsf	3,5	;RP0=1, select bank3
  2991     0444  1703               	bsf	3,6	;RP1=1, select bank3
  2992     0445  00A3               	movwf	___flmul@temp^(0+384)
  2993     0446  1683               	bsf	3,5	;RP0=1, select bank1
  2994     0447  1303               	bcf	3,6	;RP1=0, select bank1
  2995     0448  0848               	movf	(??___flmul+1)^(0+128),w
  2996     0449  1803               	skipnc
  2997     044A  3E01               	addlw	1
  2998     044B  3EFF               	addlw	255
  2999     044C  1683               	bsf	3,5	;RP0=1, select bank3
  3000     044D  1703               	bsf	3,6	;RP1=1, select bank3
  3001     044E  00A4               	movwf	(___flmul@temp+1)^(0+384)
  3002     044F  2C7D               	goto	l3380
  3003     0450                     l3370:
  3004     0450  3001               	movlw	1
  3005     0451  1683               	bsf	3,5	;RP0=1, select bank1
  3006     0452  1303               	bcf	3,6	;RP1=0, select bank1
  3007     0453  00C7               	movwf	??___flmul^(0+128)
  3008     0454                     u5705:
  3009     0454  1003               	clrc
  3010     0455  1683               	bsf	3,5	;RP0=1, select bank3
  3011     0456  1703               	bsf	3,6	;RP1=1, select bank3
  3012     0457  0D9F               	rlf	___flmul@prod^(0+384),f
  3013     0458  0DA0               	rlf	(___flmul@prod+1)^(0+384),f
  3014     0459  0DA1               	rlf	(___flmul@prod+2)^(0+384),f
  3015     045A  0DA2               	rlf	(___flmul@prod+3)^(0+384),f
  3016     045B  1683               	bsf	3,5	;RP0=1, select bank1
  3017     045C  1303               	bcf	3,6	;RP1=0, select bank1
  3018     045D  0BC7               	decfsz	??___flmul^(0+128),f
  3019     045E  2C54               	goto	u5705
  3020     045F                     l3372:
  3021     045F  1683               	bsf	3,5	;RP0=1, select bank3
  3022     0460  1703               	bsf	3,6	;RP1=1, select bank3
  3023     0461  1F9D               	btfss	(___flmul@grs+3)^(0+384),7
  3024     0462  2C64               	goto	u5711
  3025     0463  2C65               	goto	u5710
  3026     0464                     u5711:
  3027     0464  2C66               	goto	l3376
  3028     0465                     u5710:
  3029     0465                     l3374:
  3030     0465  141F               	bsf	___flmul@prod^(0+384),0
  3031     0466                     l3376:
  3032     0466  3001               	movlw	1
  3033     0467  1683               	bsf	3,5	;RP0=1, select bank1
  3034     0468  1303               	bcf	3,6	;RP1=0, select bank1
  3035     0469  00C7               	movwf	??___flmul^(0+128)
  3036     046A                     u5725:
  3037     046A  1003               	clrc
  3038     046B  1683               	bsf	3,5	;RP0=1, select bank3
  3039     046C  1703               	bsf	3,6	;RP1=1, select bank3
  3040     046D  0D9A               	rlf	___flmul@grs^(0+384),f
  3041     046E  0D9B               	rlf	(___flmul@grs+1)^(0+384),f
  3042     046F  0D9C               	rlf	(___flmul@grs+2)^(0+384),f
  3043     0470  0D9D               	rlf	(___flmul@grs+3)^(0+384),f
  3044     0471  1683               	bsf	3,5	;RP0=1, select bank1
  3045     0472  1303               	bcf	3,6	;RP1=0, select bank1
  3046     0473  0BC7               	decfsz	??___flmul^(0+128),f
  3047     0474  2C6A               	goto	u5725
  3048     0475                     l3378:
  3049     0475  30FF               	movlw	255
  3050     0476  1683               	bsf	3,5	;RP0=1, select bank3
  3051     0477  1703               	bsf	3,6	;RP1=1, select bank3
  3052     0478  07A3               	addwf	___flmul@temp^(0+384),f
  3053     0479  1803               	skipnc
  3054     047A  0AA4               	incf	(___flmul@temp+1)^(0+384),f
  3055     047B  30FF               	movlw	255
  3056     047C  07A4               	addwf	(___flmul@temp+1)^(0+384),f
  3057     047D                     l3380:
  3058     047D  1FA1               	btfss	(___flmul@prod+2)^(0+384),7
  3059     047E  2C80               	goto	u5731
  3060     047F  2C81               	goto	u5730
  3061     0480                     u5731:
  3062     0480  2C50               	goto	l3370
  3063     0481                     u5730:
  3064     0481                     l3382:
  3065     0481  0199               	clrf	___flmul@aexp^(0+384)
  3066     0482                     l3384:
  3067     0482  1F9D               	btfss	(___flmul@grs+3)^(0+384),7
  3068     0483  2C85               	goto	u5741
  3069     0484  2C86               	goto	u5740
  3070     0485                     u5741:
  3071     0485  2CB4               	goto	l3392
  3072     0486                     u5740:
  3073     0486                     l3386:
  3074     0486  30FF               	movlw	255
  3075     0487  051A               	andwf	___flmul@grs^(0+384),w
  3076     0488  1683               	bsf	3,5	;RP0=1, select bank1
  3077     0489  1303               	bcf	3,6	;RP1=0, select bank1
  3078     048A  00C7               	movwf	??___flmul^(0+128)
  3079     048B  30FF               	movlw	255
  3080     048C  1683               	bsf	3,5	;RP0=1, select bank3
  3081     048D  1703               	bsf	3,6	;RP1=1, select bank3
  3082     048E  051B               	andwf	(___flmul@grs+1)^(0+384),w
  3083     048F  1683               	bsf	3,5	;RP0=1, select bank1
  3084     0490  1303               	bcf	3,6	;RP1=0, select bank1
  3085     0491  00C8               	movwf	(??___flmul^(0+128)+1)
  3086     0492  30FF               	movlw	255
  3087     0493  1683               	bsf	3,5	;RP0=1, select bank3
  3088     0494  1703               	bsf	3,6	;RP1=1, select bank3
  3089     0495  051C               	andwf	(___flmul@grs+2)^(0+384),w
  3090     0496  1683               	bsf	3,5	;RP0=1, select bank1
  3091     0497  1303               	bcf	3,6	;RP1=0, select bank1
  3092     0498  00C9               	movwf	(??___flmul^(0+128)+2)
  3093     0499  307F               	movlw	127
  3094     049A  1683               	bsf	3,5	;RP0=1, select bank3
  3095     049B  1703               	bsf	3,6	;RP1=1, select bank3
  3096     049C  051D               	andwf	(___flmul@grs+3)^(0+384),w
  3097     049D  1683               	bsf	3,5	;RP0=1, select bank1
  3098     049E  1303               	bcf	3,6	;RP1=0, select bank1
  3099     049F  00CA               	movwf	(??___flmul^(0+128)+3)
  3100     04A0  084A               	movf	(??___flmul+3)^(0+128),w
  3101     04A1  0449               	iorwf	(??___flmul+2)^(0+128),w
  3102     04A2  0448               	iorwf	(??___flmul+1)^(0+128),w
  3103     04A3  0447               	iorwf	??___flmul^(0+128),w
  3104     04A4  1903               	skipnz
  3105     04A5  2CA7               	goto	u5751
  3106     04A6  2CA8               	goto	u5750
  3107     04A7                     u5751:
  3108     04A7  2CAD               	goto	l631
  3109     04A8                     u5750:
  3110     04A8                     l3388:
  3111     04A8  1683               	bsf	3,5	;RP0=1, select bank3
  3112     04A9  1703               	bsf	3,6	;RP1=1, select bank3
  3113     04AA  0199               	clrf	___flmul@aexp^(0+384)
  3114     04AB  0A99               	incf	___flmul@aexp^(0+384),f
  3115     04AC  2CB4               	goto	l3392
  3116     04AD                     l631:
  3117     04AD  1683               	bsf	3,5	;RP0=1, select bank3
  3118     04AE  1703               	bsf	3,6	;RP1=1, select bank3
  3119     04AF  1C1F               	btfss	___flmul@prod^(0+384),0
  3120     04B0  2CB2               	goto	u5761
  3121     04B1  2CB3               	goto	u5760
  3122     04B2                     u5761:
  3123     04B2  2CB4               	goto	l3392
  3124     04B3                     u5760:
  3125     04B3  2CA8               	goto	l3388
  3126     04B4                     l3392:
  3127     04B4  0819               	movf	___flmul@aexp^(0+384),w
  3128     04B5  1903               	btfsc	3,2
  3129     04B6  2CB8               	goto	u5771
  3130     04B7  2CB9               	goto	u5770
  3131     04B8                     u5771:
  3132     04B8  2D06               	goto	l3402
  3133     04B9                     u5770:
  3134     04B9                     l3394:
  3135     04B9  3001               	movlw	1
  3136     04BA  079F               	addwf	___flmul@prod^(0+384),f
  3137     04BB  3000               	movlw	0
  3138     04BC  1803               	skipnc
  3139     04BD  3001               	movlw	1
  3140     04BE  07A0               	addwf	(___flmul@prod+1)^(0+384),f
  3141     04BF  3000               	movlw	0
  3142     04C0  1803               	skipnc
  3143     04C1  3001               	movlw	1
  3144     04C2  07A1               	addwf	(___flmul@prod+2)^(0+384),f
  3145     04C3  3000               	movlw	0
  3146     04C4  1803               	skipnc
  3147     04C5  3001               	movlw	1
  3148     04C6  07A2               	addwf	(___flmul@prod+3)^(0+384),f
  3149     04C7                     l3396:
  3150     04C7  1C22               	btfss	(___flmul@prod+3)^(0+384),0
  3151     04C8  2CCA               	goto	u5781
  3152     04C9  2CCB               	goto	u5780
  3153     04CA                     u5781:
  3154     04CA  2D06               	goto	l3402
  3155     04CB                     u5780:
  3156     04CB                     l3398:
  3157     04CB  081F               	movf	___flmul@prod^(0+384),w
  3158     04CC  1683               	bsf	3,5	;RP0=1, select bank1
  3159     04CD  1303               	bcf	3,6	;RP1=0, select bank1
  3160     04CE  00C7               	movwf	??___flmul^(0+128)
  3161     04CF  1683               	bsf	3,5	;RP0=1, select bank3
  3162     04D0  1703               	bsf	3,6	;RP1=1, select bank3
  3163     04D1  0820               	movf	(___flmul@prod+1)^(0+384),w
  3164     04D2  1683               	bsf	3,5	;RP0=1, select bank1
  3165     04D3  1303               	bcf	3,6	;RP1=0, select bank1
  3166     04D4  00C8               	movwf	(??___flmul^(0+128)+1)
  3167     04D5  1683               	bsf	3,5	;RP0=1, select bank3
  3168     04D6  1703               	bsf	3,6	;RP1=1, select bank3
  3169     04D7  0821               	movf	(___flmul@prod+2)^(0+384),w
  3170     04D8  1683               	bsf	3,5	;RP0=1, select bank1
  3171     04D9  1303               	bcf	3,6	;RP1=0, select bank1
  3172     04DA  00C9               	movwf	(??___flmul^(0+128)+2)
  3173     04DB  1683               	bsf	3,5	;RP0=1, select bank3
  3174     04DC  1703               	bsf	3,6	;RP1=1, select bank3
  3175     04DD  0822               	movf	(___flmul@prod+3)^(0+384),w
  3176     04DE  1683               	bsf	3,5	;RP0=1, select bank1
  3177     04DF  1303               	bcf	3,6	;RP1=0, select bank1
  3178     04E0  00CA               	movwf	(??___flmul^(0+128)+3)
  3179     04E1  3001               	movlw	1
  3180     04E2  00CB               	movwf	(??___flmul+4)^(0+128)
  3181     04E3                     u5795:
  3182     04E3  0D4A               	rlf	(??___flmul^(0+128)+3),w
  3183     04E4  0CCA               	rrf	(??___flmul^(0+128)+3),f
  3184     04E5  0CC9               	rrf	(??___flmul^(0+128)+2),f
  3185     04E6  0CC8               	rrf	(??___flmul^(0+128)+1),f
  3186     04E7  0CC7               	rrf	??___flmul^(0+128),f
  3187     04E8                     u5790:
  3188     04E8  0BCB               	decfsz	(??___flmul+4)^(0+128),f
  3189     04E9  2CE3               	goto	u5795
  3190     04EA  084A               	movf	(??___flmul+3)^(0+128),w
  3191     04EB  1683               	bsf	3,5	;RP0=1, select bank3
  3192     04EC  1703               	bsf	3,6	;RP1=1, select bank3
  3193     04ED  00A2               	movwf	(___flmul@prod+3)^(0+384)
  3194     04EE  1683               	bsf	3,5	;RP0=1, select bank1
  3195     04EF  1303               	bcf	3,6	;RP1=0, select bank1
  3196     04F0  0849               	movf	(??___flmul+2)^(0+128),w
  3197     04F1  1683               	bsf	3,5	;RP0=1, select bank3
  3198     04F2  1703               	bsf	3,6	;RP1=1, select bank3
  3199     04F3  00A1               	movwf	(___flmul@prod+2)^(0+384)
  3200     04F4  1683               	bsf	3,5	;RP0=1, select bank1
  3201     04F5  1303               	bcf	3,6	;RP1=0, select bank1
  3202     04F6  0848               	movf	(??___flmul+1)^(0+128),w
  3203     04F7  1683               	bsf	3,5	;RP0=1, select bank3
  3204     04F8  1703               	bsf	3,6	;RP1=1, select bank3
  3205     04F9  00A0               	movwf	(___flmul@prod+1)^(0+384)
  3206     04FA  1683               	bsf	3,5	;RP0=1, select bank1
  3207     04FB  1303               	bcf	3,6	;RP1=0, select bank1
  3208     04FC  0847               	movf	??___flmul^(0+128),w
  3209     04FD  1683               	bsf	3,5	;RP0=1, select bank3
  3210     04FE  1703               	bsf	3,6	;RP1=1, select bank3
  3211     04FF  009F               	movwf	___flmul@prod^(0+384)
  3212     0500                     l3400:
  3213     0500  3001               	movlw	1
  3214     0501  07A3               	addwf	___flmul@temp^(0+384),f
  3215     0502  1803               	skipnc
  3216     0503  0AA4               	incf	(___flmul@temp+1)^(0+384),f
  3217     0504  3000               	movlw	0
  3218     0505  07A4               	addwf	(___flmul@temp+1)^(0+384),f
  3219     0506                     l3402:
  3220     0506  0824               	movf	(___flmul@temp+1)^(0+384),w
  3221     0507  3A80               	xorlw	128
  3222     0508  00FF               	movwf	btemp+1
  3223     0509  3080               	movlw	128
  3224     050A  027F               	subwf	btemp+1,w
  3225     050B  1D03               	skipz
  3226     050C  2D0F               	goto	u5805
  3227     050D  30FF               	movlw	255
  3228     050E  0223               	subwf	___flmul@temp^(0+384),w
  3229     050F                     u5805:
  3230     050F  1C03               	skipc
  3231     0510  2D12               	goto	u5801
  3232     0511  2D13               	goto	u5800
  3233     0512                     u5801:
  3234     0512  2D1E               	goto	l3406
  3235     0513                     u5800:
  3236     0513                     l3404:
  3237     0513  307F               	movlw	127
  3238     0514  1683               	bsf	3,5	;RP0=1, select bank3
  3239     0515  1703               	bsf	3,6	;RP1=1, select bank3
  3240     0516  00A2               	movwf	(___flmul@prod+3)^(0+384)
  3241     0517  3080               	movlw	128
  3242     0518  00A1               	movwf	(___flmul@prod+2)^(0+384)
  3243     0519  3000               	movlw	0
  3244     051A  00A0               	movwf	(___flmul@prod+1)^(0+384)
  3245     051B  3000               	movlw	0
  3246     051C  009F               	movwf	___flmul@prod^(0+384)
  3247     051D  2D53               	goto	l637
  3248     051E                     l3406:
  3249     051E  1683               	bsf	3,5	;RP0=1, select bank3
  3250     051F  1703               	bsf	3,6	;RP1=1, select bank3
  3251     0520  0824               	movf	(___flmul@temp+1)^(0+384),w
  3252     0521  3A80               	xorlw	128
  3253     0522  00FF               	movwf	btemp+1
  3254     0523  3080               	movlw	128
  3255     0524  027F               	subwf	btemp+1,w
  3256     0525  1D03               	skipz
  3257     0526  2D29               	goto	u5815
  3258     0527  3001               	movlw	1
  3259     0528  0223               	subwf	___flmul@temp^(0+384),w
  3260     0529                     u5815:
  3261     0529  1803               	skipnc
  3262     052A  2D2C               	goto	u5811
  3263     052B  2D2D               	goto	u5810
  3264     052C                     u5811:
  3265     052C  2D39               	goto	l3412
  3266     052D                     u5810:
  3267     052D                     l3408:
  3268     052D  3000               	movlw	0
  3269     052E  1683               	bsf	3,5	;RP0=1, select bank3
  3270     052F  1703               	bsf	3,6	;RP1=1, select bank3
  3271     0530  00A2               	movwf	(___flmul@prod+3)^(0+384)
  3272     0531  3000               	movlw	0
  3273     0532  00A1               	movwf	(___flmul@prod+2)^(0+384)
  3274     0533  3000               	movlw	0
  3275     0534  00A0               	movwf	(___flmul@prod+1)^(0+384)
  3276     0535  3000               	movlw	0
  3277     0536  009F               	movwf	___flmul@prod^(0+384)
  3278     0537                     l3410:
  3279     0537  0198               	clrf	___flmul@sign^(0+384)
  3280     0538  2D53               	goto	l637
  3281     0539                     l3412:
  3282     0539  1683               	bsf	3,5	;RP0=1, select bank3
  3283     053A  1703               	bsf	3,6	;RP1=1, select bank3
  3284     053B  0823               	movf	___flmul@temp^(0+384),w
  3285     053C  009E               	movwf	___flmul@bexp^(0+384)
  3286     053D  30FF               	movlw	255
  3287     053E  059F               	andwf	___flmul@prod^(0+384),f
  3288     053F  30FF               	movlw	255
  3289     0540  05A0               	andwf	(___flmul@prod+1)^(0+384),f
  3290     0541  307F               	movlw	127
  3291     0542  05A1               	andwf	(___flmul@prod+2)^(0+384),f
  3292     0543  3000               	movlw	0
  3293     0544  05A2               	andwf	(___flmul@prod+3)^(0+384),f
  3294     0545                     l3414:
  3295     0545  1C1E               	btfss	___flmul@bexp^(0+384),0
  3296     0546  2D48               	goto	u5821
  3297     0547  2D49               	goto	u5820
  3298     0548                     u5821:
  3299     0548  2D4A               	goto	l3418
  3300     0549                     u5820:
  3301     0549                     l3416:
  3302     0549  17A1               	bsf	(___flmul@prod^(0+384)+2),7
  3303     054A                     l3418:
  3304     054A  081E               	movf	___flmul@bexp^(0+384),w
  3305     054B  1683               	bsf	3,5	;RP0=1, select bank1
  3306     054C  1303               	bcf	3,6	;RP1=0, select bank1
  3307     054D  00C7               	movwf	??___flmul^(0+128)
  3308     054E  1003               	clrc
  3309     054F  0C47               	rrf	??___flmul^(0+128),w
  3310     0550  1683               	bsf	3,5	;RP0=1, select bank3
  3311     0551  1703               	bsf	3,6	;RP1=1, select bank3
  3312     0552  00A2               	movwf	(___flmul@prod^(0+384)+3)
  3313     0553                     l637:
  3314     0553  0818               	movf	___flmul@sign^(0+384),w
  3315     0554  1683               	bsf	3,5	;RP0=1, select bank1
  3316     0555  1303               	bcf	3,6	;RP1=0, select bank1
  3317     0556  00C7               	movwf	??___flmul^(0+128)
  3318     0557  0847               	movf	??___flmul^(0+128),w
  3319     0558  1683               	bsf	3,5	;RP0=1, select bank3
  3320     0559  1703               	bsf	3,6	;RP1=1, select bank3
  3321     055A  04A2               	iorwf	(___flmul@prod^(0+384)+3),f
  3322     055B                     l3420:
  3323     055B  0822               	movf	(___flmul@prod+3)^(0+384),w
  3324     055C  0093               	movwf	(?___flmul+3)^(0+384)
  3325     055D  0821               	movf	(___flmul@prod+2)^(0+384),w
  3326     055E  0092               	movwf	(?___flmul+2)^(0+384)
  3327     055F  0820               	movf	(___flmul@prod+1)^(0+384),w
  3328     0560  0091               	movwf	(?___flmul+1)^(0+384)
  3329     0561  081F               	movf	___flmul@prod^(0+384),w
  3330     0562  0090               	movwf	?___flmul^(0+384)
  3331     0563                     l625:
  3332     0563  0008               	return
  3333     0564                     __end_of___flmul:
  3334                           
  3335                           	psect	text4
  3336     07BC                     __ptext4:	
  3337 ;; *************** function __Umul8_16 *****************
  3338 ;; Defined at:
  3339 ;;		line 4 in file "C:\Program Files\Microchip\xc8\v2.40\pic\sources\c90\common\Umul8_16.c"
  3340 ;; Parameters:    Size  Location     Type
  3341 ;;  multiplier      1    wreg     unsigned char 
  3342 ;;  multiplicand    1   25[BANK1 ] unsigned char 
  3343 ;; Auto vars:     Size  Location     Type
  3344 ;;  multiplier      1   33[BANK1 ] unsigned char 
  3345 ;;  word_mpld       2   31[BANK1 ] unsigned int 
  3346 ;;  product         2   29[BANK1 ] unsigned int 
  3347 ;; Return value:  Size  Location     Type
  3348 ;;                  2   25[BANK1 ] unsigned int 
  3349 ;; Registers used:
  3350 ;;		wreg, status,2, status,0
  3351 ;; Tracked objects:
  3352 ;;		On entry : 0/0
  3353 ;;		On exit  : 0/0
  3354 ;;		Unchanged: 0/0
  3355 ;; Data sizes:     COMMON   BANK0   BANK1   BANK3   BANK2
  3356 ;;      Params:         0       0       2       0       0
  3357 ;;      Locals:         0       0       5       0       0
  3358 ;;      Temps:          0       0       2       0       0
  3359 ;;      Totals:         0       0       9       0       0
  3360 ;;Total ram usage:        9 bytes
  3361 ;; Hardware stack levels used: 1
  3362 ;; Hardware stack levels required when called: 4
  3363 ;; This function calls:
  3364 ;;		Nothing
  3365 ;; This function is called by:
  3366 ;;		___flmul
  3367 ;; This function uses a non-reentrant model
  3368 ;;
  3369                           
  3370     07BC                     __Umul8_16:	
  3371                           ;psect for function __Umul8_16
  3372                           
  3373                           
  3374                           ;incstack = 0
  3375                           ; Regs used in __Umul8_16: [wreg+status,2+status,0]
  3376                           ;__Umul8_16@multiplier stored from wreg
  3377     07BC  1683               	bsf	3,5	;RP0=1, select bank1
  3378     07BD  1303               	bcf	3,6	;RP1=0, select bank1
  3379     07BE  00C1               	movwf	__Umul8_16@multiplier^(0+128)
  3380     07BF                     l1924:
  3381     07BF  01BD               	clrf	__Umul8_16@product^(0+128)
  3382     07C0  01BE               	clrf	(__Umul8_16@product+1)^(0+128)
  3383     07C1                     l1926:
  3384     07C1  0839               	movf	__Umul8_16@multiplicand^(0+128),w
  3385     07C2  00BB               	movwf	??__Umul8_16^(0+128)
  3386     07C3  01BC               	clrf	(??__Umul8_16^(0+128)+1)
  3387     07C4  083B               	movf	??__Umul8_16^(0+128),w
  3388     07C5  00BF               	movwf	__Umul8_16@word_mpld^(0+128)
  3389     07C6  083C               	movf	(??__Umul8_16+1)^(0+128),w
  3390     07C7  00C0               	movwf	(__Umul8_16@word_mpld+1)^(0+128)
  3391     07C8                     l1928:
  3392     07C8  1C41               	btfss	__Umul8_16@multiplier^(0+128),0
  3393     07C9  2FCB               	goto	u2541
  3394     07CA  2FCC               	goto	u2540
  3395     07CB                     u2541:
  3396     07CB  2FD2               	goto	l644
  3397     07CC                     u2540:
  3398     07CC                     l1930:
  3399     07CC  083F               	movf	__Umul8_16@word_mpld^(0+128),w
  3400     07CD  07BD               	addwf	__Umul8_16@product^(0+128),f
  3401     07CE  1803               	skipnc
  3402     07CF  0ABE               	incf	(__Umul8_16@product+1)^(0+128),f
  3403     07D0  0840               	movf	(__Umul8_16@word_mpld+1)^(0+128),w
  3404     07D1  07BE               	addwf	(__Umul8_16@product+1)^(0+128),f
  3405     07D2                     l644:
  3406     07D2  3001               	movlw	1
  3407     07D3                     u2555:
  3408     07D3  1003               	clrc
  3409     07D4  0DBF               	rlf	__Umul8_16@word_mpld^(0+128),f
  3410     07D5  0DC0               	rlf	(__Umul8_16@word_mpld+1)^(0+128),f
  3411     07D6  3EFF               	addlw	-1
  3412     07D7  1D03               	skipz
  3413     07D8  2FD3               	goto	u2555
  3414     07D9  1003               	clrc
  3415     07DA  0CC1               	rrf	__Umul8_16@multiplier^(0+128),f
  3416     07DB                     l1932:
  3417     07DB  0841               	movf	__Umul8_16@multiplier^(0+128),w
  3418     07DC  1D03               	btfss	3,2
  3419     07DD  2FDF               	goto	u2561
  3420     07DE  2FE0               	goto	u2560
  3421     07DF                     u2561:
  3422     07DF  2FC8               	goto	l1928
  3423     07E0                     u2560:
  3424     07E0                     l1934:
  3425     07E0  083E               	movf	(__Umul8_16@product+1)^(0+128),w
  3426     07E1  00BA               	movwf	(?__Umul8_16+1)^(0+128)
  3427     07E2  083D               	movf	__Umul8_16@product^(0+128),w
  3428     07E3  00B9               	movwf	?__Umul8_16^(0+128)
  3429     07E4                     l646:
  3430     07E4  0008               	return
  3431     07E5                     __end_of__Umul8_16:
  3432                           
  3433                           	psect	text5
  3434     1004                     __ptext5:	
  3435 ;; *************** function _PWM_config *****************
  3436 ;; Defined at:
  3437 ;;		line 5 in file "PWM_SERVO1.c"
  3438 ;; Parameters:    Size  Location     Type
  3439 ;;  canal           1    wreg     unsigned char 
  3440 ;;  periodo_ms      4   55[BANK3 ] float 
  3441 ;; Auto vars:     Size  Location     Type
  3442 ;;  canal           1   59[BANK3 ] unsigned char 
  3443 ;; Return value:  Size  Location     Type
  3444 ;;                  1    wreg      void 
  3445 ;; Registers used:
  3446 ;;		wreg, status,2, status,0, btemp+1, pclath, cstack
  3447 ;; Tracked objects:
  3448 ;;		On entry : 0/0
  3449 ;;		On exit  : 0/0
  3450 ;;		Unchanged: 0/0
  3451 ;; Data sizes:     COMMON   BANK0   BANK1   BANK3   BANK2
  3452 ;;      Params:         0       0       0       4       0
  3453 ;;      Locals:         0       0       0       1       0
  3454 ;;      Temps:          0       0       0       0       0
  3455 ;;      Totals:         0       0       0       5       0
  3456 ;;Total ram usage:        5 bytes
  3457 ;; Hardware stack levels used: 1
  3458 ;; Hardware stack levels required when called: 5
  3459 ;; This function calls:
  3460 ;;		___fldiv
  3461 ;;		___fltol
  3462 ;; This function is called by:
  3463 ;;		_setup
  3464 ;; This function uses a non-reentrant model
  3465 ;;
  3466                           
  3467     1004                     _PWM_config:	
  3468                           ;psect for function _PWM_config
  3469                           
  3470                           
  3471                           ;incstack = 0
  3472                           ; Regs used in _PWM_config: [wreg+status,2+status,0+btemp+1+pclath+cstack]
  3473                           ;PWM_config@canal stored from wreg
  3474     1004  1683               	bsf	3,5	;RP0=1, select bank3
  3475     1005  1703               	bsf	3,6	;RP1=1, select bank3
  3476     1006  00CB               	movwf	PWM_config@canal^(0+384)
  3477     1007                     l3446:
  3478                           
  3479                           ;PWM_SERVO1.c: 6:     PR2 = (char) (periodo_ms/(4*(1.0f/4000000)*16));
  3480     1007  084A               	movf	(PWM_config@periodo_ms+3)^(0+384),w
  3481     1008  00AC               	movwf	(___fldiv@b+3)^(0+384)
  3482     1009  0849               	movf	(PWM_config@periodo_ms+2)^(0+384),w
  3483     100A  00AB               	movwf	(___fldiv@b+2)^(0+384)
  3484     100B  0848               	movf	(PWM_config@periodo_ms+1)^(0+384),w
  3485     100C  00AA               	movwf	(___fldiv@b+1)^(0+384)
  3486     100D  0847               	movf	PWM_config@periodo_ms^(0+384),w
  3487     100E  00A9               	movwf	___fldiv@b^(0+384)
  3488     100F  3037               	movlw	55
  3489     1010  00A8               	movwf	(___fldiv@a+3)^(0+384)
  3490     1011  3086               	movlw	134
  3491     1012  00A7               	movwf	(___fldiv@a+2)^(0+384)
  3492     1013  3037               	movlw	55
  3493     1014  00A6               	movwf	(___fldiv@a+1)^(0+384)
  3494     1015  30BD               	movlw	189
  3495     1016  00A5               	movwf	___fldiv@a^(0+384)
  3496     1017  120A  158A  20E4  160A  118A  	fcall	___fldiv
  3497     101C  1683               	bsf	3,5	;RP0=1, select bank3
  3498     101D  1703               	bsf	3,6	;RP1=1, select bank3
  3499     101E  0828               	movf	(?___fldiv+3)^(0+384),w
  3500     101F  00C2               	movwf	(___fltol@f1+3)^(0+384)
  3501     1020  0827               	movf	(?___fldiv+2)^(0+384),w
  3502     1021  00C1               	movwf	(___fltol@f1+2)^(0+384)
  3503     1022  0826               	movf	(?___fldiv+1)^(0+384),w
  3504     1023  00C0               	movwf	(___fltol@f1+1)^(0+384)
  3505     1024  0825               	movf	?___fldiv^(0+384),w
  3506     1025  00BF               	movwf	___fltol@f1^(0+384)
  3507     1026  160A  118A  2100  160A  118A  	fcall	___fltol
  3508     102B  1683               	bsf	3,5	;RP0=1, select bank3
  3509     102C  1703               	bsf	3,6	;RP1=1, select bank3
  3510     102D  083F               	movf	?___fltol^(0+384),w
  3511     102E  1683               	bsf	3,5	;RP0=1, select bank1
  3512     102F  1303               	bcf	3,6	;RP1=0, select bank1
  3513     1030  0092               	movwf	18	;volatile
  3514     1031                     l3448:
  3515                           
  3516                           ;PWM_SERVO1.c: 7:     if (canal == 1){
  3517     1031  1683               	bsf	3,5	;RP0=1, select bank3
  3518     1032  1703               	bsf	3,6	;RP1=1, select bank3
  3519     1033  034B               	decf	PWM_config@canal^(0+384),w
  3520     1034  1D03               	btfss	3,2
  3521     1035  2837               	goto	u5851
  3522     1036  2838               	goto	u5850
  3523     1037                     u5851:
  3524     1037  2848               	goto	l3460
  3525     1038                     u5850:
  3526     1038                     l3450:
  3527                           
  3528                           ;PWM_SERVO1.c: 8:         TRISCbits.TRISC2 = 1;
  3529     1038  1683               	bsf	3,5	;RP0=1, select bank1
  3530     1039  1303               	bcf	3,6	;RP1=0, select bank1
  3531     103A  1507               	bsf	7,2	;volatile
  3532     103B                     l3452:
  3533                           
  3534                           ;PWM_SERVO1.c: 9:         CCP1CONbits.P1M = 0;
  3535     103B  303F               	movlw	-193
  3536     103C  1283               	bcf	3,5	;RP0=0, select bank0
  3537     103D  1303               	bcf	3,6	;RP1=0, select bank0
  3538     103E  0597               	andwf	23,f	;volatile
  3539                           
  3540                           ;PWM_SERVO1.c: 10:         CCP1CONbits.CCP1M = 0b1101;
  3541     103F  0817               	movf	23,w	;volatile
  3542     1040  39F0               	andlw	-16
  3543     1041  380D               	iorlw	13
  3544     1042  0097               	movwf	23	;volatile
  3545     1043                     l3454:
  3546                           
  3547                           ;PWM_SERVO1.c: 11:         CCPR1L = 255;
  3548     1043  30FF               	movlw	255
  3549     1044  0095               	movwf	21	;volatile
  3550     1045                     l3456:
  3551                           
  3552                           ;PWM_SERVO1.c: 12:         CCP1CONbits.DC1B0 = 0;
  3553     1045  1217               	bcf	23,4	;volatile
  3554     1046                     l3458:
  3555                           
  3556                           ;PWM_SERVO1.c: 13:         CCP1CONbits.DC1B1 = 0;
  3557     1046  1297               	bcf	23,5	;volatile
  3558                           
  3559                           ;PWM_SERVO1.c: 14:     }
  3560     1047  2858               	goto	l3472
  3561     1048                     l3460:
  3562     1048  3002               	movlw	2
  3563     1049  064B               	xorwf	PWM_config@canal^(0+384),w
  3564     104A  1D03               	btfss	3,2
  3565     104B  284D               	goto	u5861
  3566     104C  284E               	goto	u5860
  3567     104D                     u5861:
  3568     104D  2858               	goto	l3472
  3569     104E                     u5860:
  3570     104E                     l3462:
  3571                           
  3572                           ;PWM_SERVO1.c: 16:         TRISCbits.TRISC1 = 1;
  3573     104E  1683               	bsf	3,5	;RP0=1, select bank1
  3574     104F  1303               	bcf	3,6	;RP1=0, select bank1
  3575     1050  1487               	bsf	7,1	;volatile
  3576     1051                     l3464:
  3577                           
  3578                           ;PWM_SERVO1.c: 18:         CCP2CONbits.CCP2M = 0b1111;
  3579     1051  300F               	movlw	15
  3580     1052  1283               	bcf	3,5	;RP0=0, select bank0
  3581     1053  1303               	bcf	3,6	;RP1=0, select bank0
  3582     1054  049D               	iorwf	29,f	;volatile
  3583     1055                     l3466:
  3584                           
  3585                           ;PWM_SERVO1.c: 19:         CCPR2L = 0;
  3586     1055  019B               	clrf	27	;volatile
  3587     1056                     l3468:
  3588                           
  3589                           ;PWM_SERVO1.c: 20:         CCP2CONbits.DC2B0 = 0;
  3590     1056  121D               	bcf	29,4	;volatile
  3591     1057                     l3470:
  3592                           
  3593                           ;PWM_SERVO1.c: 21:         CCP2CONbits.DC2B1 = 0;
  3594     1057  129D               	bcf	29,5	;volatile
  3595     1058                     l3472:
  3596                           
  3597                           ;PWM_SERVO1.c: 23:     PIR1bits.TMR2IF = 0;
  3598     1058  1283               	bcf	3,5	;RP0=0, select bank0
  3599     1059  1303               	bcf	3,6	;RP1=0, select bank0
  3600     105A  108C               	bcf	12,1	;volatile
  3601     105B                     l3474:
  3602                           
  3603                           ;PWM_SERVO1.c: 24:     T2CONbits.T2CKPS = 0b11;
  3604     105B  3003               	movlw	3
  3605     105C  0492               	iorwf	18,f	;volatile
  3606     105D                     l3476:
  3607                           
  3608                           ;PWM_SERVO1.c: 25:     T2CONbits.TMR2ON = 1;
  3609     105D  1512               	bsf	18,2	;volatile
  3610     105E                     l139:	
  3611                           ;PWM_SERVO1.c: 26:     while(PIR1bits.TMR2IF == 0);
  3612                           
  3613     105E  1C8C               	btfss	12,1	;volatile
  3614     105F  2861               	goto	u5871
  3615     1060  2862               	goto	u5870
  3616     1061                     u5871:
  3617     1061  285E               	goto	l139
  3618     1062                     u5870:
  3619     1062                     l141:
  3620                           
  3621                           ;PWM_SERVO1.c: 27:     PIR1bits.TMR2IF = 0;
  3622     1062  108C               	bcf	12,1	;volatile
  3623     1063                     l3478:
  3624                           
  3625                           ;PWM_SERVO1.c: 28:     if (canal == 1)
  3626     1063  1683               	bsf	3,5	;RP0=1, select bank3
  3627     1064  1703               	bsf	3,6	;RP1=1, select bank3
  3628     1065  034B               	decf	PWM_config@canal^(0+384),w
  3629     1066  1D03               	btfss	3,2
  3630     1067  2869               	goto	u5881
  3631     1068  286A               	goto	u5880
  3632     1069                     u5881:
  3633     1069  286E               	goto	l142
  3634     106A                     u5880:
  3635     106A                     l3480:
  3636                           
  3637                           ;PWM_SERVO1.c: 29:         TRISCbits.TRISC2 = 0;
  3638     106A  1683               	bsf	3,5	;RP0=1, select bank1
  3639     106B  1303               	bcf	3,6	;RP1=0, select bank1
  3640     106C  1107               	bcf	7,2	;volatile
  3641     106D  2871               	goto	l144
  3642     106E                     l142:	
  3643                           ;PWM_SERVO1.c: 30:     else
  3644                           
  3645                           
  3646                           ;PWM_SERVO1.c: 31:         TRISCbits.TRISC1 = 0;
  3647     106E  1683               	bsf	3,5	;RP0=1, select bank1
  3648     106F  1303               	bcf	3,6	;RP1=0, select bank1
  3649     1070  1087               	bcf	7,1	;volatile
  3650     1071                     l144:
  3651     1071  0008               	return
  3652     1072                     __end_of_PWM_config:
  3653                           
  3654                           	psect	text6
  3655     1100                     __ptext6:	
  3656 ;; *************** function ___fltol *****************
  3657 ;; Defined at:
  3658 ;;		line 43 in file "C:\Program Files\Microchip\xc8\v2.40\pic\sources\c90\common\fltol.c"
  3659 ;; Parameters:    Size  Location     Type
  3660 ;;  f1              4   47[BANK3 ] void 
  3661 ;; Auto vars:     Size  Location     Type
  3662 ;;  exp1            1   45[BANK1 ] unsigned char 
  3663 ;;  sign1           1   44[BANK1 ] unsigned char 
  3664 ;; Return value:  Size  Location     Type
  3665 ;;                  4   47[BANK3 ] long 
  3666 ;; Registers used:
  3667 ;;		wreg, status,2, status,0
  3668 ;; Tracked objects:
  3669 ;;		On entry : 0/0
  3670 ;;		On exit  : 0/0
  3671 ;;		Unchanged: 0/0
  3672 ;; Data sizes:     COMMON   BANK0   BANK1   BANK3   BANK2
  3673 ;;      Params:         0       0       0       4       0
  3674 ;;      Locals:         0       0       2       0       0
  3675 ;;      Temps:          0       0       0       4       0
  3676 ;;      Totals:         0       0       2       8       0
  3677 ;;Total ram usage:       10 bytes
  3678 ;; Hardware stack levels used: 1
  3679 ;; Hardware stack levels required when called: 4
  3680 ;; This function calls:
  3681 ;;		Nothing
  3682 ;; This function is called by:
  3683 ;;		_main
  3684 ;;		_PWM_config
  3685 ;;		_PWM_duty
  3686 ;; This function uses a non-reentrant model
  3687 ;;
  3688                           
  3689     1100                     ___fltol:	
  3690                           ;psect for function ___fltol
  3691                           
  3692     1100                     l3106:	
  3693                           ;incstack = 0
  3694                           ; Regs used in ___fltol: [wreg+status,2+status,0]
  3695                           
  3696     1100  1003               	clrc
  3697     1101  1683               	bsf	3,5	;RP0=1, select bank3
  3698     1102  1703               	bsf	3,6	;RP1=1, select bank3
  3699     1103  0D41               	rlf	(___fltol@f1+2)^(0+384),w
  3700     1104  0D42               	rlf	(___fltol@f1+3)^(0+384),w
  3701     1105  1683               	bsf	3,5	;RP0=1, select bank1
  3702     1106  1303               	bcf	3,6	;RP1=0, select bank1
  3703     1107  00CD               	movwf	___fltol@exp1^(0+128)
  3704     1108  084D               	movf	___fltol@exp1^(0+128),w
  3705     1109  1D03               	btfss	3,2
  3706     110A  290C               	goto	u5071
  3707     110B  290D               	goto	u5070
  3708     110C                     u5071:
  3709     110C  2918               	goto	l3112
  3710     110D                     u5070:
  3711     110D                     l3108:
  3712     110D  3000               	movlw	0
  3713     110E  1683               	bsf	3,5	;RP0=1, select bank3
  3714     110F  1703               	bsf	3,6	;RP1=1, select bank3
  3715     1110  00C2               	movwf	(?___fltol+3)^(0+384)
  3716     1111  3000               	movlw	0
  3717     1112  00C1               	movwf	(?___fltol+2)^(0+384)
  3718     1113  3000               	movlw	0
  3719     1114  00C0               	movwf	(?___fltol+1)^(0+384)
  3720     1115  3000               	movlw	0
  3721     1116  00BF               	movwf	?___fltol^(0+384)
  3722     1117  298D               	goto	l422
  3723     1118                     l3112:
  3724     1118  1683               	bsf	3,5	;RP0=1, select bank3
  3725     1119  1703               	bsf	3,6	;RP1=1, select bank3
  3726     111A  083F               	movf	___fltol@f1^(0+384),w
  3727     111B  00C3               	movwf	??___fltol^(0+384)
  3728     111C  0840               	movf	(___fltol@f1+1)^(0+384),w
  3729     111D  00C4               	movwf	(??___fltol^(0+384)+1)
  3730     111E  0841               	movf	(___fltol@f1+2)^(0+384),w
  3731     111F  00C5               	movwf	(??___fltol^(0+384)+2)
  3732     1120  0842               	movf	(___fltol@f1+3)^(0+384),w
  3733     1121  00C6               	movwf	(??___fltol^(0+384)+3)
  3734     1122  301F               	movlw	31
  3735     1123                     u5085:
  3736     1123  1003               	clrc
  3737     1124  0CC6               	rrf	(??___fltol^(0+384)+3),f
  3738     1125  0CC5               	rrf	(??___fltol^(0+384)+2),f
  3739     1126  0CC4               	rrf	(??___fltol^(0+384)+1),f
  3740     1127  0CC3               	rrf	??___fltol^(0+384),f
  3741     1128                     u5080:
  3742     1128  3EFF               	addlw	-1
  3743     1129  1D03               	skipz
  3744     112A  2923               	goto	u5085
  3745     112B  0843               	movf	??___fltol^(0+384),w
  3746     112C  1683               	bsf	3,5	;RP0=1, select bank1
  3747     112D  1303               	bcf	3,6	;RP1=0, select bank1
  3748     112E  00CC               	movwf	___fltol@sign1^(0+128)
  3749     112F                     l3114:
  3750     112F  1683               	bsf	3,5	;RP0=1, select bank3
  3751     1130  1703               	bsf	3,6	;RP1=1, select bank3
  3752     1131  17C1               	bsf	(___fltol@f1^(0+384)+2),7
  3753     1132                     l3116:
  3754     1132  30FF               	movlw	255
  3755     1133  05BF               	andwf	___fltol@f1^(0+384),f
  3756     1134  30FF               	movlw	255
  3757     1135  05C0               	andwf	(___fltol@f1+1)^(0+384),f
  3758     1136  30FF               	movlw	255
  3759     1137  05C1               	andwf	(___fltol@f1+2)^(0+384),f
  3760     1138  3000               	movlw	0
  3761     1139  05C2               	andwf	(___fltol@f1+3)^(0+384),f
  3762     113A                     l3118:
  3763     113A  3096               	movlw	150
  3764     113B  1683               	bsf	3,5	;RP0=1, select bank1
  3765     113C  1303               	bcf	3,6	;RP1=0, select bank1
  3766     113D  02CD               	subwf	___fltol@exp1^(0+128),f
  3767     113E                     l3120:
  3768     113E  1FCD               	btfss	___fltol@exp1^(0+128),7
  3769     113F  2941               	goto	u5091
  3770     1140  2942               	goto	u5090
  3771     1141                     u5091:
  3772     1141  2960               	goto	l3130
  3773     1142                     u5090:
  3774     1142                     l3122:
  3775     1142  084D               	movf	___fltol@exp1^(0+128),w
  3776     1143  3A80               	xorlw	128
  3777     1144  3E97               	addlw	151
  3778     1145  1803               	skipnc
  3779     1146  2948               	goto	u5101
  3780     1147  2949               	goto	u5100
  3781     1148                     u5101:
  3782     1148  294A               	goto	l3128
  3783     1149                     u5100:
  3784     1149  290D               	goto	l3108
  3785     114A                     l3128:
  3786     114A  3001               	movlw	1
  3787     114B                     u5115:
  3788     114B  1003               	clrc
  3789     114C  1683               	bsf	3,5	;RP0=1, select bank3
  3790     114D  1703               	bsf	3,6	;RP1=1, select bank3
  3791     114E  0CC2               	rrf	(___fltol@f1+3)^(0+384),f
  3792     114F  0CC1               	rrf	(___fltol@f1+2)^(0+384),f
  3793     1150  0CC0               	rrf	(___fltol@f1+1)^(0+384),f
  3794     1151  0CBF               	rrf	___fltol@f1^(0+384),f
  3795     1152  3EFF               	addlw	-1
  3796     1153  1D03               	skipz
  3797     1154  294B               	goto	u5115
  3798     1155  3001               	movlw	1
  3799     1156  00C3               	movwf	??___fltol^(0+384)
  3800     1157  0843               	movf	??___fltol^(0+384),w
  3801     1158  1683               	bsf	3,5	;RP0=1, select bank1
  3802     1159  1303               	bcf	3,6	;RP1=0, select bank1
  3803     115A  07CD               	addwf	___fltol@exp1^(0+128),f
  3804     115B  1D03               	btfss	3,2
  3805     115C  295E               	goto	u5121
  3806     115D  295F               	goto	u5120
  3807     115E                     u5121:
  3808     115E  294A               	goto	l3128
  3809     115F                     u5120:
  3810     115F  297B               	goto	l3138
  3811     1160                     l3130:
  3812     1160  3020               	movlw	32
  3813     1161  024D               	subwf	___fltol@exp1^(0+128),w
  3814     1162  1C03               	skipc
  3815     1163  2965               	goto	u5131
  3816     1164  2966               	goto	u5130
  3817     1165                     u5131:
  3818     1165  2976               	goto	l429
  3819     1166                     u5130:
  3820     1166  290D               	goto	l3108
  3821     1167                     l3136:
  3822     1167  3001               	movlw	1
  3823     1168  1683               	bsf	3,5	;RP0=1, select bank3
  3824     1169  1703               	bsf	3,6	;RP1=1, select bank3
  3825     116A  00C3               	movwf	??___fltol^(0+384)
  3826     116B                     u5145:
  3827     116B  1003               	clrc
  3828     116C  0DBF               	rlf	___fltol@f1^(0+384),f
  3829     116D  0DC0               	rlf	(___fltol@f1+1)^(0+384),f
  3830     116E  0DC1               	rlf	(___fltol@f1+2)^(0+384),f
  3831     116F  0DC2               	rlf	(___fltol@f1+3)^(0+384),f
  3832     1170  0BC3               	decfsz	??___fltol^(0+384),f
  3833     1171  296B               	goto	u5145
  3834     1172  3001               	movlw	1
  3835     1173  1683               	bsf	3,5	;RP0=1, select bank1
  3836     1174  1303               	bcf	3,6	;RP1=0, select bank1
  3837     1175  02CD               	subwf	___fltol@exp1^(0+128),f
  3838     1176                     l429:
  3839     1176  084D               	movf	___fltol@exp1^(0+128),w
  3840     1177  1D03               	btfss	3,2
  3841     1178  297A               	goto	u5151
  3842     1179  297B               	goto	u5150
  3843     117A                     u5151:
  3844     117A  2967               	goto	l3136
  3845     117B                     u5150:
  3846     117B                     l3138:
  3847     117B  084C               	movf	___fltol@sign1^(0+128),w
  3848     117C  1903               	btfsc	3,2
  3849     117D  297F               	goto	u5161
  3850     117E  2980               	goto	u5160
  3851     117F                     u5161:
  3852     117F  298D               	goto	l432
  3853     1180                     u5160:
  3854     1180                     l3140:
  3855     1180  1683               	bsf	3,5	;RP0=1, select bank3
  3856     1181  1703               	bsf	3,6	;RP1=1, select bank3
  3857     1182  09BF               	comf	___fltol@f1^(0+384),f
  3858     1183  09C0               	comf	(___fltol@f1+1)^(0+384),f
  3859     1184  09C1               	comf	(___fltol@f1+2)^(0+384),f
  3860     1185  09C2               	comf	(___fltol@f1+3)^(0+384),f
  3861     1186  0ABF               	incf	___fltol@f1^(0+384),f
  3862     1187  1903               	skipnz
  3863     1188  0AC0               	incf	(___fltol@f1+1)^(0+384),f
  3864     1189  1903               	skipnz
  3865     118A  0AC1               	incf	(___fltol@f1+2)^(0+384),f
  3866     118B  1903               	skipnz
  3867     118C  0AC2               	incf	(___fltol@f1+3)^(0+384),f
  3868     118D                     l432:
  3869     118D                     l422:
  3870     118D  0008               	return
  3871     118E                     __end_of___fltol:
  3872                           
  3873                           	psect	text7
  3874     08E4                     __ptext7:	
  3875 ;; *************** function ___fldiv *****************
  3876 ;; Defined at:
  3877 ;;		line 8 in file "C:\Program Files\Microchip\xc8\v2.40\pic\sources\c90\common\sprcdiv.c"
  3878 ;; Parameters:    Size  Location     Type
  3879 ;;  a               4   21[BANK3 ] long 
  3880 ;;  b               4   25[BANK3 ] long 
  3881 ;; Auto vars:     Size  Location     Type
  3882 ;;  grs             4   41[BANK3 ] unsigned long 
  3883 ;;  rem             4   34[BANK3 ] unsigned long 
  3884 ;;  new_exp         2   39[BANK3 ] int 
  3885 ;;  aexp            1   46[BANK3 ] unsigned char 
  3886 ;;  bexp            1   45[BANK3 ] unsigned char 
  3887 ;;  sign            1   38[BANK3 ] unsigned char 
  3888 ;; Return value:  Size  Location     Type
  3889 ;;                  4   21[BANK3 ] unsigned char 
  3890 ;; Registers used:
  3891 ;;		wreg, status,2, status,0, btemp+1
  3892 ;; Tracked objects:
  3893 ;;		On entry : 0/0
  3894 ;;		On exit  : 0/0
  3895 ;;		Unchanged: 0/0
  3896 ;; Data sizes:     COMMON   BANK0   BANK1   BANK3   BANK2
  3897 ;;      Params:         0       0       0       8       0
  3898 ;;      Locals:         0       0       0      13       0
  3899 ;;      Temps:          0       0       0       5       0
  3900 ;;      Totals:         0       0       0      26       0
  3901 ;;Total ram usage:       26 bytes
  3902 ;; Hardware stack levels used: 1
  3903 ;; Hardware stack levels required when called: 4
  3904 ;; This function calls:
  3905 ;;		Nothing
  3906 ;; This function is called by:
  3907 ;;		_main
  3908 ;;		_PWM_config
  3909 ;;		_PWM_duty
  3910 ;; This function uses a non-reentrant model
  3911 ;;
  3912                           
  3913     08E4                     ___fldiv:	
  3914                           ;psect for function ___fldiv
  3915                           
  3916     08E4                     l3142:	
  3917                           ;incstack = 0
  3918                           ; Regs used in ___fldiv: [wreg+status,2+status,0+btemp+1]
  3919                           
  3920     08E4  1683               	bsf	3,5	;RP0=1, select bank3
  3921     08E5  1703               	bsf	3,6	;RP1=1, select bank3
  3922     08E6  082C               	movf	(___fldiv@b^(0+384)+3),w
  3923     08E7  3980               	andlw	128
  3924     08E8  00B6               	movwf	___fldiv@sign^(0+384)
  3925     08E9                     l3144:
  3926     08E9  082C               	movf	(___fldiv@b^(0+384)+3),w
  3927     08EA  00AD               	movwf	??___fldiv^(0+384)
  3928     08EB  072D               	addwf	??___fldiv^(0+384),w
  3929     08EC  00BD               	movwf	___fldiv@bexp^(0+384)
  3930     08ED                     l3146:
  3931     08ED  1FAB               	btfss	(___fldiv@b^(0+384)+2),7
  3932     08EE  28F0               	goto	u5171
  3933     08EF  28F1               	goto	u5170
  3934     08F0                     u5171:
  3935     08F0  28F2               	goto	l3150
  3936     08F1                     u5170:
  3937     08F1                     l3148:
  3938     08F1  143D               	bsf	___fldiv@bexp^(0+384),0
  3939     08F2                     l3150:
  3940     08F2  083D               	movf	___fldiv@bexp^(0+384),w
  3941     08F3  1903               	btfsc	3,2
  3942     08F4  28F6               	goto	u5181
  3943     08F5  28F7               	goto	u5180
  3944     08F6                     u5181:
  3945     08F6  2907               	goto	l3160
  3946     08F7                     u5180:
  3947     08F7                     l3152:
  3948     08F7  0A3D               	incf	___fldiv@bexp^(0+384),w
  3949     08F8  1D03               	btfss	3,2
  3950     08F9  28FB               	goto	u5191
  3951     08FA  28FC               	goto	u5190
  3952     08FB                     u5191:
  3953     08FB  2904               	goto	l3156
  3954     08FC                     u5190:
  3955     08FC                     l3154:
  3956     08FC  3000               	movlw	0
  3957     08FD  00AC               	movwf	(___fldiv@b+3)^(0+384)
  3958     08FE  3000               	movlw	0
  3959     08FF  00AB               	movwf	(___fldiv@b+2)^(0+384)
  3960     0900  3000               	movlw	0
  3961     0901  00AA               	movwf	(___fldiv@b+1)^(0+384)
  3962     0902  3000               	movlw	0
  3963     0903  00A9               	movwf	___fldiv@b^(0+384)
  3964     0904                     l3156:
  3965     0904  17AB               	bsf	(___fldiv@b^(0+384)+2),7
  3966     0905                     l3158:
  3967     0905  01AC               	clrf	(___fldiv@b^(0+384)+3)
  3968     0906  290F               	goto	l3162
  3969     0907                     l3160:
  3970     0907  3000               	movlw	0
  3971     0908  00AC               	movwf	(___fldiv@b+3)^(0+384)
  3972     0909  3000               	movlw	0
  3973     090A  00AB               	movwf	(___fldiv@b+2)^(0+384)
  3974     090B  3000               	movlw	0
  3975     090C  00AA               	movwf	(___fldiv@b+1)^(0+384)
  3976     090D  3000               	movlw	0
  3977     090E  00A9               	movwf	___fldiv@b^(0+384)
  3978     090F                     l3162:
  3979     090F  0828               	movf	(___fldiv@a^(0+384)+3),w
  3980     0910  3980               	andlw	128
  3981     0911  00AD               	movwf	??___fldiv^(0+384)
  3982     0912  082D               	movf	??___fldiv^(0+384),w
  3983     0913  06B6               	xorwf	___fldiv@sign^(0+384),f
  3984     0914                     l3164:
  3985     0914  0828               	movf	(___fldiv@a^(0+384)+3),w
  3986     0915  00AD               	movwf	??___fldiv^(0+384)
  3987     0916  072D               	addwf	??___fldiv^(0+384),w
  3988     0917  00BE               	movwf	___fldiv@aexp^(0+384)
  3989     0918                     l3166:
  3990     0918  1FA7               	btfss	(___fldiv@a^(0+384)+2),7
  3991     0919  291B               	goto	u5201
  3992     091A  291C               	goto	u5200
  3993     091B                     u5201:
  3994     091B  291D               	goto	l3170
  3995     091C                     u5200:
  3996     091C                     l3168:
  3997     091C  143E               	bsf	___fldiv@aexp^(0+384),0
  3998     091D                     l3170:
  3999     091D  083E               	movf	___fldiv@aexp^(0+384),w
  4000     091E  1903               	btfsc	3,2
  4001     091F  2921               	goto	u5211
  4002     0920  2922               	goto	u5210
  4003     0921                     u5211:
  4004     0921  2932               	goto	l3180
  4005     0922                     u5210:
  4006     0922                     l3172:
  4007     0922  0A3E               	incf	___fldiv@aexp^(0+384),w
  4008     0923  1D03               	btfss	3,2
  4009     0924  2926               	goto	u5221
  4010     0925  2927               	goto	u5220
  4011     0926                     u5221:
  4012     0926  292F               	goto	l3176
  4013     0927                     u5220:
  4014     0927                     l3174:
  4015     0927  3000               	movlw	0
  4016     0928  00A8               	movwf	(___fldiv@a+3)^(0+384)
  4017     0929  3000               	movlw	0
  4018     092A  00A7               	movwf	(___fldiv@a+2)^(0+384)
  4019     092B  3000               	movlw	0
  4020     092C  00A6               	movwf	(___fldiv@a+1)^(0+384)
  4021     092D  3000               	movlw	0
  4022     092E  00A5               	movwf	___fldiv@a^(0+384)
  4023     092F                     l3176:
  4024     092F  17A7               	bsf	(___fldiv@a^(0+384)+2),7
  4025     0930                     l3178:
  4026     0930  01A8               	clrf	(___fldiv@a^(0+384)+3)
  4027     0931  293A               	goto	l585
  4028     0932                     l3180:
  4029     0932  3000               	movlw	0
  4030     0933  00A8               	movwf	(___fldiv@a+3)^(0+384)
  4031     0934  3000               	movlw	0
  4032     0935  00A7               	movwf	(___fldiv@a+2)^(0+384)
  4033     0936  3000               	movlw	0
  4034     0937  00A6               	movwf	(___fldiv@a+1)^(0+384)
  4035     0938  3000               	movlw	0
  4036     0939  00A5               	movwf	___fldiv@a^(0+384)
  4037     093A                     l585:
  4038     093A  0828               	movf	(___fldiv@a+3)^(0+384),w
  4039     093B  0427               	iorwf	(___fldiv@a+2)^(0+384),w
  4040     093C  0426               	iorwf	(___fldiv@a+1)^(0+384),w
  4041     093D  0425               	iorwf	___fldiv@a^(0+384),w
  4042     093E  1D03               	skipz
  4043     093F  2941               	goto	u5231
  4044     0940  2942               	goto	u5230
  4045     0941                     u5231:
  4046     0941  295B               	goto	l3190
  4047     0942                     u5230:
  4048     0942                     l3182:
  4049     0942  3000               	movlw	0
  4050     0943  00AC               	movwf	(___fldiv@b+3)^(0+384)
  4051     0944  3000               	movlw	0
  4052     0945  00AB               	movwf	(___fldiv@b+2)^(0+384)
  4053     0946  3000               	movlw	0
  4054     0947  00AA               	movwf	(___fldiv@b+1)^(0+384)
  4055     0948  3000               	movlw	0
  4056     0949  00A9               	movwf	___fldiv@b^(0+384)
  4057     094A  3080               	movlw	128
  4058     094B  04AB               	iorwf	(___fldiv@b^(0+384)+2),f
  4059     094C  307F               	movlw	127
  4060     094D  04AC               	iorwf	((___fldiv@b+1)^(0+384)+2),f
  4061     094E                     l3184:
  4062     094E  0836               	movf	___fldiv@sign^(0+384),w
  4063     094F  00AD               	movwf	??___fldiv^(0+384)
  4064     0950  082D               	movf	??___fldiv^(0+384),w
  4065     0951  04AC               	iorwf	(___fldiv@b^(0+384)+3),f
  4066     0952                     l3186:
  4067     0952  082C               	movf	(___fldiv@b+3)^(0+384),w
  4068     0953  00A8               	movwf	(?___fldiv+3)^(0+384)
  4069     0954  082B               	movf	(___fldiv@b+2)^(0+384),w
  4070     0955  00A7               	movwf	(?___fldiv+2)^(0+384)
  4071     0956  082A               	movf	(___fldiv@b+1)^(0+384),w
  4072     0957  00A6               	movwf	(?___fldiv+1)^(0+384)
  4073     0958  0829               	movf	___fldiv@b^(0+384),w
  4074     0959  00A5               	movwf	?___fldiv^(0+384)
  4075     095A  2AB6               	goto	l587
  4076     095B                     l3190:
  4077     095B  083D               	movf	___fldiv@bexp^(0+384),w
  4078     095C  1D03               	btfss	3,2
  4079     095D  295F               	goto	u5241
  4080     095E  2960               	goto	u5240
  4081     095F                     u5241:
  4082     095F  2969               	goto	l3196
  4083     0960                     u5240:
  4084     0960                     l3192:
  4085     0960  3000               	movlw	0
  4086     0961  00A8               	movwf	(?___fldiv+3)^(0+384)
  4087     0962  3000               	movlw	0
  4088     0963  00A7               	movwf	(?___fldiv+2)^(0+384)
  4089     0964  3000               	movlw	0
  4090     0965  00A6               	movwf	(?___fldiv+1)^(0+384)
  4091     0966  3000               	movlw	0
  4092     0967  00A5               	movwf	?___fldiv^(0+384)
  4093     0968  2AB6               	goto	l587
  4094     0969                     l3196:
  4095     0969  083D               	movf	___fldiv@bexp^(0+384),w
  4096     096A  00AD               	movwf	??___fldiv^(0+384)
  4097     096B  01AE               	clrf	(??___fldiv^(0+384)+1)
  4098     096C  082E               	movf	(??___fldiv+1)^(0+384),w
  4099     096D  00B0               	movwf	((??___fldiv+2)^(0+384)+1)
  4100     096E  083E               	movf	___fldiv@aexp^(0+384),w
  4101     096F  022D               	subwf	??___fldiv^(0+384),w
  4102     0970  00AF               	movwf	(??___fldiv+2)^(0+384)
  4103     0971  1C03               	skipc
  4104     0972  03B0               	decf	((??___fldiv+2)^(0+384)+1),f
  4105     0973  082F               	movf	(??___fldiv+2)^(0+384),w
  4106     0974  3E7F               	addlw	127
  4107     0975  00B7               	movwf	___fldiv@new_exp^(0+384)
  4108     0976  0830               	movf	(??___fldiv+3)^(0+384),w
  4109     0977  1803               	skipnc
  4110     0978  3E01               	addlw	1
  4111     0979  3E00               	addlw	0
  4112     097A  00B8               	movwf	(___fldiv@new_exp+1)^(0+384)
  4113     097B                     l3198:
  4114     097B  082C               	movf	(___fldiv@b+3)^(0+384),w
  4115     097C  00B5               	movwf	(___fldiv@rem+3)^(0+384)
  4116     097D  082B               	movf	(___fldiv@b+2)^(0+384),w
  4117     097E  00B4               	movwf	(___fldiv@rem+2)^(0+384)
  4118     097F  082A               	movf	(___fldiv@b+1)^(0+384),w
  4119     0980  00B3               	movwf	(___fldiv@rem+1)^(0+384)
  4120     0981  0829               	movf	___fldiv@b^(0+384),w
  4121     0982  00B2               	movwf	___fldiv@rem^(0+384)
  4122     0983                     l3200:
  4123     0983  3000               	movlw	0
  4124     0984  00AC               	movwf	(___fldiv@b+3)^(0+384)
  4125     0985  3000               	movlw	0
  4126     0986  00AB               	movwf	(___fldiv@b+2)^(0+384)
  4127     0987  3000               	movlw	0
  4128     0988  00AA               	movwf	(___fldiv@b+1)^(0+384)
  4129     0989  3000               	movlw	0
  4130     098A  00A9               	movwf	___fldiv@b^(0+384)
  4131     098B                     l3202:
  4132     098B  3000               	movlw	0
  4133     098C  00BC               	movwf	(___fldiv@grs+3)^(0+384)
  4134     098D  3000               	movlw	0
  4135     098E  00BB               	movwf	(___fldiv@grs+2)^(0+384)
  4136     098F  3000               	movlw	0
  4137     0990  00BA               	movwf	(___fldiv@grs+1)^(0+384)
  4138     0991  3000               	movlw	0
  4139     0992  00B9               	movwf	___fldiv@grs^(0+384)
  4140     0993                     l3204:
  4141     0993  01BE               	clrf	___fldiv@aexp^(0+384)
  4142     0994  29DF               	goto	l3224
  4143     0995                     l3206:
  4144     0995  083E               	movf	___fldiv@aexp^(0+384),w
  4145     0996  1903               	btfsc	3,2
  4146     0997  2999               	goto	u5251
  4147     0998  299A               	goto	u5250
  4148     0999                     u5251:
  4149     0999  29BA               	goto	l3216
  4150     099A                     u5250:
  4151     099A                     l3208:
  4152     099A  3001               	movlw	1
  4153     099B  00AD               	movwf	??___fldiv^(0+384)
  4154     099C                     u5265:
  4155     099C  1003               	clrc
  4156     099D  0DB2               	rlf	___fldiv@rem^(0+384),f
  4157     099E  0DB3               	rlf	(___fldiv@rem+1)^(0+384),f
  4158     099F  0DB4               	rlf	(___fldiv@rem+2)^(0+384),f
  4159     09A0  0DB5               	rlf	(___fldiv@rem+3)^(0+384),f
  4160     09A1  0BAD               	decfsz	??___fldiv^(0+384),f
  4161     09A2  299C               	goto	u5265
  4162     09A3  3001               	movlw	1
  4163     09A4  00AD               	movwf	??___fldiv^(0+384)
  4164     09A5                     u5275:
  4165     09A5  1003               	clrc
  4166     09A6  0DA9               	rlf	___fldiv@b^(0+384),f
  4167     09A7  0DAA               	rlf	(___fldiv@b+1)^(0+384),f
  4168     09A8  0DAB               	rlf	(___fldiv@b+2)^(0+384),f
  4169     09A9  0DAC               	rlf	(___fldiv@b+3)^(0+384),f
  4170     09AA  0BAD               	decfsz	??___fldiv^(0+384),f
  4171     09AB  29A5               	goto	u5275
  4172     09AC                     l3210:
  4173     09AC  1FBC               	btfss	(___fldiv@grs+3)^(0+384),7
  4174     09AD  29AF               	goto	u5281
  4175     09AE  29B0               	goto	u5280
  4176     09AF                     u5281:
  4177     09AF  29B1               	goto	l3214
  4178     09B0                     u5280:
  4179     09B0                     l3212:
  4180     09B0  1429               	bsf	___fldiv@b^(0+384),0
  4181     09B1                     l3214:
  4182     09B1  3001               	movlw	1
  4183     09B2  00AD               	movwf	??___fldiv^(0+384)
  4184     09B3                     u5295:
  4185     09B3  1003               	clrc
  4186     09B4  0DB9               	rlf	___fldiv@grs^(0+384),f
  4187     09B5  0DBA               	rlf	(___fldiv@grs+1)^(0+384),f
  4188     09B6  0DBB               	rlf	(___fldiv@grs+2)^(0+384),f
  4189     09B7  0DBC               	rlf	(___fldiv@grs+3)^(0+384),f
  4190     09B8  0BAD               	decfsz	??___fldiv^(0+384),f
  4191     09B9  29B3               	goto	u5295
  4192     09BA                     l3216:
  4193     09BA  0828               	movf	(___fldiv@a+3)^(0+384),w
  4194     09BB  0235               	subwf	(___fldiv@rem+3)^(0+384),w
  4195     09BC  1D03               	skipz
  4196     09BD  29C8               	goto	u5305
  4197     09BE  0827               	movf	(___fldiv@a+2)^(0+384),w
  4198     09BF  0234               	subwf	(___fldiv@rem+2)^(0+384),w
  4199     09C0  1D03               	skipz
  4200     09C1  29C8               	goto	u5305
  4201     09C2  0826               	movf	(___fldiv@a+1)^(0+384),w
  4202     09C3  0233               	subwf	(___fldiv@rem+1)^(0+384),w
  4203     09C4  1D03               	skipz
  4204     09C5  29C8               	goto	u5305
  4205     09C6  0825               	movf	___fldiv@a^(0+384),w
  4206     09C7  0232               	subwf	___fldiv@rem^(0+384),w
  4207     09C8                     u5305:
  4208     09C8  1C03               	skipc
  4209     09C9  29CB               	goto	u5301
  4210     09CA  29CC               	goto	u5300
  4211     09CB                     u5301:
  4212     09CB  29DB               	goto	l3222
  4213     09CC                     u5300:
  4214     09CC                     l3218:
  4215     09CC  173C               	bsf	(___fldiv@grs^(0+384)+3),6
  4216     09CD                     l3220:
  4217     09CD  0825               	movf	___fldiv@a^(0+384),w
  4218     09CE  02B2               	subwf	___fldiv@rem^(0+384),f
  4219     09CF  0826               	movf	(___fldiv@a+1)^(0+384),w
  4220     09D0  1C03               	skipc
  4221     09D1  0F26               	incfsz	(___fldiv@a+1)^(0+384),w
  4222     09D2  02B3               	subwf	(___fldiv@rem+1)^(0+384),f
  4223     09D3  0827               	movf	(___fldiv@a+2)^(0+384),w
  4224     09D4  1C03               	skipc
  4225     09D5  0F27               	incfsz	(___fldiv@a+2)^(0+384),w
  4226     09D6  02B4               	subwf	(___fldiv@rem+2)^(0+384),f
  4227     09D7  0828               	movf	(___fldiv@a+3)^(0+384),w
  4228     09D8  1C03               	skipc
  4229     09D9  0F28               	incfsz	(___fldiv@a+3)^(0+384),w
  4230     09DA  02B5               	subwf	(___fldiv@rem+3)^(0+384),f
  4231     09DB                     l3222:
  4232     09DB  3001               	movlw	1
  4233     09DC  00AD               	movwf	??___fldiv^(0+384)
  4234     09DD  082D               	movf	??___fldiv^(0+384),w
  4235     09DE  07BE               	addwf	___fldiv@aexp^(0+384),f
  4236     09DF                     l3224:
  4237     09DF  301A               	movlw	26
  4238     09E0  023E               	subwf	___fldiv@aexp^(0+384),w
  4239     09E1  1C03               	skipc
  4240     09E2  29E4               	goto	u5311
  4241     09E3  29E5               	goto	u5310
  4242     09E4                     u5311:
  4243     09E4  2995               	goto	l3206
  4244     09E5                     u5310:
  4245     09E5                     l3226:
  4246     09E5  0835               	movf	(___fldiv@rem+3)^(0+384),w
  4247     09E6  0434               	iorwf	(___fldiv@rem+2)^(0+384),w
  4248     09E7  0433               	iorwf	(___fldiv@rem+1)^(0+384),w
  4249     09E8  0432               	iorwf	___fldiv@rem^(0+384),w
  4250     09E9  1903               	skipnz
  4251     09EA  29EC               	goto	u5321
  4252     09EB  29ED               	goto	u5320
  4253     09EC                     u5321:
  4254     09EC  2A0C               	goto	l3240
  4255     09ED                     u5320:
  4256     09ED                     l3228:
  4257     09ED  1439               	bsf	___fldiv@grs^(0+384),0
  4258     09EE  2A0C               	goto	l3240
  4259     09EF                     l3230:
  4260     09EF  3001               	movlw	1
  4261     09F0  00AD               	movwf	??___fldiv^(0+384)
  4262     09F1                     u5335:
  4263     09F1  1003               	clrc
  4264     09F2  0DA9               	rlf	___fldiv@b^(0+384),f
  4265     09F3  0DAA               	rlf	(___fldiv@b+1)^(0+384),f
  4266     09F4  0DAB               	rlf	(___fldiv@b+2)^(0+384),f
  4267     09F5  0DAC               	rlf	(___fldiv@b+3)^(0+384),f
  4268     09F6  0BAD               	decfsz	??___fldiv^(0+384),f
  4269     09F7  29F1               	goto	u5335
  4270     09F8                     l3232:
  4271     09F8  1FBC               	btfss	(___fldiv@grs+3)^(0+384),7
  4272     09F9  29FB               	goto	u5341
  4273     09FA  29FC               	goto	u5340
  4274     09FB                     u5341:
  4275     09FB  29FD               	goto	l3236
  4276     09FC                     u5340:
  4277     09FC                     l3234:
  4278     09FC  1429               	bsf	___fldiv@b^(0+384),0
  4279     09FD                     l3236:
  4280     09FD  3001               	movlw	1
  4281     09FE  00AD               	movwf	??___fldiv^(0+384)
  4282     09FF                     u5355:
  4283     09FF  1003               	clrc
  4284     0A00  0DB9               	rlf	___fldiv@grs^(0+384),f
  4285     0A01  0DBA               	rlf	(___fldiv@grs+1)^(0+384),f
  4286     0A02  0DBB               	rlf	(___fldiv@grs+2)^(0+384),f
  4287     0A03  0DBC               	rlf	(___fldiv@grs+3)^(0+384),f
  4288     0A04  0BAD               	decfsz	??___fldiv^(0+384),f
  4289     0A05  29FF               	goto	u5355
  4290     0A06                     l3238:
  4291     0A06  30FF               	movlw	255
  4292     0A07  07B7               	addwf	___fldiv@new_exp^(0+384),f
  4293     0A08  1803               	skipnc
  4294     0A09  0AB8               	incf	(___fldiv@new_exp+1)^(0+384),f
  4295     0A0A  30FF               	movlw	255
  4296     0A0B  07B8               	addwf	(___fldiv@new_exp+1)^(0+384),f
  4297     0A0C                     l3240:
  4298     0A0C  1FAB               	btfss	(___fldiv@b+2)^(0+384),7
  4299     0A0D  2A0F               	goto	u5361
  4300     0A0E  2A10               	goto	u5360
  4301     0A0F                     u5361:
  4302     0A0F  29EF               	goto	l3230
  4303     0A10                     u5360:
  4304     0A10                     l3242:
  4305     0A10  01BE               	clrf	___fldiv@aexp^(0+384)
  4306     0A11                     l3244:
  4307     0A11  1FBC               	btfss	(___fldiv@grs+3)^(0+384),7
  4308     0A12  2A14               	goto	u5371
  4309     0A13  2A15               	goto	u5370
  4310     0A14                     u5371:
  4311     0A14  2A31               	goto	l3252
  4312     0A15                     u5370:
  4313     0A15                     l3246:
  4314     0A15  30FF               	movlw	255
  4315     0A16  0539               	andwf	___fldiv@grs^(0+384),w
  4316     0A17  00AD               	movwf	??___fldiv^(0+384)
  4317     0A18  30FF               	movlw	255
  4318     0A19  053A               	andwf	(___fldiv@grs+1)^(0+384),w
  4319     0A1A  00AE               	movwf	(??___fldiv^(0+384)+1)
  4320     0A1B  30FF               	movlw	255
  4321     0A1C  053B               	andwf	(___fldiv@grs+2)^(0+384),w
  4322     0A1D  00AF               	movwf	(??___fldiv^(0+384)+2)
  4323     0A1E  307F               	movlw	127
  4324     0A1F  053C               	andwf	(___fldiv@grs+3)^(0+384),w
  4325     0A20  00B0               	movwf	(??___fldiv^(0+384)+3)
  4326     0A21  0830               	movf	(??___fldiv+3)^(0+384),w
  4327     0A22  042F               	iorwf	(??___fldiv+2)^(0+384),w
  4328     0A23  042E               	iorwf	(??___fldiv+1)^(0+384),w
  4329     0A24  042D               	iorwf	??___fldiv^(0+384),w
  4330     0A25  1903               	skipnz
  4331     0A26  2A28               	goto	u5381
  4332     0A27  2A29               	goto	u5380
  4333     0A28                     u5381:
  4334     0A28  2A2C               	goto	l601
  4335     0A29                     u5380:
  4336     0A29                     l3248:
  4337     0A29  01BE               	clrf	___fldiv@aexp^(0+384)
  4338     0A2A  0ABE               	incf	___fldiv@aexp^(0+384),f
  4339     0A2B  2A31               	goto	l3252
  4340     0A2C                     l601:
  4341     0A2C  1C29               	btfss	___fldiv@b^(0+384),0
  4342     0A2D  2A2F               	goto	u5391
  4343     0A2E  2A30               	goto	u5390
  4344     0A2F                     u5391:
  4345     0A2F  2A31               	goto	l3252
  4346     0A30                     u5390:
  4347     0A30  2A29               	goto	l3248
  4348     0A31                     l3252:
  4349     0A31  083E               	movf	___fldiv@aexp^(0+384),w
  4350     0A32  1903               	btfsc	3,2
  4351     0A33  2A35               	goto	u5401
  4352     0A34  2A36               	goto	u5400
  4353     0A35                     u5401:
  4354     0A35  2A67               	goto	l3262
  4355     0A36                     u5400:
  4356     0A36                     l3254:
  4357     0A36  3001               	movlw	1
  4358     0A37  07A9               	addwf	___fldiv@b^(0+384),f
  4359     0A38  3000               	movlw	0
  4360     0A39  1803               	skipnc
  4361     0A3A  3001               	movlw	1
  4362     0A3B  07AA               	addwf	(___fldiv@b+1)^(0+384),f
  4363     0A3C  3000               	movlw	0
  4364     0A3D  1803               	skipnc
  4365     0A3E  3001               	movlw	1
  4366     0A3F  07AB               	addwf	(___fldiv@b+2)^(0+384),f
  4367     0A40  3000               	movlw	0
  4368     0A41  1803               	skipnc
  4369     0A42  3001               	movlw	1
  4370     0A43  07AC               	addwf	(___fldiv@b+3)^(0+384),f
  4371     0A44                     l3256:
  4372     0A44  1C2C               	btfss	(___fldiv@b+3)^(0+384),0
  4373     0A45  2A47               	goto	u5411
  4374     0A46  2A48               	goto	u5410
  4375     0A47                     u5411:
  4376     0A47  2A67               	goto	l3262
  4377     0A48                     u5410:
  4378     0A48                     l3258:
  4379     0A48  0829               	movf	___fldiv@b^(0+384),w
  4380     0A49  00AD               	movwf	??___fldiv^(0+384)
  4381     0A4A  082A               	movf	(___fldiv@b+1)^(0+384),w
  4382     0A4B  00AE               	movwf	(??___fldiv^(0+384)+1)
  4383     0A4C  082B               	movf	(___fldiv@b+2)^(0+384),w
  4384     0A4D  00AF               	movwf	(??___fldiv^(0+384)+2)
  4385     0A4E  082C               	movf	(___fldiv@b+3)^(0+384),w
  4386     0A4F  00B0               	movwf	(??___fldiv^(0+384)+3)
  4387     0A50  3001               	movlw	1
  4388     0A51  00B1               	movwf	(??___fldiv+4)^(0+384)
  4389     0A52                     u5425:
  4390     0A52  0D30               	rlf	(??___fldiv^(0+384)+3),w
  4391     0A53  0CB0               	rrf	(??___fldiv^(0+384)+3),f
  4392     0A54  0CAF               	rrf	(??___fldiv^(0+384)+2),f
  4393     0A55  0CAE               	rrf	(??___fldiv^(0+384)+1),f
  4394     0A56  0CAD               	rrf	??___fldiv^(0+384),f
  4395     0A57                     u5420:
  4396     0A57  0BB1               	decfsz	(??___fldiv+4)^(0+384),f
  4397     0A58  2A52               	goto	u5425
  4398     0A59  0830               	movf	(??___fldiv+3)^(0+384),w
  4399     0A5A  00AC               	movwf	(___fldiv@b+3)^(0+384)
  4400     0A5B  082F               	movf	(??___fldiv+2)^(0+384),w
  4401     0A5C  00AB               	movwf	(___fldiv@b+2)^(0+384)
  4402     0A5D  082E               	movf	(??___fldiv+1)^(0+384),w
  4403     0A5E  00AA               	movwf	(___fldiv@b+1)^(0+384)
  4404     0A5F  082D               	movf	??___fldiv^(0+384),w
  4405     0A60  00A9               	movwf	___fldiv@b^(0+384)
  4406     0A61                     l3260:
  4407     0A61  3001               	movlw	1
  4408     0A62  07B7               	addwf	___fldiv@new_exp^(0+384),f
  4409     0A63  1803               	skipnc
  4410     0A64  0AB8               	incf	(___fldiv@new_exp+1)^(0+384),f
  4411     0A65  3000               	movlw	0
  4412     0A66  07B8               	addwf	(___fldiv@new_exp+1)^(0+384),f
  4413     0A67                     l3262:
  4414     0A67  0838               	movf	(___fldiv@new_exp+1)^(0+384),w
  4415     0A68  3A80               	xorlw	128
  4416     0A69  00FF               	movwf	btemp+1
  4417     0A6A  3080               	movlw	128
  4418     0A6B  027F               	subwf	btemp+1,w
  4419     0A6C  1D03               	skipz
  4420     0A6D  2A70               	goto	u5435
  4421     0A6E  30FF               	movlw	255
  4422     0A6F  0237               	subwf	___fldiv@new_exp^(0+384),w
  4423     0A70                     u5435:
  4424     0A70  1C03               	skipc
  4425     0A71  2A73               	goto	u5431
  4426     0A72  2A74               	goto	u5430
  4427     0A73                     u5431:
  4428     0A73  2A82               	goto	l3266
  4429     0A74                     u5430:
  4430     0A74                     l3264:
  4431     0A74  30FF               	movlw	255
  4432     0A75  1683               	bsf	3,5	;RP0=1, select bank3
  4433     0A76  1703               	bsf	3,6	;RP1=1, select bank3
  4434     0A77  00B7               	movwf	___fldiv@new_exp^(0+384)
  4435     0A78  3000               	movlw	0
  4436     0A79  00B8               	movwf	(___fldiv@new_exp^(0+384)+1)
  4437     0A7A  3000               	movlw	0
  4438     0A7B  00AC               	movwf	(___fldiv@b+3)^(0+384)
  4439     0A7C  3000               	movlw	0
  4440     0A7D  00AB               	movwf	(___fldiv@b+2)^(0+384)
  4441     0A7E  3000               	movlw	0
  4442     0A7F  00AA               	movwf	(___fldiv@b+1)^(0+384)
  4443     0A80  3000               	movlw	0
  4444     0A81  00A9               	movwf	___fldiv@b^(0+384)
  4445     0A82                     l3266:
  4446     0A82  1683               	bsf	3,5	;RP0=1, select bank3
  4447     0A83  1703               	bsf	3,6	;RP1=1, select bank3
  4448     0A84  0838               	movf	(___fldiv@new_exp+1)^(0+384),w
  4449     0A85  3A80               	xorlw	128
  4450     0A86  00FF               	movwf	btemp+1
  4451     0A87  3080               	movlw	128
  4452     0A88  027F               	subwf	btemp+1,w
  4453     0A89  1D03               	skipz
  4454     0A8A  2A8D               	goto	u5445
  4455     0A8B  3001               	movlw	1
  4456     0A8C  0237               	subwf	___fldiv@new_exp^(0+384),w
  4457     0A8D                     u5445:
  4458     0A8D  1803               	skipnc
  4459     0A8E  2A90               	goto	u5441
  4460     0A8F  2A91               	goto	u5440
  4461     0A90                     u5441:
  4462     0A90  2A9E               	goto	l607
  4463     0A91                     u5440:
  4464     0A91                     l3268:
  4465     0A91  1683               	bsf	3,5	;RP0=1, select bank3
  4466     0A92  1703               	bsf	3,6	;RP1=1, select bank3
  4467     0A93  01B7               	clrf	___fldiv@new_exp^(0+384)
  4468     0A94  01B8               	clrf	(___fldiv@new_exp+1)^(0+384)
  4469     0A95                     l3270:
  4470     0A95  3000               	movlw	0
  4471     0A96  00AC               	movwf	(___fldiv@b+3)^(0+384)
  4472     0A97  3000               	movlw	0
  4473     0A98  00AB               	movwf	(___fldiv@b+2)^(0+384)
  4474     0A99  3000               	movlw	0
  4475     0A9A  00AA               	movwf	(___fldiv@b+1)^(0+384)
  4476     0A9B  3000               	movlw	0
  4477     0A9C  00A9               	movwf	___fldiv@b^(0+384)
  4478     0A9D                     l3272:
  4479     0A9D  01B6               	clrf	___fldiv@sign^(0+384)
  4480     0A9E                     l607:
  4481     0A9E  1683               	bsf	3,5	;RP0=1, select bank3
  4482     0A9F  1703               	bsf	3,6	;RP1=1, select bank3
  4483     0AA0  0837               	movf	___fldiv@new_exp^(0+384),w
  4484     0AA1  00BD               	movwf	___fldiv@bexp^(0+384)
  4485     0AA2                     l3274:
  4486     0AA2  1C3D               	btfss	___fldiv@bexp^(0+384),0
  4487     0AA3  2AA5               	goto	u5451
  4488     0AA4  2AA6               	goto	u5450
  4489     0AA5                     u5451:
  4490     0AA5  2AA8               	goto	l3278
  4491     0AA6                     u5450:
  4492     0AA6                     l3276:
  4493     0AA6  17AB               	bsf	(___fldiv@b^(0+384)+2),7
  4494     0AA7  2AAC               	goto	l609
  4495     0AA8                     l3278:
  4496     0AA8  307F               	movlw	127
  4497     0AA9  00AD               	movwf	??___fldiv^(0+384)
  4498     0AAA  082D               	movf	??___fldiv^(0+384),w
  4499     0AAB  05AB               	andwf	(___fldiv@b^(0+384)+2),f
  4500     0AAC                     l609:
  4501     0AAC  083D               	movf	___fldiv@bexp^(0+384),w
  4502     0AAD  00AD               	movwf	??___fldiv^(0+384)
  4503     0AAE  1003               	clrc
  4504     0AAF  0C2D               	rrf	??___fldiv^(0+384),w
  4505     0AB0  00AC               	movwf	(___fldiv@b^(0+384)+3)
  4506     0AB1  0836               	movf	___fldiv@sign^(0+384),w
  4507     0AB2  00AD               	movwf	??___fldiv^(0+384)
  4508     0AB3  082D               	movf	??___fldiv^(0+384),w
  4509     0AB4  04AC               	iorwf	(___fldiv@b^(0+384)+3),f
  4510     0AB5  2952               	goto	l3186
  4511     0AB6                     l587:
  4512     0AB6  0008               	return
  4513     0AB7                     __end_of___fldiv:
  4514                           
  4515                           	psect	text8
  4516     082A                     __ptext8:	
  4517 ;; *************** function ___xxtofl *****************
  4518 ;; Defined at:
  4519 ;;		line 10 in file "C:\Program Files\Microchip\xc8\v2.40\pic\sources\c90\common\xxtofl.c"
  4520 ;; Parameters:    Size  Location     Type
  4521 ;;  sign            1    wreg     unsigned char 
  4522 ;;  val             4   25[BANK1 ] long 
  4523 ;; Auto vars:     Size  Location     Type
  4524 ;;  sign            1   33[BANK1 ] unsigned char 
  4525 ;;  arg             4   35[BANK1 ] unsigned long 
  4526 ;;  exp             1   34[BANK1 ] unsigned char 
  4527 ;; Return value:  Size  Location     Type
  4528 ;;                  4   25[BANK1 ] unsigned char 
  4529 ;; Registers used:
  4530 ;;		wreg, status,2, status,0
  4531 ;; Tracked objects:
  4532 ;;		On entry : 0/0
  4533 ;;		On exit  : 0/0
  4534 ;;		Unchanged: 0/0
  4535 ;; Data sizes:     COMMON   BANK0   BANK1   BANK3   BANK2
  4536 ;;      Params:         0       0       4       0       0
  4537 ;;      Locals:         0       0       6       0       0
  4538 ;;      Temps:          0       0       4       0       0
  4539 ;;      Totals:         0       0      14       0       0
  4540 ;;Total ram usage:       14 bytes
  4541 ;; Hardware stack levels used: 1
  4542 ;; Hardware stack levels required when called: 4
  4543 ;; This function calls:
  4544 ;;		Nothing
  4545 ;; This function is called by:
  4546 ;;		_main
  4547 ;; This function uses a non-reentrant model
  4548 ;;
  4549                           
  4550     082A                     ___xxtofl:	
  4551                           ;psect for function ___xxtofl
  4552                           
  4553                           
  4554                           ;incstack = 0
  4555                           ; Regs used in ___xxtofl: [wreg+status,2+status,0]
  4556                           ;___xxtofl@sign stored from wreg
  4557     082A  1683               	bsf	3,5	;RP0=1, select bank1
  4558     082B  1303               	bcf	3,6	;RP1=0, select bank1
  4559     082C  00C1               	movwf	___xxtofl@sign^(0+128)
  4560     082D                     l2932:
  4561     082D  0841               	movf	___xxtofl@sign^(0+128),w
  4562     082E  1903               	btfsc	3,2
  4563     082F  2831               	goto	u4651
  4564     0830  2832               	goto	u4650
  4565     0831                     u4651:
  4566     0831  2846               	goto	l2938
  4567     0832                     u4650:
  4568     0832                     l2934:
  4569     0832  1FBC               	btfss	(___xxtofl@val+3)^(0+128),7
  4570     0833  2835               	goto	u4661
  4571     0834  2836               	goto	u4660
  4572     0835                     u4661:
  4573     0835  2846               	goto	l2938
  4574     0836                     u4660:
  4575     0836                     l2936:
  4576     0836  0939               	comf	___xxtofl@val^(0+128),w
  4577     0837  00C3               	movwf	___xxtofl@arg^(0+128)
  4578     0838  093A               	comf	(___xxtofl@val^(0+128)+1),w
  4579     0839  00C4               	movwf	(___xxtofl@arg+1)^(0+128)
  4580     083A  093B               	comf	(___xxtofl@val^(0+128)+2),w
  4581     083B  00C5               	movwf	(___xxtofl@arg+2)^(0+128)
  4582     083C  093C               	comf	(___xxtofl@val^(0+128)+3),w
  4583     083D  00C6               	movwf	(___xxtofl@arg+3)^(0+128)
  4584     083E  0AC3               	incf	___xxtofl@arg^(0+128),f
  4585     083F  1903               	skipnz
  4586     0840  0AC4               	incf	(___xxtofl@arg+1)^(0+128),f
  4587     0841  1903               	skipnz
  4588     0842  0AC5               	incf	(___xxtofl@arg+2)^(0+128),f
  4589     0843  1903               	skipnz
  4590     0844  0AC6               	incf	(___xxtofl@arg+3)^(0+128),f
  4591     0845  284E               	goto	l669
  4592     0846                     l2938:
  4593     0846  083C               	movf	(___xxtofl@val+3)^(0+128),w
  4594     0847  00C6               	movwf	(___xxtofl@arg+3)^(0+128)
  4595     0848  083B               	movf	(___xxtofl@val+2)^(0+128),w
  4596     0849  00C5               	movwf	(___xxtofl@arg+2)^(0+128)
  4597     084A  083A               	movf	(___xxtofl@val+1)^(0+128),w
  4598     084B  00C4               	movwf	(___xxtofl@arg+1)^(0+128)
  4599     084C  0839               	movf	___xxtofl@val^(0+128),w
  4600     084D  00C3               	movwf	___xxtofl@arg^(0+128)
  4601     084E                     l669:
  4602     084E  083C               	movf	(___xxtofl@val+3)^(0+128),w
  4603     084F  043B               	iorwf	(___xxtofl@val+2)^(0+128),w
  4604     0850  043A               	iorwf	(___xxtofl@val+1)^(0+128),w
  4605     0851  0439               	iorwf	___xxtofl@val^(0+128),w
  4606     0852  1D03               	skipz
  4607     0853  2855               	goto	u4671
  4608     0854  2856               	goto	u4670
  4609     0855                     u4671:
  4610     0855  285F               	goto	l2944
  4611     0856                     u4670:
  4612     0856                     l2940:
  4613     0856  3000               	movlw	0
  4614     0857  00BC               	movwf	(?___xxtofl+3)^(0+128)
  4615     0858  3000               	movlw	0
  4616     0859  00BB               	movwf	(?___xxtofl+2)^(0+128)
  4617     085A  3000               	movlw	0
  4618     085B  00BA               	movwf	(?___xxtofl+1)^(0+128)
  4619     085C  3000               	movlw	0
  4620     085D  00B9               	movwf	?___xxtofl^(0+128)
  4621     085E  28E3               	goto	l671
  4622     085F                     l2944:
  4623     085F  3096               	movlw	150
  4624     0860  00C2               	movwf	___xxtofl@exp^(0+128)
  4625     0861  286F               	goto	l2948
  4626     0862                     l2946:
  4627     0862  3001               	movlw	1
  4628     0863  00BD               	movwf	??___xxtofl^(0+128)
  4629     0864  083D               	movf	??___xxtofl^(0+128),w
  4630     0865  07C2               	addwf	___xxtofl@exp^(0+128),f
  4631     0866  3001               	movlw	1
  4632     0867                     u4685:
  4633     0867  1003               	clrc
  4634     0868  0CC6               	rrf	(___xxtofl@arg+3)^(0+128),f
  4635     0869  0CC5               	rrf	(___xxtofl@arg+2)^(0+128),f
  4636     086A  0CC4               	rrf	(___xxtofl@arg+1)^(0+128),f
  4637     086B  0CC3               	rrf	___xxtofl@arg^(0+128),f
  4638     086C  3EFF               	addlw	-1
  4639     086D  1D03               	skipz
  4640     086E  2867               	goto	u4685
  4641     086F                     l2948:
  4642     086F  30FE               	movlw	254
  4643     0870  0546               	andwf	(___xxtofl@arg+3)^(0+128),w
  4644     0871  1D03               	btfss	3,2
  4645     0872  2874               	goto	u4691
  4646     0873  2875               	goto	u4690
  4647     0874                     u4691:
  4648     0874  2862               	goto	l2946
  4649     0875                     u4690:
  4650     0875  2891               	goto	l675
  4651     0876                     l2950:
  4652     0876  3001               	movlw	1
  4653     0877  00BD               	movwf	??___xxtofl^(0+128)
  4654     0878  083D               	movf	??___xxtofl^(0+128),w
  4655     0879  07C2               	addwf	___xxtofl@exp^(0+128),f
  4656     087A                     l2952:
  4657     087A  3001               	movlw	1
  4658     087B  07C3               	addwf	___xxtofl@arg^(0+128),f
  4659     087C  3000               	movlw	0
  4660     087D  1803               	skipnc
  4661     087E  3001               	movlw	1
  4662     087F  07C4               	addwf	(___xxtofl@arg+1)^(0+128),f
  4663     0880  3000               	movlw	0
  4664     0881  1803               	skipnc
  4665     0882  3001               	movlw	1
  4666     0883  07C5               	addwf	(___xxtofl@arg+2)^(0+128),f
  4667     0884  3000               	movlw	0
  4668     0885  1803               	skipnc
  4669     0886  3001               	movlw	1
  4670     0887  07C6               	addwf	(___xxtofl@arg+3)^(0+128),f
  4671     0888                     l2954:
  4672     0888  3001               	movlw	1
  4673     0889                     u4705:
  4674     0889  1003               	clrc
  4675     088A  0CC6               	rrf	(___xxtofl@arg+3)^(0+128),f
  4676     088B  0CC5               	rrf	(___xxtofl@arg+2)^(0+128),f
  4677     088C  0CC4               	rrf	(___xxtofl@arg+1)^(0+128),f
  4678     088D  0CC3               	rrf	___xxtofl@arg^(0+128),f
  4679     088E  3EFF               	addlw	-1
  4680     088F  1D03               	skipz
  4681     0890  2889               	goto	u4705
  4682     0891                     l675:
  4683     0891  30FF               	movlw	255
  4684     0892  0546               	andwf	(___xxtofl@arg+3)^(0+128),w
  4685     0893  1D03               	btfss	3,2
  4686     0894  2896               	goto	u4711
  4687     0895  2897               	goto	u4710
  4688     0896                     u4711:
  4689     0896  2876               	goto	l2950
  4690     0897                     u4710:
  4691     0897  28A3               	goto	l2958
  4692     0898                     l2956:
  4693     0898  3001               	movlw	1
  4694     0899  02C2               	subwf	___xxtofl@exp^(0+128),f
  4695     089A  3001               	movlw	1
  4696     089B  00BD               	movwf	??___xxtofl^(0+128)
  4697     089C                     u4725:
  4698     089C  1003               	clrc
  4699     089D  0DC3               	rlf	___xxtofl@arg^(0+128),f
  4700     089E  0DC4               	rlf	(___xxtofl@arg+1)^(0+128),f
  4701     089F  0DC5               	rlf	(___xxtofl@arg+2)^(0+128),f
  4702     08A0  0DC6               	rlf	(___xxtofl@arg+3)^(0+128),f
  4703     08A1  0BBD               	decfsz	??___xxtofl^(0+128),f
  4704     08A2  289C               	goto	u4725
  4705     08A3                     l2958:
  4706     08A3  1BC5               	btfsc	(___xxtofl@arg+2)^(0+128),7
  4707     08A4  28A6               	goto	u4731
  4708     08A5  28A7               	goto	u4730
  4709     08A6                     u4731:
  4710     08A6  28AD               	goto	l682
  4711     08A7                     u4730:
  4712     08A7                     l2960:
  4713     08A7  3002               	movlw	2
  4714     08A8  0242               	subwf	___xxtofl@exp^(0+128),w
  4715     08A9  1803               	skipnc
  4716     08AA  28AC               	goto	u4741
  4717     08AB  28AD               	goto	u4740
  4718     08AC                     u4741:
  4719     08AC  2898               	goto	l2956
  4720     08AD                     u4740:
  4721     08AD                     l682:
  4722     08AD  1842               	btfsc	___xxtofl@exp^(0+128),0
  4723     08AE  28B0               	goto	u4751
  4724     08AF  28B1               	goto	u4750
  4725     08B0                     u4751:
  4726     08B0  28B9               	goto	l683
  4727     08B1                     u4750:
  4728     08B1                     l2962:
  4729     08B1  30FF               	movlw	255
  4730     08B2  05C3               	andwf	___xxtofl@arg^(0+128),f
  4731     08B3  30FF               	movlw	255
  4732     08B4  05C4               	andwf	(___xxtofl@arg+1)^(0+128),f
  4733     08B5  307F               	movlw	127
  4734     08B6  05C5               	andwf	(___xxtofl@arg+2)^(0+128),f
  4735     08B7  30FF               	movlw	255
  4736     08B8  05C6               	andwf	(___xxtofl@arg+3)^(0+128),f
  4737     08B9                     l683:
  4738     08B9  1003               	clrc
  4739     08BA  0CC2               	rrf	___xxtofl@exp^(0+128),f
  4740     08BB                     l2964:
  4741     08BB  0842               	movf	___xxtofl@exp^(0+128),w
  4742     08BC  00BD               	movwf	??___xxtofl^(0+128)
  4743     08BD  01BE               	clrf	(??___xxtofl^(0+128)+1)
  4744     08BE  01BF               	clrf	(??___xxtofl^(0+128)+2)
  4745     08BF  01C0               	clrf	(??___xxtofl^(0+128)+3)
  4746     08C0  3018               	movlw	24
  4747     08C1                     u4765:
  4748     08C1  1003               	clrc
  4749     08C2  0DBD               	rlf	??___xxtofl^(0+128),f
  4750     08C3  0DBE               	rlf	(??___xxtofl^(0+128)+1),f
  4751     08C4  0DBF               	rlf	(??___xxtofl^(0+128)+2),f
  4752     08C5  0DC0               	rlf	(??___xxtofl^(0+128)+3),f
  4753     08C6                     u4760:
  4754     08C6  3EFF               	addlw	-1
  4755     08C7  1D03               	skipz
  4756     08C8  28C1               	goto	u4765
  4757     08C9  083D               	movf	??___xxtofl^(0+128),w
  4758     08CA  04C3               	iorwf	___xxtofl@arg^(0+128),f
  4759     08CB  083E               	movf	(??___xxtofl+1)^(0+128),w
  4760     08CC  04C4               	iorwf	(___xxtofl@arg+1)^(0+128),f
  4761     08CD  083F               	movf	(??___xxtofl+2)^(0+128),w
  4762     08CE  04C5               	iorwf	(___xxtofl@arg+2)^(0+128),f
  4763     08CF  0840               	movf	(??___xxtofl+3)^(0+128),w
  4764     08D0  04C6               	iorwf	(___xxtofl@arg+3)^(0+128),f
  4765     08D1                     l2966:
  4766     08D1  0841               	movf	___xxtofl@sign^(0+128),w
  4767     08D2  1903               	btfsc	3,2
  4768     08D3  28D5               	goto	u4771
  4769     08D4  28D6               	goto	u4770
  4770     08D5                     u4771:
  4771     08D5  28DB               	goto	l2972
  4772     08D6                     u4770:
  4773     08D6                     l2968:
  4774     08D6  1FBC               	btfss	(___xxtofl@val+3)^(0+128),7
  4775     08D7  28D9               	goto	u4781
  4776     08D8  28DA               	goto	u4780
  4777     08D9                     u4781:
  4778     08D9  28DB               	goto	l2972
  4779     08DA                     u4780:
  4780     08DA                     l2970:
  4781     08DA  17C6               	bsf	(___xxtofl@arg^(0+128)+3),7
  4782     08DB                     l2972:
  4783     08DB  0846               	movf	(___xxtofl@arg+3)^(0+128),w
  4784     08DC  00BC               	movwf	(?___xxtofl+3)^(0+128)
  4785     08DD  0845               	movf	(___xxtofl@arg+2)^(0+128),w
  4786     08DE  00BB               	movwf	(?___xxtofl+2)^(0+128)
  4787     08DF  0844               	movf	(___xxtofl@arg+1)^(0+128),w
  4788     08E0  00BA               	movwf	(?___xxtofl+1)^(0+128)
  4789     08E1  0843               	movf	___xxtofl@arg^(0+128),w
  4790     08E2  00B9               	movwf	?___xxtofl^(0+128)
  4791     08E3                     l671:
  4792     08E3  0008               	return
  4793     08E4                     __end_of___xxtofl:
  4794                           
  4795                           	psect	text9
  4796     0AB7                     __ptext9:	
  4797 ;; *************** function _isr *****************
  4798 ;; Defined at:
  4799 ;;		line 68 in file "Progra_IRONMAN.c"
  4800 ;; Parameters:    Size  Location     Type
  4801 ;;		None
  4802 ;; Auto vars:     Size  Location     Type
  4803 ;;		None
  4804 ;; Return value:  Size  Location     Type
  4805 ;;                  1    wreg      void 
  4806 ;; Registers used:
  4807 ;;		wreg, status,2, status,0, btemp+1, pclath, cstack
  4808 ;; Tracked objects:
  4809 ;;		On entry : 0/0
  4810 ;;		On exit  : 0/0
  4811 ;;		Unchanged: 0/0
  4812 ;; Data sizes:     COMMON   BANK0   BANK1   BANK3   BANK2
  4813 ;;      Params:         0       0       0       0       0
  4814 ;;      Locals:         0       0       4       0       0
  4815 ;;      Temps:          0       0       7       0       0
  4816 ;;      Totals:         0       0      11       0       0
  4817 ;;Total ram usage:       11 bytes
  4818 ;; Hardware stack levels used: 1
  4819 ;; Hardware stack levels required when called: 3
  4820 ;; This function calls:
  4821 ;;		___fladd
  4822 ;;		_pulse
  4823 ;;		i1_PWM_duty
  4824 ;;		i1___fldiv
  4825 ;;		i1___flmul
  4826 ;;		i1___fltol
  4827 ;;		i1___xxtofl
  4828 ;; This function is called by:
  4829 ;;		Interrupt level 1
  4830 ;; This function uses a non-reentrant model
  4831 ;;
  4832                           
  4833     0AB7                     _isr:	
  4834                           ;psect for function _isr
  4835                           
  4836     0AB7                     i1l3042:
  4837                           
  4838                           ;Progra_IRONMAN.c: 69:     if (INTCONbits.T0IF){
  4839     0AB7  1D0B               	btfss	11,2	;volatile
  4840     0AB8  2ABA               	goto	u495_21
  4841     0AB9  2ABB               	goto	u495_20
  4842     0ABA                     u495_21:
  4843     0ABA  2AC1               	goto	i1l3048
  4844     0ABB                     u495_20:
  4845     0ABB                     i1l3044:
  4846                           
  4847                           ;Progra_IRONMAN.c: 70:         pulse();
  4848     0ABB  120A  118A  27E5  120A  158A  	fcall	_pulse
  4849     0AC0                     i1l3046:
  4850                           
  4851                           ;Progra_IRONMAN.c: 71:         INTCONbits.T0IF = 0;
  4852     0AC0  110B               	bcf	11,2	;volatile
  4853     0AC1                     i1l3048:
  4854                           
  4855                           ;Progra_IRONMAN.c: 74:     if (INTCONbits.RBIF)
  4856     0AC1  1C0B               	btfss	11,0	;volatile
  4857     0AC2  2AC4               	goto	u496_21
  4858     0AC3  2AC5               	goto	u496_20
  4859     0AC4                     u496_21:
  4860     0AC4  2AC6               	goto	i1l80
  4861     0AC5                     u496_20:
  4862     0AC5                     i1l3050:
  4863                           
  4864                           ;Progra_IRONMAN.c: 75:     {;Progra_IRONMAN.c: 84:         INTCONbits.RBIF = 0;
  4865     0AC5  100B               	bcf	11,0	;volatile
  4866     0AC6                     i1l80:	
  4867                           ;Progra_IRONMAN.c: 85:     }
  4868                           
  4869                           
  4870                           ;Progra_IRONMAN.c: 87:     if (PIR1bits.ADIF) {
  4871     0AC6  1283               	bcf	3,5	;RP0=0, select bank0
  4872     0AC7  1303               	bcf	3,6	;RP1=0, select bank0
  4873     0AC8  1F0C               	btfss	12,6	;volatile
  4874     0AC9  2ACB               	goto	u497_21
  4875     0ACA  2ACC               	goto	u497_20
  4876     0ACB                     u497_21:
  4877     0ACB  2CB0               	goto	i1l87
  4878     0ACC                     u497_20:
  4879     0ACC                     i1l3052:
  4880                           
  4881                           ;Progra_IRONMAN.c: 88:         if (ADCON0bits.CHS == 0b0000){
  4882     0ACC  0C1F               	rrf	31,w	;volatile
  4883     0ACD  1683               	bsf	3,5	;RP0=1, select bank1
  4884     0ACE  1303               	bcf	3,6	;RP1=0, select bank1
  4885     0ACF  00AE               	movwf	??_isr^(0+128)
  4886     0AD0  0C2E               	rrf	??_isr^(0+128),w
  4887     0AD1  390F               	andlw	15
  4888     0AD2  3A00               	xorlw	0
  4889     0AD3  1D03               	skipz
  4890     0AD4  2AD6               	goto	u498_21
  4891     0AD5  2AD7               	goto	u498_20
  4892     0AD6                     u498_21:
  4893     0AD6  2AD8               	goto	i1l3056
  4894     0AD7                     u498_20:
  4895     0AD7  2CAD               	goto	i1l3064
  4896     0AD8                     i1l3056:
  4897     0AD8  1283               	bcf	3,5	;RP0=0, select bank0
  4898     0AD9  1303               	bcf	3,6	;RP1=0, select bank0
  4899     0ADA  0C1F               	rrf	31,w	;volatile
  4900     0ADB  1683               	bsf	3,5	;RP0=1, select bank1
  4901     0ADC  1303               	bcf	3,6	;RP1=0, select bank1
  4902     0ADD  00AE               	movwf	??_isr^(0+128)
  4903     0ADE  0C2E               	rrf	??_isr^(0+128),w
  4904     0ADF  390F               	andlw	15
  4905     0AE0  3A04               	xorlw	4
  4906     0AE1  1D03               	skipz
  4907     0AE2  2AE4               	goto	u499_21
  4908     0AE3  2AE5               	goto	u499_20
  4909     0AE4                     u499_21:
  4910     0AE4  2C46               	goto	i1l3060
  4911     0AE5                     u499_20:
  4912     0AE5                     i1l3058:
  4913                           
  4914                           ;Progra_IRONMAN.c: 91:             valorPot2 = 0.37*ADRESH;
  4915     0AE5  1283               	bcf	3,5	;RP0=0, select bank0
  4916     0AE6  1303               	bcf	3,6	;RP1=0, select bank0
  4917     0AE7  081E               	movf	30,w	;volatile
  4918     0AE8  1683               	bsf	3,5	;RP0=1, select bank1
  4919     0AE9  1303               	bcf	3,6	;RP1=0, select bank1
  4920     0AEA  00AE               	movwf	??_isr^(0+128)
  4921     0AEB  01AF               	clrf	(??_isr^(0+128)+1)
  4922     0AEC  01B0               	clrf	(??_isr^(0+128)+2)
  4923     0AED  01B1               	clrf	(??_isr^(0+128)+3)
  4924     0AEE  0831               	movf	(??_isr+3)^(0+128),w
  4925     0AEF  00F3               	movwf	i1___xxtofl@val+3
  4926     0AF0  0830               	movf	(??_isr+2)^(0+128),w
  4927     0AF1  00F2               	movwf	i1___xxtofl@val+2
  4928     0AF2  082F               	movf	(??_isr+1)^(0+128),w
  4929     0AF3  00F1               	movwf	i1___xxtofl@val+1
  4930     0AF4  082E               	movf	??_isr^(0+128),w
  4931     0AF5  00F0               	movwf	i1___xxtofl@val
  4932     0AF6  3001               	movlw	1
  4933     0AF7  160A  118A  221C  120A  158A  	fcall	i1___xxtofl
  4934     0AFC  0873               	movf	?i1___xxtofl+3,w
  4935     0AFD  1283               	bcf	3,5	;RP0=0, select bank0
  4936     0AFE  1303               	bcf	3,6	;RP1=0, select bank0
  4937     0AFF  00C1               	movwf	i1___flmul@a+3
  4938     0B00  0872               	movf	?i1___xxtofl+2,w
  4939     0B01  00C0               	movwf	i1___flmul@a+2
  4940     0B02  0871               	movf	?i1___xxtofl+1,w
  4941     0B03  00BF               	movwf	i1___flmul@a+1
  4942     0B04  0870               	movf	?i1___xxtofl,w
  4943     0B05  00BE               	movwf	i1___flmul@a
  4944     0B06  303E               	movlw	62
  4945     0B07  00BD               	movwf	i1___flmul@b+3
  4946     0B08  30BD               	movlw	189
  4947     0B09  00BC               	movwf	i1___flmul@b+2
  4948     0B0A  3070               	movlw	112
  4949     0B0B  00BB               	movwf	i1___flmul@b+1
  4950     0B0C  30A4               	movlw	164
  4951     0B0D  00BA               	movwf	i1___flmul@b
  4952     0B0E  120A  158A  24BB  120A  158A  	fcall	i1___flmul
  4953     0B13  1283               	bcf	3,5	;RP0=0, select bank0
  4954     0B14  1303               	bcf	3,6	;RP1=0, select bank0
  4955     0B15  083D               	movf	?i1___flmul+3,w
  4956     0B16  00EB               	movwf	i1___fltol@f1+3
  4957     0B17  083C               	movf	?i1___flmul+2,w
  4958     0B18  00EA               	movwf	i1___fltol@f1+2
  4959     0B19  083B               	movf	?i1___flmul+1,w
  4960     0B1A  00E9               	movwf	i1___fltol@f1+1
  4961     0B1B  083A               	movf	?i1___flmul,w
  4962     0B1C  00E8               	movwf	i1___fltol@f1
  4963     0B1D  160A  118A  2072  120A  158A  	fcall	i1___fltol
  4964     0B22  1283               	bcf	3,5	;RP0=0, select bank0
  4965     0B23  1303               	bcf	3,6	;RP1=0, select bank0
  4966     0B24  0869               	movf	?i1___fltol+1,w
  4967     0B25  1683               	bsf	3,5	;RP0=1, select bank1
  4968     0B26  1303               	bcf	3,6	;RP1=0, select bank1
  4969     0B27  00D1               	movwf	(_valorPot2+1)^(0+128)
  4970     0B28  1283               	bcf	3,5	;RP0=0, select bank0
  4971     0B29  1303               	bcf	3,6	;RP1=0, select bank0
  4972     0B2A  0868               	movf	?i1___fltol,w
  4973     0B2B  1683               	bsf	3,5	;RP0=1, select bank1
  4974     0B2C  1303               	bcf	3,6	;RP1=0, select bank1
  4975     0B2D  00D0               	movwf	_valorPot2^(0+128)
  4976                           
  4977                           ;Progra_IRONMAN.c: 92:             valorPot1 = 0.37*ADRESH;
  4978     0B2E  1283               	bcf	3,5	;RP0=0, select bank0
  4979     0B2F  1303               	bcf	3,6	;RP1=0, select bank0
  4980     0B30  081E               	movf	30,w	;volatile
  4981     0B31  1683               	bsf	3,5	;RP0=1, select bank1
  4982     0B32  1303               	bcf	3,6	;RP1=0, select bank1
  4983     0B33  00AE               	movwf	??_isr^(0+128)
  4984     0B34  01AF               	clrf	(??_isr^(0+128)+1)
  4985     0B35  01B0               	clrf	(??_isr^(0+128)+2)
  4986     0B36  01B1               	clrf	(??_isr^(0+128)+3)
  4987     0B37  0831               	movf	(??_isr+3)^(0+128),w
  4988     0B38  00F3               	movwf	i1___xxtofl@val+3
  4989     0B39  0830               	movf	(??_isr+2)^(0+128),w
  4990     0B3A  00F2               	movwf	i1___xxtofl@val+2
  4991     0B3B  082F               	movf	(??_isr+1)^(0+128),w
  4992     0B3C  00F1               	movwf	i1___xxtofl@val+1
  4993     0B3D  082E               	movf	??_isr^(0+128),w
  4994     0B3E  00F0               	movwf	i1___xxtofl@val
  4995     0B3F  3001               	movlw	1
  4996     0B40  160A  118A  221C  120A  158A  	fcall	i1___xxtofl
  4997     0B45  0873               	movf	?i1___xxtofl+3,w
  4998     0B46  1283               	bcf	3,5	;RP0=0, select bank0
  4999     0B47  1303               	bcf	3,6	;RP1=0, select bank0
  5000     0B48  00C1               	movwf	i1___flmul@a+3
  5001     0B49  0872               	movf	?i1___xxtofl+2,w
  5002     0B4A  00C0               	movwf	i1___flmul@a+2
  5003     0B4B  0871               	movf	?i1___xxtofl+1,w
  5004     0B4C  00BF               	movwf	i1___flmul@a+1
  5005     0B4D  0870               	movf	?i1___xxtofl,w
  5006     0B4E  00BE               	movwf	i1___flmul@a
  5007     0B4F  303E               	movlw	62
  5008     0B50  00BD               	movwf	i1___flmul@b+3
  5009     0B51  30BD               	movlw	189
  5010     0B52  00BC               	movwf	i1___flmul@b+2
  5011     0B53  3070               	movlw	112
  5012     0B54  00BB               	movwf	i1___flmul@b+1
  5013     0B55  30A4               	movlw	164
  5014     0B56  00BA               	movwf	i1___flmul@b
  5015     0B57  120A  158A  24BB  120A  158A  	fcall	i1___flmul
  5016     0B5C  1283               	bcf	3,5	;RP0=0, select bank0
  5017     0B5D  1303               	bcf	3,6	;RP1=0, select bank0
  5018     0B5E  083D               	movf	?i1___flmul+3,w
  5019     0B5F  00EB               	movwf	i1___fltol@f1+3
  5020     0B60  083C               	movf	?i1___flmul+2,w
  5021     0B61  00EA               	movwf	i1___fltol@f1+2
  5022     0B62  083B               	movf	?i1___flmul+1,w
  5023     0B63  00E9               	movwf	i1___fltol@f1+1
  5024     0B64  083A               	movf	?i1___flmul,w
  5025     0B65  00E8               	movwf	i1___fltol@f1
  5026     0B66  160A  118A  2072  120A  158A  	fcall	i1___fltol
  5027     0B6B  1283               	bcf	3,5	;RP0=0, select bank0
  5028     0B6C  1303               	bcf	3,6	;RP1=0, select bank0
  5029     0B6D  0869               	movf	?i1___fltol+1,w
  5030     0B6E  1683               	bsf	3,5	;RP0=1, select bank1
  5031     0B6F  1303               	bcf	3,6	;RP1=0, select bank1
  5032     0B70  00D3               	movwf	(_valorPot1+1)^(0+128)
  5033     0B71  1283               	bcf	3,5	;RP0=0, select bank0
  5034     0B72  1303               	bcf	3,6	;RP1=0, select bank0
  5035     0B73  0868               	movf	?i1___fltol,w
  5036     0B74  1683               	bsf	3,5	;RP0=1, select bank1
  5037     0B75  1303               	bcf	3,6	;RP1=0, select bank1
  5038     0B76  00D2               	movwf	_valorPot1^(0+128)
  5039                           
  5040                           ;Progra_IRONMAN.c: 93:             PWM_duty(2, 0.00035f*((valorPot2)/255.0f));
  5041     0B77  3039               	movlw	57
  5042     0B78  1283               	bcf	3,5	;RP0=0, select bank0
  5043     0B79  1303               	bcf	3,6	;RP1=0, select bank0
  5044     0B7A  00BD               	movwf	i1___flmul@b+3
  5045     0B7B  30B7               	movlw	183
  5046     0B7C  00BC               	movwf	i1___flmul@b+2
  5047     0B7D  3080               	movlw	128
  5048     0B7E  00BB               	movwf	i1___flmul@b+1
  5049     0B7F  3034               	movlw	52
  5050     0B80  00BA               	movwf	i1___flmul@b
  5051     0B81  3043               	movlw	67
  5052     0B82  00A3               	movwf	i1___fldiv@a+3
  5053     0B83  307F               	movlw	127
  5054     0B84  00A2               	movwf	i1___fldiv@a+2
  5055     0B85  3000               	movlw	0
  5056     0B86  00A1               	movwf	i1___fldiv@a+1
  5057     0B87  3000               	movlw	0
  5058     0B88  00A0               	movwf	i1___fldiv@a
  5059     0B89  1683               	bsf	3,5	;RP0=1, select bank1
  5060     0B8A  1303               	bcf	3,6	;RP1=0, select bank1
  5061     0B8B  0850               	movf	_valorPot2^(0+128),w
  5062     0B8C  00F0               	movwf	i1___xxtofl@val
  5063     0B8D  0851               	movf	(_valorPot2+1)^(0+128),w
  5064     0B8E  00F1               	movwf	i1___xxtofl@val+1
  5065     0B8F  3000               	movlw	0
  5066     0B90  1BF1               	btfsc	i1___xxtofl@val+1,7
  5067     0B91  30FF               	movlw	255
  5068     0B92  00F2               	movwf	i1___xxtofl@val+2
  5069     0B93  00F3               	movwf	i1___xxtofl@val+3
  5070     0B94  3001               	movlw	1
  5071     0B95  160A  118A  221C  120A  158A  	fcall	i1___xxtofl
  5072     0B9A  0873               	movf	?i1___xxtofl+3,w
  5073     0B9B  1283               	bcf	3,5	;RP0=0, select bank0
  5074     0B9C  1303               	bcf	3,6	;RP1=0, select bank0
  5075     0B9D  00A7               	movwf	i1___fldiv@b+3
  5076     0B9E  0872               	movf	?i1___xxtofl+2,w
  5077     0B9F  00A6               	movwf	i1___fldiv@b+2
  5078     0BA0  0871               	movf	?i1___xxtofl+1,w
  5079     0BA1  00A5               	movwf	i1___fldiv@b+1
  5080     0BA2  0870               	movf	?i1___xxtofl,w
  5081     0BA3  00A4               	movwf	i1___fldiv@b
  5082     0BA4  160A  118A  262D  120A  158A  	fcall	i1___fldiv
  5083     0BA9  1283               	bcf	3,5	;RP0=0, select bank0
  5084     0BAA  1303               	bcf	3,6	;RP1=0, select bank0
  5085     0BAB  0823               	movf	?i1___fldiv+3,w
  5086     0BAC  00C1               	movwf	i1___flmul@a+3
  5087     0BAD  0822               	movf	?i1___fldiv+2,w
  5088     0BAE  00C0               	movwf	i1___flmul@a+2
  5089     0BAF  0821               	movf	?i1___fldiv+1,w
  5090     0BB0  00BF               	movwf	i1___flmul@a+1
  5091     0BB1  0820               	movf	?i1___fldiv,w
  5092     0BB2  00BE               	movwf	i1___flmul@a
  5093     0BB3  120A  158A  24BB  120A  158A  	fcall	i1___flmul
  5094     0BB8  1283               	bcf	3,5	;RP0=0, select bank0
  5095     0BB9  1303               	bcf	3,6	;RP1=0, select bank0
  5096     0BBA  083D               	movf	?i1___flmul+3,w
  5097     0BBB  1683               	bsf	3,5	;RP0=1, select bank1
  5098     0BBC  1303               	bcf	3,6	;RP1=0, select bank1
  5099     0BBD  00B8               	movwf	(_isr$1214+3)^(0+128)
  5100     0BBE  1283               	bcf	3,5	;RP0=0, select bank0
  5101     0BBF  1303               	bcf	3,6	;RP1=0, select bank0
  5102     0BC0  083C               	movf	?i1___flmul+2,w
  5103     0BC1  1683               	bsf	3,5	;RP0=1, select bank1
  5104     0BC2  1303               	bcf	3,6	;RP1=0, select bank1
  5105     0BC3  00B7               	movwf	(_isr$1214+2)^(0+128)
  5106     0BC4  1283               	bcf	3,5	;RP0=0, select bank0
  5107     0BC5  1303               	bcf	3,6	;RP1=0, select bank0
  5108     0BC6  083B               	movf	?i1___flmul+1,w
  5109     0BC7  1683               	bsf	3,5	;RP0=1, select bank1
  5110     0BC8  1303               	bcf	3,6	;RP1=0, select bank1
  5111     0BC9  00B6               	movwf	(_isr$1214+1)^(0+128)
  5112     0BCA  1283               	bcf	3,5	;RP0=0, select bank0
  5113     0BCB  1303               	bcf	3,6	;RP1=0, select bank0
  5114     0BCC  083A               	movf	?i1___flmul,w
  5115     0BCD  1683               	bsf	3,5	;RP0=1, select bank1
  5116     0BCE  1303               	bcf	3,6	;RP1=0, select bank1
  5117     0BCF  00B5               	movwf	_isr$1214^(0+128)
  5118                           
  5119                           ;Progra_IRONMAN.c: 93:             PWM_duty(2, 0.00035f*((valorPot2)/255.0f));
  5120     0BD0  0838               	movf	(_isr$1214+3)^(0+128),w
  5121     0BD1  00A5               	movwf	(i1PWM_duty@duty+3)^(0+128)
  5122     0BD2  0837               	movf	(_isr$1214+2)^(0+128),w
  5123     0BD3  00A4               	movwf	(i1PWM_duty@duty+2)^(0+128)
  5124     0BD4  0836               	movf	(_isr$1214+1)^(0+128),w
  5125     0BD5  00A3               	movwf	(i1PWM_duty@duty+1)^(0+128)
  5126     0BD6  0835               	movf	_isr$1214^(0+128),w
  5127     0BD7  00A2               	movwf	i1PWM_duty@duty^(0+128)
  5128     0BD8  3002               	movlw	2
  5129     0BD9  160A  118A  24FF  120A  158A  	fcall	i1_PWM_duty
  5130                           
  5131                           ;Progra_IRONMAN.c: 94:             PWM_duty(1, 0.00035f*((valorPot1)/255.0f));
  5132     0BDE  3039               	movlw	57
  5133     0BDF  1283               	bcf	3,5	;RP0=0, select bank0
  5134     0BE0  1303               	bcf	3,6	;RP1=0, select bank0
  5135     0BE1  00BD               	movwf	i1___flmul@b+3
  5136     0BE2  30B7               	movlw	183
  5137     0BE3  00BC               	movwf	i1___flmul@b+2
  5138     0BE4  3080               	movlw	128
  5139     0BE5  00BB               	movwf	i1___flmul@b+1
  5140     0BE6  3034               	movlw	52
  5141     0BE7  00BA               	movwf	i1___flmul@b
  5142     0BE8  3043               	movlw	67
  5143     0BE9  00A3               	movwf	i1___fldiv@a+3
  5144     0BEA  307F               	movlw	127
  5145     0BEB  00A2               	movwf	i1___fldiv@a+2
  5146     0BEC  3000               	movlw	0
  5147     0BED  00A1               	movwf	i1___fldiv@a+1
  5148     0BEE  3000               	movlw	0
  5149     0BEF  00A0               	movwf	i1___fldiv@a
  5150     0BF0  1683               	bsf	3,5	;RP0=1, select bank1
  5151     0BF1  1303               	bcf	3,6	;RP1=0, select bank1
  5152     0BF2  0852               	movf	_valorPot1^(0+128),w
  5153     0BF3  00F0               	movwf	i1___xxtofl@val
  5154     0BF4  0853               	movf	(_valorPot1+1)^(0+128),w
  5155     0BF5  00F1               	movwf	i1___xxtofl@val+1
  5156     0BF6  3000               	movlw	0
  5157     0BF7  1BF1               	btfsc	i1___xxtofl@val+1,7
  5158     0BF8  30FF               	movlw	255
  5159     0BF9  00F2               	movwf	i1___xxtofl@val+2
  5160     0BFA  00F3               	movwf	i1___xxtofl@val+3
  5161     0BFB  3001               	movlw	1
  5162     0BFC  160A  118A  221C  120A  158A  	fcall	i1___xxtofl
  5163     0C01  0873               	movf	?i1___xxtofl+3,w
  5164     0C02  1283               	bcf	3,5	;RP0=0, select bank0
  5165     0C03  1303               	bcf	3,6	;RP1=0, select bank0
  5166     0C04  00A7               	movwf	i1___fldiv@b+3
  5167     0C05  0872               	movf	?i1___xxtofl+2,w
  5168     0C06  00A6               	movwf	i1___fldiv@b+2
  5169     0C07  0871               	movf	?i1___xxtofl+1,w
  5170     0C08  00A5               	movwf	i1___fldiv@b+1
  5171     0C09  0870               	movf	?i1___xxtofl,w
  5172     0C0A  00A4               	movwf	i1___fldiv@b
  5173     0C0B  160A  118A  262D  120A  158A  	fcall	i1___fldiv
  5174     0C10  1283               	bcf	3,5	;RP0=0, select bank0
  5175     0C11  1303               	bcf	3,6	;RP1=0, select bank0
  5176     0C12  0823               	movf	?i1___fldiv+3,w
  5177     0C13  00C1               	movwf	i1___flmul@a+3
  5178     0C14  0822               	movf	?i1___fldiv+2,w
  5179     0C15  00C0               	movwf	i1___flmul@a+2
  5180     0C16  0821               	movf	?i1___fldiv+1,w
  5181     0C17  00BF               	movwf	i1___flmul@a+1
  5182     0C18  0820               	movf	?i1___fldiv,w
  5183     0C19  00BE               	movwf	i1___flmul@a
  5184     0C1A  120A  158A  24BB  120A  158A  	fcall	i1___flmul
  5185     0C1F  1283               	bcf	3,5	;RP0=0, select bank0
  5186     0C20  1303               	bcf	3,6	;RP1=0, select bank0
  5187     0C21  083D               	movf	?i1___flmul+3,w
  5188     0C22  1683               	bsf	3,5	;RP0=1, select bank1
  5189     0C23  1303               	bcf	3,6	;RP1=0, select bank1
  5190     0C24  00B8               	movwf	(_isr$1214+3)^(0+128)
  5191     0C25  1283               	bcf	3,5	;RP0=0, select bank0
  5192     0C26  1303               	bcf	3,6	;RP1=0, select bank0
  5193     0C27  083C               	movf	?i1___flmul+2,w
  5194     0C28  1683               	bsf	3,5	;RP0=1, select bank1
  5195     0C29  1303               	bcf	3,6	;RP1=0, select bank1
  5196     0C2A  00B7               	movwf	(_isr$1214+2)^(0+128)
  5197     0C2B  1283               	bcf	3,5	;RP0=0, select bank0
  5198     0C2C  1303               	bcf	3,6	;RP1=0, select bank0
  5199     0C2D  083B               	movf	?i1___flmul+1,w
  5200     0C2E  1683               	bsf	3,5	;RP0=1, select bank1
  5201     0C2F  1303               	bcf	3,6	;RP1=0, select bank1
  5202     0C30  00B6               	movwf	(_isr$1214+1)^(0+128)
  5203     0C31  1283               	bcf	3,5	;RP0=0, select bank0
  5204     0C32  1303               	bcf	3,6	;RP1=0, select bank0
  5205     0C33  083A               	movf	?i1___flmul,w
  5206     0C34  1683               	bsf	3,5	;RP0=1, select bank1
  5207     0C35  1303               	bcf	3,6	;RP1=0, select bank1
  5208     0C36  00B5               	movwf	_isr$1214^(0+128)
  5209                           
  5210                           ;Progra_IRONMAN.c: 94:             PWM_duty(1, 0.00035f*((valorPot1)/255.0f));
  5211     0C37  0838               	movf	(_isr$1214+3)^(0+128),w
  5212     0C38  00A5               	movwf	(i1PWM_duty@duty+3)^(0+128)
  5213     0C39  0837               	movf	(_isr$1214+2)^(0+128),w
  5214     0C3A  00A4               	movwf	(i1PWM_duty@duty+2)^(0+128)
  5215     0C3B  0836               	movf	(_isr$1214+1)^(0+128),w
  5216     0C3C  00A3               	movwf	(i1PWM_duty@duty+1)^(0+128)
  5217     0C3D  0835               	movf	_isr$1214^(0+128),w
  5218     0C3E  00A2               	movwf	i1PWM_duty@duty^(0+128)
  5219     0C3F  3001               	movlw	1
  5220     0C40  160A  118A  24FF  120A  158A  	fcall	i1_PWM_duty
  5221                           
  5222                           ;Progra_IRONMAN.c: 95:         }
  5223     0C45  2CAD               	goto	i1l3064
  5224     0C46                     i1l3060:
  5225     0C46  1283               	bcf	3,5	;RP0=0, select bank0
  5226     0C47  1303               	bcf	3,6	;RP1=0, select bank0
  5227     0C48  0C1F               	rrf	31,w	;volatile
  5228     0C49  1683               	bsf	3,5	;RP0=1, select bank1
  5229     0C4A  1303               	bcf	3,6	;RP1=0, select bank1
  5230     0C4B  00AE               	movwf	??_isr^(0+128)
  5231     0C4C  0C2E               	rrf	??_isr^(0+128),w
  5232     0C4D  390F               	andlw	15
  5233     0C4E  3A02               	xorlw	2
  5234     0C4F  1D03               	skipz
  5235     0C50  2C52               	goto	u500_21
  5236     0C51  2C53               	goto	u500_20
  5237     0C52                     u500_21:
  5238     0C52  2CAD               	goto	i1l3064
  5239     0C53                     u500_20:
  5240     0C53                     i1l3062:
  5241                           
  5242                           ;Progra_IRONMAN.c: 97:             ang1 = ((ADRESH*0.07058823529)+14);
  5243     0C53  1283               	bcf	3,5	;RP0=0, select bank0
  5244     0C54  1303               	bcf	3,6	;RP1=0, select bank0
  5245     0C55  081E               	movf	30,w	;volatile
  5246     0C56  1683               	bsf	3,5	;RP0=1, select bank1
  5247     0C57  1303               	bcf	3,6	;RP1=0, select bank1
  5248     0C58  00AE               	movwf	??_isr^(0+128)
  5249     0C59  01AF               	clrf	(??_isr^(0+128)+1)
  5250     0C5A  01B0               	clrf	(??_isr^(0+128)+2)
  5251     0C5B  01B1               	clrf	(??_isr^(0+128)+3)
  5252     0C5C  0831               	movf	(??_isr+3)^(0+128),w
  5253     0C5D  00F3               	movwf	i1___xxtofl@val+3
  5254     0C5E  0830               	movf	(??_isr+2)^(0+128),w
  5255     0C5F  00F2               	movwf	i1___xxtofl@val+2
  5256     0C60  082F               	movf	(??_isr+1)^(0+128),w
  5257     0C61  00F1               	movwf	i1___xxtofl@val+1
  5258     0C62  082E               	movf	??_isr^(0+128),w
  5259     0C63  00F0               	movwf	i1___xxtofl@val
  5260     0C64  3001               	movlw	1
  5261     0C65  160A  118A  221C  120A  158A  	fcall	i1___xxtofl
  5262     0C6A  0873               	movf	?i1___xxtofl+3,w
  5263     0C6B  1283               	bcf	3,5	;RP0=0, select bank0
  5264     0C6C  1303               	bcf	3,6	;RP1=0, select bank0
  5265     0C6D  00C1               	movwf	i1___flmul@a+3
  5266     0C6E  0872               	movf	?i1___xxtofl+2,w
  5267     0C6F  00C0               	movwf	i1___flmul@a+2
  5268     0C70  0871               	movf	?i1___xxtofl+1,w
  5269     0C71  00BF               	movwf	i1___flmul@a+1
  5270     0C72  0870               	movf	?i1___xxtofl,w
  5271     0C73  00BE               	movwf	i1___flmul@a
  5272     0C74  303D               	movlw	61
  5273     0C75  00BD               	movwf	i1___flmul@b+3
  5274     0C76  3090               	movlw	144
  5275     0C77  00BC               	movwf	i1___flmul@b+2
  5276     0C78  3090               	movlw	144
  5277     0C79  00BB               	movwf	i1___flmul@b+1
  5278     0C7A  3091               	movlw	145
  5279     0C7B  00BA               	movwf	i1___flmul@b
  5280     0C7C  120A  158A  24BB  120A  158A  	fcall	i1___flmul
  5281     0C81  1283               	bcf	3,5	;RP0=0, select bank0
  5282     0C82  1303               	bcf	3,6	;RP1=0, select bank0
  5283     0C83  083D               	movf	?i1___flmul+3,w
  5284     0C84  00DB               	movwf	___fladd@a+3
  5285     0C85  083C               	movf	?i1___flmul+2,w
  5286     0C86  00DA               	movwf	___fladd@a+2
  5287     0C87  083B               	movf	?i1___flmul+1,w
  5288     0C88  00D9               	movwf	___fladd@a+1
  5289     0C89  083A               	movf	?i1___flmul,w
  5290     0C8A  00D8               	movwf	___fladd@a
  5291     0C8B  3041               	movlw	65
  5292     0C8C  00D7               	movwf	___fladd@b+3
  5293     0C8D  3060               	movlw	96
  5294     0C8E  00D6               	movwf	___fladd@b+2
  5295     0C8F  3000               	movlw	0
  5296     0C90  00D5               	movwf	___fladd@b+1
  5297     0C91  3000               	movlw	0
  5298     0C92  00D4               	movwf	___fladd@b
  5299     0C93  120A  118A  2564  120A  158A  	fcall	___fladd
  5300     0C98  1283               	bcf	3,5	;RP0=0, select bank0
  5301     0C99  1303               	bcf	3,6	;RP1=0, select bank0
  5302     0C9A  0857               	movf	?___fladd+3,w
  5303     0C9B  00EB               	movwf	i1___fltol@f1+3
  5304     0C9C  0856               	movf	?___fladd+2,w
  5305     0C9D  00EA               	movwf	i1___fltol@f1+2
  5306     0C9E  0855               	movf	?___fladd+1,w
  5307     0C9F  00E9               	movwf	i1___fltol@f1+1
  5308     0CA0  0854               	movf	?___fladd,w
  5309     0CA1  00E8               	movwf	i1___fltol@f1
  5310     0CA2  160A  118A  2072  120A  158A  	fcall	i1___fltol
  5311     0CA7  1283               	bcf	3,5	;RP0=0, select bank0
  5312     0CA8  1303               	bcf	3,6	;RP1=0, select bank0
  5313     0CA9  0868               	movf	?i1___fltol,w
  5314     0CAA  1683               	bsf	3,5	;RP0=1, select bank3
  5315     0CAB  1703               	bsf	3,6	;RP1=1, select bank3
  5316     0CAC  00E7               	movwf	_ang1^(0+384)
  5317     0CAD                     i1l3064:
  5318                           
  5319                           ;Progra_IRONMAN.c: 99:         PIR1bits.ADIF = 0;
  5320     0CAD  1283               	bcf	3,5	;RP0=0, select bank0
  5321     0CAE  1303               	bcf	3,6	;RP1=0, select bank0
  5322     0CAF  130C               	bcf	12,6	;volatile
  5323     0CB0                     i1l87:
  5324     0CB0  1683               	bsf	3,5	;RP0=1, select bank1
  5325     0CB1  1303               	bcf	3,6	;RP1=0, select bank1
  5326     0CB2  0834               	movf	(??_isr+6)^(0+128),w
  5327     0CB3  00FF               	movwf	btemp+1
  5328     0CB4  0833               	movf	(??_isr+5)^(0+128),w
  5329     0CB5  008A               	movwf	10
  5330     0CB6  0E32               	swapf	(??_isr+4)^(0+128),w
  5331     0CB7  0083               	movwf	3
  5332     0CB8  0EFE               	swapf	btemp,f
  5333     0CB9  0E7E               	swapf	btemp,w
  5334     0CBA  0009               	retfie
  5335     0CBB                     __end_of_isr:
  5336                           
  5337                           	psect	intentry
  5338     0004                     __pintentry:	
  5339                           ;incstack = 0
  5340                           ; Regs used in _isr: [wreg+status,2+status,0+btemp+1+pclath+cstack]
  5341                           
  5342     0004                     interrupt_function:
  5343     007E                     saved_w	set	btemp
  5344     0004  00FE               	movwf	btemp
  5345     0005  0E03               	swapf	3,w
  5346     0006  1683               	bsf	3,5	;RP0=1, select bank1
  5347     0007  1303               	bcf	3,6	;RP1=0, select bank1
  5348     0008  00B2               	movwf	(??_isr+4)^(0+128)
  5349     0009  080A               	movf	10,w
  5350     000A  00B3               	movwf	(??_isr+5)^(0+128)
  5351     000B  087F               	movf	btemp+1,w
  5352     000C  00B4               	movwf	(??_isr+6)^(0+128)
  5353     000D  120A  158A  2AB7   	ljmp	_isr
  5354                           
  5355                           	psect	text10
  5356     121C                     __ptext10:	
  5357 ;; *************** function i1___xxtofl *****************
  5358 ;; Defined at:
  5359 ;;		line 10 in file "C:\Program Files\Microchip\xc8\v2.40\pic\sources\c90\common\xxtofl.c"
  5360 ;; Parameters:    Size  Location     Type
  5361 ;;  sign            1    wreg     unsigned char 
  5362 ;;  val             4    0[COMMON] long 
  5363 ;; Auto vars:     Size  Location     Type
  5364 ;;  sign            1    8[COMMON] unsigned char 
  5365 ;;  arg             4   10[COMMON] unsigned long 
  5366 ;;  exp             1    9[COMMON] unsigned char 
  5367 ;; Return value:  Size  Location     Type
  5368 ;;                  4    0[COMMON] unsigned char 
  5369 ;; Registers used:
  5370 ;;		wreg, status,2, status,0
  5371 ;; Tracked objects:
  5372 ;;		On entry : 0/0
  5373 ;;		On exit  : 0/0
  5374 ;;		Unchanged: 0/0
  5375 ;; Data sizes:     COMMON   BANK0   BANK1   BANK3   BANK2
  5376 ;;      Params:         4       0       0       0       0
  5377 ;;      Locals:         6       0       0       0       0
  5378 ;;      Temps:          4       0       0       0       0
  5379 ;;      Totals:        14       0       0       0       0
  5380 ;;Total ram usage:       14 bytes
  5381 ;; Hardware stack levels used: 1
  5382 ;; This function calls:
  5383 ;;		Nothing
  5384 ;; This function is called by:
  5385 ;;		_isr
  5386 ;; This function uses a non-reentrant model
  5387 ;;
  5388                           
  5389     121C                     i1___xxtofl:	
  5390                           ;psect for function i1___xxtofl
  5391                           
  5392                           
  5393                           ;incstack = 0
  5394                           ; Regs used in i1___xxtofl: [wreg+status,2+status,0]
  5395                           ;i1___xxtofl@sign stored from wreg
  5396     121C  00F8               	movwf	i1___xxtofl@sign
  5397     121D                     i1l2998:
  5398     121D  0878               	movf	i1___xxtofl@sign,w
  5399     121E  1903               	btfsc	3,2
  5400     121F  2A21               	goto	u481_21
  5401     1220  2A22               	goto	u481_20
  5402     1221                     u481_21:
  5403     1221  2A36               	goto	i1l3004
  5404     1222                     u481_20:
  5405     1222                     i1l3000:
  5406     1222  1FF3               	btfss	i1___xxtofl@val+3,7
  5407     1223  2A25               	goto	u482_21
  5408     1224  2A26               	goto	u482_20
  5409     1225                     u482_21:
  5410     1225  2A36               	goto	i1l3004
  5411     1226                     u482_20:
  5412     1226                     i1l3002:
  5413     1226  0970               	comf	i1___xxtofl@val,w
  5414     1227  00FA               	movwf	i1___xxtofl@arg
  5415     1228  0971               	comf	i1___xxtofl@val+1,w
  5416     1229  00FB               	movwf	i1___xxtofl@arg+1
  5417     122A  0972               	comf	i1___xxtofl@val+2,w
  5418     122B  00FC               	movwf	i1___xxtofl@arg+2
  5419     122C  0973               	comf	i1___xxtofl@val+3,w
  5420     122D  00FD               	movwf	i1___xxtofl@arg+3
  5421     122E  0AFA               	incf	i1___xxtofl@arg,f
  5422     122F  1903               	skipnz
  5423     1230  0AFB               	incf	i1___xxtofl@arg+1,f
  5424     1231  1903               	skipnz
  5425     1232  0AFC               	incf	i1___xxtofl@arg+2,f
  5426     1233  1903               	skipnz
  5427     1234  0AFD               	incf	i1___xxtofl@arg+3,f
  5428     1235  2A3E               	goto	i1l669
  5429     1236                     i1l3004:
  5430     1236  0873               	movf	i1___xxtofl@val+3,w
  5431     1237  00FD               	movwf	i1___xxtofl@arg+3
  5432     1238  0872               	movf	i1___xxtofl@val+2,w
  5433     1239  00FC               	movwf	i1___xxtofl@arg+2
  5434     123A  0871               	movf	i1___xxtofl@val+1,w
  5435     123B  00FB               	movwf	i1___xxtofl@arg+1
  5436     123C  0870               	movf	i1___xxtofl@val,w
  5437     123D  00FA               	movwf	i1___xxtofl@arg
  5438     123E                     i1l669:
  5439     123E  0873               	movf	i1___xxtofl@val+3,w
  5440     123F  0472               	iorwf	i1___xxtofl@val+2,w
  5441     1240  0471               	iorwf	i1___xxtofl@val+1,w
  5442     1241  0470               	iorwf	i1___xxtofl@val,w
  5443     1242  1D03               	skipz
  5444     1243  2A45               	goto	u483_21
  5445     1244  2A46               	goto	u483_20
  5446     1245                     u483_21:
  5447     1245  2A4F               	goto	i1l3010
  5448     1246                     u483_20:
  5449     1246                     i1l3006:
  5450     1246  3000               	movlw	0
  5451     1247  00F3               	movwf	?i1___xxtofl+3
  5452     1248  3000               	movlw	0
  5453     1249  00F2               	movwf	?i1___xxtofl+2
  5454     124A  3000               	movlw	0
  5455     124B  00F1               	movwf	?i1___xxtofl+1
  5456     124C  3000               	movlw	0
  5457     124D  00F0               	movwf	?i1___xxtofl
  5458     124E  2AD3               	goto	i1l671
  5459     124F                     i1l3010:
  5460     124F  3096               	movlw	150
  5461     1250  00F9               	movwf	i1___xxtofl@exp
  5462     1251  2A5F               	goto	i1l3014
  5463     1252                     i1l3012:
  5464     1252  3001               	movlw	1
  5465     1253  00F4               	movwf	??i1___xxtofl
  5466     1254  0874               	movf	??i1___xxtofl,w
  5467     1255  07F9               	addwf	i1___xxtofl@exp,f
  5468     1256  3001               	movlw	1
  5469     1257                     u484_25:
  5470     1257  1003               	clrc
  5471     1258  0CFD               	rrf	i1___xxtofl@arg+3,f
  5472     1259  0CFC               	rrf	i1___xxtofl@arg+2,f
  5473     125A  0CFB               	rrf	i1___xxtofl@arg+1,f
  5474     125B  0CFA               	rrf	i1___xxtofl@arg,f
  5475     125C  3EFF               	addlw	-1
  5476     125D  1D03               	skipz
  5477     125E  2A57               	goto	u484_25
  5478     125F                     i1l3014:
  5479     125F  30FE               	movlw	254
  5480     1260  057D               	andwf	i1___xxtofl@arg+3,w
  5481     1261  1D03               	btfss	3,2
  5482     1262  2A64               	goto	u485_21
  5483     1263  2A65               	goto	u485_20
  5484     1264                     u485_21:
  5485     1264  2A52               	goto	i1l3012
  5486     1265                     u485_20:
  5487     1265  2A81               	goto	i1l675
  5488     1266                     i1l3016:
  5489     1266  3001               	movlw	1
  5490     1267  00F4               	movwf	??i1___xxtofl
  5491     1268  0874               	movf	??i1___xxtofl,w
  5492     1269  07F9               	addwf	i1___xxtofl@exp,f
  5493     126A                     i1l3018:
  5494     126A  3001               	movlw	1
  5495     126B  07FA               	addwf	i1___xxtofl@arg,f
  5496     126C  3000               	movlw	0
  5497     126D  1803               	skipnc
  5498     126E  3001               	movlw	1
  5499     126F  07FB               	addwf	i1___xxtofl@arg+1,f
  5500     1270  3000               	movlw	0
  5501     1271  1803               	skipnc
  5502     1272  3001               	movlw	1
  5503     1273  07FC               	addwf	i1___xxtofl@arg+2,f
  5504     1274  3000               	movlw	0
  5505     1275  1803               	skipnc
  5506     1276  3001               	movlw	1
  5507     1277  07FD               	addwf	i1___xxtofl@arg+3,f
  5508     1278                     i1l3020:
  5509     1278  3001               	movlw	1
  5510     1279                     u486_25:
  5511     1279  1003               	clrc
  5512     127A  0CFD               	rrf	i1___xxtofl@arg+3,f
  5513     127B  0CFC               	rrf	i1___xxtofl@arg+2,f
  5514     127C  0CFB               	rrf	i1___xxtofl@arg+1,f
  5515     127D  0CFA               	rrf	i1___xxtofl@arg,f
  5516     127E  3EFF               	addlw	-1
  5517     127F  1D03               	skipz
  5518     1280  2A79               	goto	u486_25
  5519     1281                     i1l675:
  5520     1281  30FF               	movlw	255
  5521     1282  057D               	andwf	i1___xxtofl@arg+3,w
  5522     1283  1D03               	btfss	3,2
  5523     1284  2A86               	goto	u487_21
  5524     1285  2A87               	goto	u487_20
  5525     1286                     u487_21:
  5526     1286  2A66               	goto	i1l3016
  5527     1287                     u487_20:
  5528     1287  2A93               	goto	i1l3024
  5529     1288                     i1l3022:
  5530     1288  3001               	movlw	1
  5531     1289  02F9               	subwf	i1___xxtofl@exp,f
  5532     128A  3001               	movlw	1
  5533     128B  00F4               	movwf	??i1___xxtofl
  5534     128C                     u488_25:
  5535     128C  1003               	clrc
  5536     128D  0DFA               	rlf	i1___xxtofl@arg,f
  5537     128E  0DFB               	rlf	i1___xxtofl@arg+1,f
  5538     128F  0DFC               	rlf	i1___xxtofl@arg+2,f
  5539     1290  0DFD               	rlf	i1___xxtofl@arg+3,f
  5540     1291  0BF4               	decfsz	??i1___xxtofl,f
  5541     1292  2A8C               	goto	u488_25
  5542     1293                     i1l3024:
  5543     1293  1BFC               	btfsc	i1___xxtofl@arg+2,7
  5544     1294  2A96               	goto	u489_21
  5545     1295  2A97               	goto	u489_20
  5546     1296                     u489_21:
  5547     1296  2A9D               	goto	i1l682
  5548     1297                     u489_20:
  5549     1297                     i1l3026:
  5550     1297  3002               	movlw	2
  5551     1298  0279               	subwf	i1___xxtofl@exp,w
  5552     1299  1803               	skipnc
  5553     129A  2A9C               	goto	u490_21
  5554     129B  2A9D               	goto	u490_20
  5555     129C                     u490_21:
  5556     129C  2A88               	goto	i1l3022
  5557     129D                     u490_20:
  5558     129D                     i1l682:
  5559     129D  1879               	btfsc	i1___xxtofl@exp,0
  5560     129E  2AA0               	goto	u491_21
  5561     129F  2AA1               	goto	u491_20
  5562     12A0                     u491_21:
  5563     12A0  2AA9               	goto	i1l683
  5564     12A1                     u491_20:
  5565     12A1                     i1l3028:
  5566     12A1  30FF               	movlw	255
  5567     12A2  05FA               	andwf	i1___xxtofl@arg,f
  5568     12A3  30FF               	movlw	255
  5569     12A4  05FB               	andwf	i1___xxtofl@arg+1,f
  5570     12A5  307F               	movlw	127
  5571     12A6  05FC               	andwf	i1___xxtofl@arg+2,f
  5572     12A7  30FF               	movlw	255
  5573     12A8  05FD               	andwf	i1___xxtofl@arg+3,f
  5574     12A9                     i1l683:
  5575     12A9  1003               	clrc
  5576     12AA  0CF9               	rrf	i1___xxtofl@exp,f
  5577     12AB                     i1l3030:
  5578     12AB  0879               	movf	i1___xxtofl@exp,w
  5579     12AC  00F4               	movwf	??i1___xxtofl
  5580     12AD  01F5               	clrf	??i1___xxtofl+1
  5581     12AE  01F6               	clrf	??i1___xxtofl+2
  5582     12AF  01F7               	clrf	??i1___xxtofl+3
  5583     12B0  3018               	movlw	24
  5584     12B1                     u492_25:
  5585     12B1  1003               	clrc
  5586     12B2  0DF4               	rlf	??i1___xxtofl,f
  5587     12B3  0DF5               	rlf	??i1___xxtofl+1,f
  5588     12B4  0DF6               	rlf	??i1___xxtofl+2,f
  5589     12B5  0DF7               	rlf	??i1___xxtofl+3,f
  5590     12B6                     u492_20:
  5591     12B6  3EFF               	addlw	-1
  5592     12B7  1D03               	skipz
  5593     12B8  2AB1               	goto	u492_25
  5594     12B9  0874               	movf	??i1___xxtofl,w
  5595     12BA  04FA               	iorwf	i1___xxtofl@arg,f
  5596     12BB  0875               	movf	??i1___xxtofl+1,w
  5597     12BC  04FB               	iorwf	i1___xxtofl@arg+1,f
  5598     12BD  0876               	movf	??i1___xxtofl+2,w
  5599     12BE  04FC               	iorwf	i1___xxtofl@arg+2,f
  5600     12BF  0877               	movf	??i1___xxtofl+3,w
  5601     12C0  04FD               	iorwf	i1___xxtofl@arg+3,f
  5602     12C1                     i1l3032:
  5603     12C1  0878               	movf	i1___xxtofl@sign,w
  5604     12C2  1903               	btfsc	3,2
  5605     12C3  2AC5               	goto	u493_21
  5606     12C4  2AC6               	goto	u493_20
  5607     12C5                     u493_21:
  5608     12C5  2ACB               	goto	i1l3038
  5609     12C6                     u493_20:
  5610     12C6                     i1l3034:
  5611     12C6  1FF3               	btfss	i1___xxtofl@val+3,7
  5612     12C7  2AC9               	goto	u494_21
  5613     12C8  2ACA               	goto	u494_20
  5614     12C9                     u494_21:
  5615     12C9  2ACB               	goto	i1l3038
  5616     12CA                     u494_20:
  5617     12CA                     i1l3036:
  5618     12CA  17FD               	bsf	i1___xxtofl@arg+3,7
  5619     12CB                     i1l3038:
  5620     12CB  087D               	movf	i1___xxtofl@arg+3,w
  5621     12CC  00F3               	movwf	?i1___xxtofl+3
  5622     12CD  087C               	movf	i1___xxtofl@arg+2,w
  5623     12CE  00F2               	movwf	?i1___xxtofl+2
  5624     12CF  087B               	movf	i1___xxtofl@arg+1,w
  5625     12D0  00F1               	movwf	?i1___xxtofl+1
  5626     12D1  087A               	movf	i1___xxtofl@arg,w
  5627     12D2  00F0               	movwf	?i1___xxtofl
  5628     12D3                     i1l671:
  5629     12D3  0008               	return
  5630     12D4                     __end_ofi1___xxtofl:
  5631                           
  5632                           	psect	text11
  5633     14FF                     __ptext11:	
  5634 ;; *************** function i1_PWM_duty *****************
  5635 ;; Defined at:
  5636 ;;		line 34 in file "PWM_SERVO1.c"
  5637 ;; Parameters:    Size  Location     Type
  5638 ;;  canal           1    wreg     unsigned char 
  5639 ;;  duty            4    2[BANK1 ] float 
  5640 ;; Auto vars:     Size  Location     Type
  5641 ;;  canal           1    9[BANK1 ] unsigned char 
  5642 ;;  particion2      2   12[BANK1 ] int 
  5643 ;;  particion1      2   10[BANK1 ] int 
  5644 ;; Return value:  Size  Location     Type
  5645 ;;                  1    wreg      void 
  5646 ;; Registers used:
  5647 ;;		wreg, status,2, status,0, btemp+1, pclath, cstack
  5648 ;; Tracked objects:
  5649 ;;		On entry : 0/0
  5650 ;;		On exit  : 0/0
  5651 ;;		Unchanged: 0/0
  5652 ;; Data sizes:     COMMON   BANK0   BANK1   BANK3   BANK2
  5653 ;;      Params:         0       0       4       0       0
  5654 ;;      Locals:         0       0       5       0       0
  5655 ;;      Temps:          0       0       3       0       0
  5656 ;;      Totals:         0       0      12       0       0
  5657 ;;Total ram usage:       12 bytes
  5658 ;; Hardware stack levels used: 1
  5659 ;; Hardware stack levels required when called: 2
  5660 ;; This function calls:
  5661 ;;		i1___fldiv
  5662 ;;		i1___flmul
  5663 ;;		i1___fltol
  5664 ;; This function is called by:
  5665 ;;		_isr
  5666 ;; This function uses a non-reentrant model
  5667 ;;
  5668                           
  5669     14FF                     i1_PWM_duty:	
  5670                           ;psect for function i1_PWM_duty
  5671                           
  5672                           
  5673                           ;incstack = 0
  5674                           ; Regs used in i1_PWM_duty: [wreg+status,2+status,0+btemp+1+pclath+cstack]
  5675                           ;i1PWM_duty@canal stored from wreg
  5676     14FF  1683               	bsf	3,5	;RP0=1, select bank1
  5677     1500  1303               	bcf	3,6	;RP1=0, select bank1
  5678     1501  00A9               	movwf	i1PWM_duty@canal^(0+128)
  5679     1502                     i1l2976:
  5680                           
  5681                           ;PWM_SERVO1.c: 35:     if (canal == 1){
  5682     1502  0329               	decf	i1PWM_duty@canal^(0+128),w
  5683     1503  1D03               	btfss	3,2
  5684     1504  2D06               	goto	u479_21
  5685     1505  2D07               	goto	u479_20
  5686     1506                     u479_21:
  5687     1506  2D98               	goto	i1l2986
  5688     1507                     u479_20:
  5689     1507                     i1l2978:
  5690                           
  5691                           ;PWM_SERVO1.c: 36:         int particion1 = (int)(4*duty/((1.0f/4000000)*16));
  5692     1507  0825               	movf	(i1PWM_duty@duty+3)^(0+128),w
  5693     1508  1283               	bcf	3,5	;RP0=0, select bank0
  5694     1509  1303               	bcf	3,6	;RP1=0, select bank0
  5695     150A  00C1               	movwf	i1___flmul@a+3
  5696     150B  1683               	bsf	3,5	;RP0=1, select bank1
  5697     150C  1303               	bcf	3,6	;RP1=0, select bank1
  5698     150D  0824               	movf	(i1PWM_duty@duty+2)^(0+128),w
  5699     150E  1283               	bcf	3,5	;RP0=0, select bank0
  5700     150F  1303               	bcf	3,6	;RP1=0, select bank0
  5701     1510  00C0               	movwf	i1___flmul@a+2
  5702     1511  1683               	bsf	3,5	;RP0=1, select bank1
  5703     1512  1303               	bcf	3,6	;RP1=0, select bank1
  5704     1513  0823               	movf	(i1PWM_duty@duty+1)^(0+128),w
  5705     1514  1283               	bcf	3,5	;RP0=0, select bank0
  5706     1515  1303               	bcf	3,6	;RP1=0, select bank0
  5707     1516  00BF               	movwf	i1___flmul@a+1
  5708     1517  1683               	bsf	3,5	;RP0=1, select bank1
  5709     1518  1303               	bcf	3,6	;RP1=0, select bank1
  5710     1519  0822               	movf	i1PWM_duty@duty^(0+128),w
  5711     151A  1283               	bcf	3,5	;RP0=0, select bank0
  5712     151B  1303               	bcf	3,6	;RP1=0, select bank0
  5713     151C  00BE               	movwf	i1___flmul@a
  5714     151D  3040               	movlw	64
  5715     151E  00BD               	movwf	i1___flmul@b+3
  5716     151F  3080               	movlw	128
  5717     1520  00BC               	movwf	i1___flmul@b+2
  5718     1521  3000               	movlw	0
  5719     1522  00BB               	movwf	i1___flmul@b+1
  5720     1523  3000               	movlw	0
  5721     1524  00BA               	movwf	i1___flmul@b
  5722     1525  120A  158A  24BB  160A  118A  	fcall	i1___flmul
  5723     152A  1283               	bcf	3,5	;RP0=0, select bank0
  5724     152B  1303               	bcf	3,6	;RP1=0, select bank0
  5725     152C  083D               	movf	?i1___flmul+3,w
  5726     152D  00A7               	movwf	i1___fldiv@b+3
  5727     152E  083C               	movf	?i1___flmul+2,w
  5728     152F  00A6               	movwf	i1___fldiv@b+2
  5729     1530  083B               	movf	?i1___flmul+1,w
  5730     1531  00A5               	movwf	i1___fldiv@b+1
  5731     1532  083A               	movf	?i1___flmul,w
  5732     1533  00A4               	movwf	i1___fldiv@b
  5733     1534  3036               	movlw	54
  5734     1535  00A3               	movwf	i1___fldiv@a+3
  5735     1536  3086               	movlw	134
  5736     1537  00A2               	movwf	i1___fldiv@a+2
  5737     1538  3037               	movlw	55
  5738     1539  00A1               	movwf	i1___fldiv@a+1
  5739     153A  30BD               	movlw	189
  5740     153B  00A0               	movwf	i1___fldiv@a
  5741     153C  160A  118A  262D  160A  118A  	fcall	i1___fldiv
  5742     1541  1283               	bcf	3,5	;RP0=0, select bank0
  5743     1542  1303               	bcf	3,6	;RP1=0, select bank0
  5744     1543  0823               	movf	?i1___fldiv+3,w
  5745     1544  00EB               	movwf	i1___fltol@f1+3
  5746     1545  0822               	movf	?i1___fldiv+2,w
  5747     1546  00EA               	movwf	i1___fltol@f1+2
  5748     1547  0821               	movf	?i1___fldiv+1,w
  5749     1548  00E9               	movwf	i1___fltol@f1+1
  5750     1549  0820               	movf	?i1___fldiv,w
  5751     154A  00E8               	movwf	i1___fltol@f1
  5752     154B  160A  118A  2072  160A  118A  	fcall	i1___fltol
  5753     1550  1283               	bcf	3,5	;RP0=0, select bank0
  5754     1551  1303               	bcf	3,6	;RP1=0, select bank0
  5755     1552  0869               	movf	?i1___fltol+1,w
  5756     1553  1683               	bsf	3,5	;RP0=1, select bank1
  5757     1554  1303               	bcf	3,6	;RP1=0, select bank1
  5758     1555  00AB               	movwf	(i1PWM_duty@particion1+1)^(0+128)
  5759     1556  1283               	bcf	3,5	;RP0=0, select bank0
  5760     1557  1303               	bcf	3,6	;RP1=0, select bank0
  5761     1558  0868               	movf	?i1___fltol,w
  5762     1559  1683               	bsf	3,5	;RP0=1, select bank1
  5763     155A  1303               	bcf	3,6	;RP1=0, select bank1
  5764     155B  00AA               	movwf	i1PWM_duty@particion1^(0+128)
  5765     155C                     i1l2980:
  5766                           
  5767                           ;PWM_SERVO1.c: 37:         CCPR1L = (char)(-((particion1 >> 2)-94));
  5768     155C  082B               	movf	(i1PWM_duty@particion1+1)^(0+128),w
  5769     155D  00A7               	movwf	(??i1_PWM_duty^(0+128)+1)
  5770     155E  082A               	movf	i1PWM_duty@particion1^(0+128),w
  5771     155F  00A6               	movwf	??i1_PWM_duty^(0+128)
  5772     1560  0D27               	rlf	(??i1_PWM_duty^(0+128)+1),w
  5773     1561  0CA7               	rrf	(??i1_PWM_duty^(0+128)+1),f
  5774     1562  0CA6               	rrf	??i1_PWM_duty^(0+128),f
  5775     1563  0D27               	rlf	(??i1_PWM_duty^(0+128)+1),w
  5776     1564  0CA7               	rrf	(??i1_PWM_duty^(0+128)+1),f
  5777     1565  0CA6               	rrf	??i1_PWM_duty^(0+128),f
  5778     1566  0826               	movf	??i1_PWM_duty^(0+128),w
  5779     1567  3EA2               	addlw	162
  5780     1568  3AFF               	xorlw	255
  5781     1569  3E01               	addlw	1
  5782     156A  1283               	bcf	3,5	;RP0=0, select bank0
  5783     156B  1303               	bcf	3,6	;RP1=0, select bank0
  5784     156C  0095               	movwf	21	;volatile
  5785     156D                     i1l2982:
  5786                           
  5787                           ;PWM_SERVO1.c: 38:         CCP1CONbits.DC1B0 = (particion1&(0b1));
  5788     156D  1683               	bsf	3,5	;RP0=1, select bank1
  5789     156E  1303               	bcf	3,6	;RP1=0, select bank1
  5790     156F  082A               	movf	i1PWM_duty@particion1^(0+128),w
  5791     1570  3901               	andlw	1
  5792     1571  00A6               	movwf	??i1_PWM_duty^(0+128)
  5793     1572  0EA6               	swapf	??i1_PWM_duty^(0+128),f
  5794     1573  1283               	bcf	3,5	;RP0=0, select bank0
  5795     1574  1303               	bcf	3,6	;RP1=0, select bank0
  5796     1575  0817               	movf	23,w	;volatile
  5797     1576  1683               	bsf	3,5	;RP0=1, select bank1
  5798     1577  1303               	bcf	3,6	;RP1=0, select bank1
  5799     1578  0626               	xorwf	??i1_PWM_duty^(0+128),w
  5800     1579  39EF               	andlw	-17
  5801     157A  0626               	xorwf	??i1_PWM_duty^(0+128),w
  5802     157B  1283               	bcf	3,5	;RP0=0, select bank0
  5803     157C  1303               	bcf	3,6	;RP1=0, select bank0
  5804     157D  0097               	movwf	23	;volatile
  5805     157E                     i1l2984:
  5806                           
  5807                           ;PWM_SERVO1.c: 39:         CCP1CONbits.DC1B1 = ((particion1>>1) &(0b1));
  5808     157E  1683               	bsf	3,5	;RP0=1, select bank1
  5809     157F  1303               	bcf	3,6	;RP1=0, select bank1
  5810     1580  082B               	movf	(i1PWM_duty@particion1+1)^(0+128),w
  5811     1581  00A7               	movwf	(??i1_PWM_duty^(0+128)+1)
  5812     1582  082A               	movf	i1PWM_duty@particion1^(0+128),w
  5813     1583  00A6               	movwf	??i1_PWM_duty^(0+128)
  5814     1584  0D27               	rlf	(??i1_PWM_duty^(0+128)+1),w
  5815     1585  0CA7               	rrf	(??i1_PWM_duty^(0+128)+1),f
  5816     1586  0CA6               	rrf	??i1_PWM_duty^(0+128),f
  5817     1587  0826               	movf	??i1_PWM_duty^(0+128),w
  5818     1588  3901               	andlw	1
  5819     1589  00A8               	movwf	(??i1_PWM_duty+2)^(0+128)
  5820     158A  0EA8               	swapf	(??i1_PWM_duty+2)^(0+128),f
  5821     158B  0DA8               	rlf	(??i1_PWM_duty+2)^(0+128),f
  5822     158C  1283               	bcf	3,5	;RP0=0, select bank0
  5823     158D  1303               	bcf	3,6	;RP1=0, select bank0
  5824     158E  0817               	movf	23,w	;volatile
  5825     158F  1683               	bsf	3,5	;RP0=1, select bank1
  5826     1590  1303               	bcf	3,6	;RP1=0, select bank1
  5827     1591  0628               	xorwf	(??i1_PWM_duty+2)^(0+128),w
  5828     1592  39DF               	andlw	-33
  5829     1593  0628               	xorwf	(??i1_PWM_duty+2)^(0+128),w
  5830     1594  1283               	bcf	3,5	;RP0=0, select bank0
  5831     1595  1303               	bcf	3,6	;RP1=0, select bank0
  5832     1596  0097               	movwf	23	;volatile
  5833                           
  5834                           ;PWM_SERVO1.c: 40:     }
  5835     1597  2E2C               	goto	i1l150
  5836     1598                     i1l2986:
  5837     1598  3002               	movlw	2
  5838     1599  0629               	xorwf	i1PWM_duty@canal^(0+128),w
  5839     159A  1D03               	btfss	3,2
  5840     159B  2D9D               	goto	u480_21
  5841     159C  2D9E               	goto	u480_20
  5842     159D                     u480_21:
  5843     159D  2E2C               	goto	i1l150
  5844     159E                     u480_20:
  5845     159E                     i1l2988:
  5846                           
  5847                           ;PWM_SERVO1.c: 42:         int particion2 = (int)(4*duty/((1.0f/4000000)*16));
  5848     159E  0825               	movf	(i1PWM_duty@duty+3)^(0+128),w
  5849     159F  1283               	bcf	3,5	;RP0=0, select bank0
  5850     15A0  1303               	bcf	3,6	;RP1=0, select bank0
  5851     15A1  00C1               	movwf	i1___flmul@a+3
  5852     15A2  1683               	bsf	3,5	;RP0=1, select bank1
  5853     15A3  1303               	bcf	3,6	;RP1=0, select bank1
  5854     15A4  0824               	movf	(i1PWM_duty@duty+2)^(0+128),w
  5855     15A5  1283               	bcf	3,5	;RP0=0, select bank0
  5856     15A6  1303               	bcf	3,6	;RP1=0, select bank0
  5857     15A7  00C0               	movwf	i1___flmul@a+2
  5858     15A8  1683               	bsf	3,5	;RP0=1, select bank1
  5859     15A9  1303               	bcf	3,6	;RP1=0, select bank1
  5860     15AA  0823               	movf	(i1PWM_duty@duty+1)^(0+128),w
  5861     15AB  1283               	bcf	3,5	;RP0=0, select bank0
  5862     15AC  1303               	bcf	3,6	;RP1=0, select bank0
  5863     15AD  00BF               	movwf	i1___flmul@a+1
  5864     15AE  1683               	bsf	3,5	;RP0=1, select bank1
  5865     15AF  1303               	bcf	3,6	;RP1=0, select bank1
  5866     15B0  0822               	movf	i1PWM_duty@duty^(0+128),w
  5867     15B1  1283               	bcf	3,5	;RP0=0, select bank0
  5868     15B2  1303               	bcf	3,6	;RP1=0, select bank0
  5869     15B3  00BE               	movwf	i1___flmul@a
  5870     15B4  3040               	movlw	64
  5871     15B5  00BD               	movwf	i1___flmul@b+3
  5872     15B6  3080               	movlw	128
  5873     15B7  00BC               	movwf	i1___flmul@b+2
  5874     15B8  3000               	movlw	0
  5875     15B9  00BB               	movwf	i1___flmul@b+1
  5876     15BA  3000               	movlw	0
  5877     15BB  00BA               	movwf	i1___flmul@b
  5878     15BC  120A  158A  24BB  160A  118A  	fcall	i1___flmul
  5879     15C1  1283               	bcf	3,5	;RP0=0, select bank0
  5880     15C2  1303               	bcf	3,6	;RP1=0, select bank0
  5881     15C3  083D               	movf	?i1___flmul+3,w
  5882     15C4  00A7               	movwf	i1___fldiv@b+3
  5883     15C5  083C               	movf	?i1___flmul+2,w
  5884     15C6  00A6               	movwf	i1___fldiv@b+2
  5885     15C7  083B               	movf	?i1___flmul+1,w
  5886     15C8  00A5               	movwf	i1___fldiv@b+1
  5887     15C9  083A               	movf	?i1___flmul,w
  5888     15CA  00A4               	movwf	i1___fldiv@b
  5889     15CB  3036               	movlw	54
  5890     15CC  00A3               	movwf	i1___fldiv@a+3
  5891     15CD  3086               	movlw	134
  5892     15CE  00A2               	movwf	i1___fldiv@a+2
  5893     15CF  3037               	movlw	55
  5894     15D0  00A1               	movwf	i1___fldiv@a+1
  5895     15D1  30BD               	movlw	189
  5896     15D2  00A0               	movwf	i1___fldiv@a
  5897     15D3  160A  118A  262D  160A  118A  	fcall	i1___fldiv
  5898     15D8  1283               	bcf	3,5	;RP0=0, select bank0
  5899     15D9  1303               	bcf	3,6	;RP1=0, select bank0
  5900     15DA  0823               	movf	?i1___fldiv+3,w
  5901     15DB  00EB               	movwf	i1___fltol@f1+3
  5902     15DC  0822               	movf	?i1___fldiv+2,w
  5903     15DD  00EA               	movwf	i1___fltol@f1+2
  5904     15DE  0821               	movf	?i1___fldiv+1,w
  5905     15DF  00E9               	movwf	i1___fltol@f1+1
  5906     15E0  0820               	movf	?i1___fldiv,w
  5907     15E1  00E8               	movwf	i1___fltol@f1
  5908     15E2  160A  118A  2072  160A  118A  	fcall	i1___fltol
  5909     15E7  1283               	bcf	3,5	;RP0=0, select bank0
  5910     15E8  1303               	bcf	3,6	;RP1=0, select bank0
  5911     15E9  0869               	movf	?i1___fltol+1,w
  5912     15EA  1683               	bsf	3,5	;RP0=1, select bank1
  5913     15EB  1303               	bcf	3,6	;RP1=0, select bank1
  5914     15EC  00AD               	movwf	(i1PWM_duty@particion2+1)^(0+128)
  5915     15ED  1283               	bcf	3,5	;RP0=0, select bank0
  5916     15EE  1303               	bcf	3,6	;RP1=0, select bank0
  5917     15EF  0868               	movf	?i1___fltol,w
  5918     15F0  1683               	bsf	3,5	;RP0=1, select bank1
  5919     15F1  1303               	bcf	3,6	;RP1=0, select bank1
  5920     15F2  00AC               	movwf	i1PWM_duty@particion2^(0+128)
  5921     15F3                     i1l2990:
  5922                           
  5923                           ;PWM_SERVO1.c: 43:         CCPR2L = (char)(((particion2 >> 2)+94));
  5924     15F3  082D               	movf	(i1PWM_duty@particion2+1)^(0+128),w
  5925     15F4  00A7               	movwf	(??i1_PWM_duty^(0+128)+1)
  5926     15F5  082C               	movf	i1PWM_duty@particion2^(0+128),w
  5927     15F6  00A6               	movwf	??i1_PWM_duty^(0+128)
  5928     15F7  0D27               	rlf	(??i1_PWM_duty^(0+128)+1),w
  5929     15F8  0CA7               	rrf	(??i1_PWM_duty^(0+128)+1),f
  5930     15F9  0CA6               	rrf	??i1_PWM_duty^(0+128),f
  5931     15FA  0D27               	rlf	(??i1_PWM_duty^(0+128)+1),w
  5932     15FB  0CA7               	rrf	(??i1_PWM_duty^(0+128)+1),f
  5933     15FC  0CA6               	rrf	??i1_PWM_duty^(0+128),f
  5934     15FD  0826               	movf	??i1_PWM_duty^(0+128),w
  5935     15FE  3E5E               	addlw	94
  5936     15FF  1283               	bcf	3,5	;RP0=0, select bank0
  5937     1600  1303               	bcf	3,6	;RP1=0, select bank0
  5938     1601  009B               	movwf	27	;volatile
  5939     1602                     i1l2992:
  5940                           
  5941                           ;PWM_SERVO1.c: 44:         CCP2CONbits.DC2B0 = (particion2&(0b1));
  5942     1602  1683               	bsf	3,5	;RP0=1, select bank1
  5943     1603  1303               	bcf	3,6	;RP1=0, select bank1
  5944     1604  082C               	movf	i1PWM_duty@particion2^(0+128),w
  5945     1605  3901               	andlw	1
  5946     1606  00A6               	movwf	??i1_PWM_duty^(0+128)
  5947     1607  0EA6               	swapf	??i1_PWM_duty^(0+128),f
  5948     1608  1283               	bcf	3,5	;RP0=0, select bank0
  5949     1609  1303               	bcf	3,6	;RP1=0, select bank0
  5950     160A  081D               	movf	29,w	;volatile
  5951     160B  1683               	bsf	3,5	;RP0=1, select bank1
  5952     160C  1303               	bcf	3,6	;RP1=0, select bank1
  5953     160D  0626               	xorwf	??i1_PWM_duty^(0+128),w
  5954     160E  39EF               	andlw	-17
  5955     160F  0626               	xorwf	??i1_PWM_duty^(0+128),w
  5956     1610  1283               	bcf	3,5	;RP0=0, select bank0
  5957     1611  1303               	bcf	3,6	;RP1=0, select bank0
  5958     1612  009D               	movwf	29	;volatile
  5959     1613                     i1l2994:
  5960                           
  5961                           ;PWM_SERVO1.c: 45:         CCP2CONbits.DC2B1 = ((particion2>>1) &(0b1));
  5962     1613  1683               	bsf	3,5	;RP0=1, select bank1
  5963     1614  1303               	bcf	3,6	;RP1=0, select bank1
  5964     1615  082D               	movf	(i1PWM_duty@particion2+1)^(0+128),w
  5965     1616  00A7               	movwf	(??i1_PWM_duty^(0+128)+1)
  5966     1617  082C               	movf	i1PWM_duty@particion2^(0+128),w
  5967     1618  00A6               	movwf	??i1_PWM_duty^(0+128)
  5968     1619  0D27               	rlf	(??i1_PWM_duty^(0+128)+1),w
  5969     161A  0CA7               	rrf	(??i1_PWM_duty^(0+128)+1),f
  5970     161B  0CA6               	rrf	??i1_PWM_duty^(0+128),f
  5971     161C  0826               	movf	??i1_PWM_duty^(0+128),w
  5972     161D  3901               	andlw	1
  5973     161E  00A8               	movwf	(??i1_PWM_duty+2)^(0+128)
  5974     161F  0EA8               	swapf	(??i1_PWM_duty+2)^(0+128),f
  5975     1620  0DA8               	rlf	(??i1_PWM_duty+2)^(0+128),f
  5976     1621  1283               	bcf	3,5	;RP0=0, select bank0
  5977     1622  1303               	bcf	3,6	;RP1=0, select bank0
  5978     1623  081D               	movf	29,w	;volatile
  5979     1624  1683               	bsf	3,5	;RP0=1, select bank1
  5980     1625  1303               	bcf	3,6	;RP1=0, select bank1
  5981     1626  0628               	xorwf	(??i1_PWM_duty+2)^(0+128),w
  5982     1627  39DF               	andlw	-33
  5983     1628  0628               	xorwf	(??i1_PWM_duty+2)^(0+128),w
  5984     1629  1283               	bcf	3,5	;RP0=0, select bank0
  5985     162A  1303               	bcf	3,6	;RP1=0, select bank0
  5986     162B  009D               	movwf	29	;volatile
  5987     162C                     i1l150:
  5988     162C  0008               	return
  5989     162D                     __end_ofi1_PWM_duty:
  5990                           
  5991                           	psect	text12
  5992     1072                     __ptext12:	
  5993 ;; *************** function i1___fltol *****************
  5994 ;; Defined at:
  5995 ;;		line 43 in file "C:\Program Files\Microchip\xc8\v2.40\pic\sources\c90\common\fltol.c"
  5996 ;; Parameters:    Size  Location     Type
  5997 ;;  f1              4   72[BANK0 ] void 
  5998 ;; Auto vars:     Size  Location     Type
  5999 ;;  exp1            1    1[BANK1 ] unsigned char 
  6000 ;;  sign1           1    0[BANK1 ] unsigned char 
  6001 ;; Return value:  Size  Location     Type
  6002 ;;                  4   72[BANK0 ] long 
  6003 ;; Registers used:
  6004 ;;		wreg, status,2, status,0
  6005 ;; Tracked objects:
  6006 ;;		On entry : 0/0
  6007 ;;		On exit  : 0/0
  6008 ;;		Unchanged: 0/0
  6009 ;; Data sizes:     COMMON   BANK0   BANK1   BANK3   BANK2
  6010 ;;      Params:         0       4       0       0       0
  6011 ;;      Locals:         0       0       2       0       0
  6012 ;;      Temps:          0       4       0       0       0
  6013 ;;      Totals:         0       8       2       0       0
  6014 ;;Total ram usage:       10 bytes
  6015 ;; Hardware stack levels used: 1
  6016 ;; This function calls:
  6017 ;;		Nothing
  6018 ;; This function is called by:
  6019 ;;		_isr
  6020 ;;		i1_PWM_duty
  6021 ;; This function uses a non-reentrant model
  6022 ;;
  6023                           
  6024     1072                     i1___fltol:	
  6025                           ;psect for function i1___fltol
  6026                           
  6027     1072                     i1l2328:	
  6028                           ;incstack = 0
  6029                           ; Regs used in i1___fltol: [wreg+status,2+status,0]
  6030                           
  6031     1072  1003               	clrc
  6032     1073  1283               	bcf	3,5	;RP0=0, select bank0
  6033     1074  1303               	bcf	3,6	;RP1=0, select bank0
  6034     1075  0D6A               	rlf	i1___fltol@f1+2,w
  6035     1076  0D6B               	rlf	i1___fltol@f1+3,w
  6036     1077  1683               	bsf	3,5	;RP0=1, select bank1
  6037     1078  1303               	bcf	3,6	;RP1=0, select bank1
  6038     1079  00A1               	movwf	i1___fltol@exp1^(0+128)
  6039     107A  0821               	movf	i1___fltol@exp1^(0+128),w
  6040     107B  1D03               	btfss	3,2
  6041     107C  287E               	goto	u342_21
  6042     107D  287F               	goto	u342_20
  6043     107E                     u342_21:
  6044     107E  288A               	goto	i1l2334
  6045     107F                     u342_20:
  6046     107F                     i1l2330:
  6047     107F  3000               	movlw	0
  6048     1080  1283               	bcf	3,5	;RP0=0, select bank0
  6049     1081  1303               	bcf	3,6	;RP1=0, select bank0
  6050     1082  00EB               	movwf	?i1___fltol+3
  6051     1083  3000               	movlw	0
  6052     1084  00EA               	movwf	?i1___fltol+2
  6053     1085  3000               	movlw	0
  6054     1086  00E9               	movwf	?i1___fltol+1
  6055     1087  3000               	movlw	0
  6056     1088  00E8               	movwf	?i1___fltol
  6057     1089  28FF               	goto	i1l422
  6058     108A                     i1l2334:
  6059     108A  1283               	bcf	3,5	;RP0=0, select bank0
  6060     108B  1303               	bcf	3,6	;RP1=0, select bank0
  6061     108C  0868               	movf	i1___fltol@f1,w
  6062     108D  00EC               	movwf	??i1___fltol
  6063     108E  0869               	movf	i1___fltol@f1+1,w
  6064     108F  00ED               	movwf	??i1___fltol+1
  6065     1090  086A               	movf	i1___fltol@f1+2,w
  6066     1091  00EE               	movwf	??i1___fltol+2
  6067     1092  086B               	movf	i1___fltol@f1+3,w
  6068     1093  00EF               	movwf	??i1___fltol+3
  6069     1094  301F               	movlw	31
  6070     1095                     u343_25:
  6071     1095  1003               	clrc
  6072     1096  0CEF               	rrf	??i1___fltol+3,f
  6073     1097  0CEE               	rrf	??i1___fltol+2,f
  6074     1098  0CED               	rrf	??i1___fltol+1,f
  6075     1099  0CEC               	rrf	??i1___fltol,f
  6076     109A                     u343_20:
  6077     109A  3EFF               	addlw	-1
  6078     109B  1D03               	skipz
  6079     109C  2895               	goto	u343_25
  6080     109D  086C               	movf	??i1___fltol,w
  6081     109E  1683               	bsf	3,5	;RP0=1, select bank1
  6082     109F  1303               	bcf	3,6	;RP1=0, select bank1
  6083     10A0  00A0               	movwf	i1___fltol@sign1^(0+128)
  6084     10A1                     i1l2336:
  6085     10A1  1283               	bcf	3,5	;RP0=0, select bank0
  6086     10A2  1303               	bcf	3,6	;RP1=0, select bank0
  6087     10A3  17EA               	bsf	i1___fltol@f1+2,7
  6088     10A4                     i1l2338:
  6089     10A4  30FF               	movlw	255
  6090     10A5  05E8               	andwf	i1___fltol@f1,f
  6091     10A6  30FF               	movlw	255
  6092     10A7  05E9               	andwf	i1___fltol@f1+1,f
  6093     10A8  30FF               	movlw	255
  6094     10A9  05EA               	andwf	i1___fltol@f1+2,f
  6095     10AA  3000               	movlw	0
  6096     10AB  05EB               	andwf	i1___fltol@f1+3,f
  6097     10AC                     i1l2340:
  6098     10AC  3096               	movlw	150
  6099     10AD  1683               	bsf	3,5	;RP0=1, select bank1
  6100     10AE  1303               	bcf	3,6	;RP1=0, select bank1
  6101     10AF  02A1               	subwf	i1___fltol@exp1^(0+128),f
  6102     10B0                     i1l2342:
  6103     10B0  1FA1               	btfss	i1___fltol@exp1^(0+128),7
  6104     10B1  28B3               	goto	u344_21
  6105     10B2  28B4               	goto	u344_20
  6106     10B3                     u344_21:
  6107     10B3  28D2               	goto	i1l2352
  6108     10B4                     u344_20:
  6109     10B4                     i1l2344:
  6110     10B4  0821               	movf	i1___fltol@exp1^(0+128),w
  6111     10B5  3A80               	xorlw	128
  6112     10B6  3E97               	addlw	151
  6113     10B7  1803               	skipnc
  6114     10B8  28BA               	goto	u345_21
  6115     10B9  28BB               	goto	u345_20
  6116     10BA                     u345_21:
  6117     10BA  28BC               	goto	i1l2350
  6118     10BB                     u345_20:
  6119     10BB  287F               	goto	i1l2330
  6120     10BC                     i1l2350:
  6121     10BC  3001               	movlw	1
  6122     10BD                     u346_25:
  6123     10BD  1003               	clrc
  6124     10BE  1283               	bcf	3,5	;RP0=0, select bank0
  6125     10BF  1303               	bcf	3,6	;RP1=0, select bank0
  6126     10C0  0CEB               	rrf	i1___fltol@f1+3,f
  6127     10C1  0CEA               	rrf	i1___fltol@f1+2,f
  6128     10C2  0CE9               	rrf	i1___fltol@f1+1,f
  6129     10C3  0CE8               	rrf	i1___fltol@f1,f
  6130     10C4  3EFF               	addlw	-1
  6131     10C5  1D03               	skipz
  6132     10C6  28BD               	goto	u346_25
  6133     10C7  3001               	movlw	1
  6134     10C8  00EC               	movwf	??i1___fltol
  6135     10C9  086C               	movf	??i1___fltol,w
  6136     10CA  1683               	bsf	3,5	;RP0=1, select bank1
  6137     10CB  1303               	bcf	3,6	;RP1=0, select bank1
  6138     10CC  07A1               	addwf	i1___fltol@exp1^(0+128),f
  6139     10CD  1D03               	btfss	3,2
  6140     10CE  28D0               	goto	u347_21
  6141     10CF  28D1               	goto	u347_20
  6142     10D0                     u347_21:
  6143     10D0  28BC               	goto	i1l2350
  6144     10D1                     u347_20:
  6145     10D1  28ED               	goto	i1l2360
  6146     10D2                     i1l2352:
  6147     10D2  3020               	movlw	32
  6148     10D3  0221               	subwf	i1___fltol@exp1^(0+128),w
  6149     10D4  1C03               	skipc
  6150     10D5  28D7               	goto	u348_21
  6151     10D6  28D8               	goto	u348_20
  6152     10D7                     u348_21:
  6153     10D7  28E8               	goto	i1l429
  6154     10D8                     u348_20:
  6155     10D8  287F               	goto	i1l2330
  6156     10D9                     i1l2358:
  6157     10D9  3001               	movlw	1
  6158     10DA  1283               	bcf	3,5	;RP0=0, select bank0
  6159     10DB  1303               	bcf	3,6	;RP1=0, select bank0
  6160     10DC  00EC               	movwf	??i1___fltol
  6161     10DD                     u349_25:
  6162     10DD  1003               	clrc
  6163     10DE  0DE8               	rlf	i1___fltol@f1,f
  6164     10DF  0DE9               	rlf	i1___fltol@f1+1,f
  6165     10E0  0DEA               	rlf	i1___fltol@f1+2,f
  6166     10E1  0DEB               	rlf	i1___fltol@f1+3,f
  6167     10E2  0BEC               	decfsz	??i1___fltol,f
  6168     10E3  28DD               	goto	u349_25
  6169     10E4  3001               	movlw	1
  6170     10E5  1683               	bsf	3,5	;RP0=1, select bank1
  6171     10E6  1303               	bcf	3,6	;RP1=0, select bank1
  6172     10E7  02A1               	subwf	i1___fltol@exp1^(0+128),f
  6173     10E8                     i1l429:
  6174     10E8  0821               	movf	i1___fltol@exp1^(0+128),w
  6175     10E9  1D03               	btfss	3,2
  6176     10EA  28EC               	goto	u350_21
  6177     10EB  28ED               	goto	u350_20
  6178     10EC                     u350_21:
  6179     10EC  28D9               	goto	i1l2358
  6180     10ED                     u350_20:
  6181     10ED                     i1l2360:
  6182     10ED  0820               	movf	i1___fltol@sign1^(0+128),w
  6183     10EE  1903               	btfsc	3,2
  6184     10EF  28F1               	goto	u351_21
  6185     10F0  28F2               	goto	u351_20
  6186     10F1                     u351_21:
  6187     10F1  28FF               	goto	i1l432
  6188     10F2                     u351_20:
  6189     10F2                     i1l2362:
  6190     10F2  1283               	bcf	3,5	;RP0=0, select bank0
  6191     10F3  1303               	bcf	3,6	;RP1=0, select bank0
  6192     10F4  09E8               	comf	i1___fltol@f1,f
  6193     10F5  09E9               	comf	i1___fltol@f1+1,f
  6194     10F6  09EA               	comf	i1___fltol@f1+2,f
  6195     10F7  09EB               	comf	i1___fltol@f1+3,f
  6196     10F8  0AE8               	incf	i1___fltol@f1,f
  6197     10F9  1903               	skipnz
  6198     10FA  0AE9               	incf	i1___fltol@f1+1,f
  6199     10FB  1903               	skipnz
  6200     10FC  0AEA               	incf	i1___fltol@f1+2,f
  6201     10FD  1903               	skipnz
  6202     10FE  0AEB               	incf	i1___fltol@f1+3,f
  6203     10FF                     i1l432:
  6204     10FF                     i1l422:
  6205     10FF  0008               	return
  6206     1100                     __end_ofi1___fltol:
  6207                           
  6208                           	psect	text13
  6209     0CBB                     __ptext13:	
  6210 ;; *************** function i1___flmul *****************
  6211 ;; Defined at:
  6212 ;;		line 8 in file "C:\Program Files\Microchip\xc8\v2.40\pic\sources\c90\common\sprcmul.c"
  6213 ;; Parameters:    Size  Location     Type
  6214 ;;  b               4   26[BANK0 ] long 
  6215 ;;  a               4   30[BANK0 ] long 
  6216 ;; Auto vars:     Size  Location     Type
  6217 ;;  prod            4   46[BANK0 ] struct .
  6218 ;;  grs             4   40[BANK0 ] unsigned long 
  6219 ;;  temp            2   50[BANK0 ] struct .
  6220 ;;  bexp            1   45[BANK0 ] unsigned char 
  6221 ;;  aexp            1   44[BANK0 ] unsigned char 
  6222 ;;  sign            1   39[BANK0 ] unsigned char 
  6223 ;; Return value:  Size  Location     Type
  6224 ;;                  4   26[BANK0 ] unsigned char 
  6225 ;; Registers used:
  6226 ;;		wreg, status,2, status,0, btemp+1, pclath, cstack
  6227 ;; Tracked objects:
  6228 ;;		On entry : 0/0
  6229 ;;		On exit  : 0/0
  6230 ;;		Unchanged: 0/0
  6231 ;; Data sizes:     COMMON   BANK0   BANK1   BANK3   BANK2
  6232 ;;      Params:         0       8       0       0       0
  6233 ;;      Locals:         0      13       0       0       0
  6234 ;;      Temps:          0       5       0       0       0
  6235 ;;      Totals:         0      26       0       0       0
  6236 ;;Total ram usage:       26 bytes
  6237 ;; Hardware stack levels used: 1
  6238 ;; Hardware stack levels required when called: 1
  6239 ;; This function calls:
  6240 ;;		i1__Umul8_16
  6241 ;; This function is called by:
  6242 ;;		_isr
  6243 ;;		i1_PWM_duty
  6244 ;; This function uses a non-reentrant model
  6245 ;;
  6246                           
  6247     0CBB                     i1___flmul:	
  6248                           ;psect for function i1___flmul
  6249                           
  6250     0CBB                     i1l2506:	
  6251                           ;incstack = 0
  6252                           ; Regs used in i1___flmul: [wreg+status,2+status,0+btemp+1+pclath+cstack]
  6253                           
  6254     0CBB  1283               	bcf	3,5	;RP0=0, select bank0
  6255     0CBC  1303               	bcf	3,6	;RP1=0, select bank0
  6256     0CBD  083D               	movf	i1___flmul@b+3,w
  6257     0CBE  3980               	andlw	128
  6258     0CBF  00C7               	movwf	i1___flmul@sign
  6259     0CC0                     i1l2508:
  6260     0CC0  083D               	movf	i1___flmul@b+3,w
  6261     0CC1  00C2               	movwf	??i1___flmul
  6262     0CC2  0742               	addwf	??i1___flmul,w
  6263     0CC3  00CD               	movwf	i1___flmul@bexp
  6264     0CC4                     i1l2510:
  6265     0CC4  1FBC               	btfss	i1___flmul@b+2,7
  6266     0CC5  2CC7               	goto	u381_21
  6267     0CC6  2CC8               	goto	u381_20
  6268     0CC7                     u381_21:
  6269     0CC7  2CC9               	goto	i1l2514
  6270     0CC8                     u381_20:
  6271     0CC8                     i1l2512:
  6272     0CC8  144D               	bsf	i1___flmul@bexp,0
  6273     0CC9                     i1l2514:
  6274     0CC9  084D               	movf	i1___flmul@bexp,w
  6275     0CCA  1903               	btfsc	3,2
  6276     0CCB  2CCD               	goto	u382_21
  6277     0CCC  2CCE               	goto	u382_20
  6278     0CCD                     u382_21:
  6279     0CCD  2CDD               	goto	i1l2522
  6280     0CCE                     u382_20:
  6281     0CCE                     i1l2516:
  6282     0CCE  0A4D               	incf	i1___flmul@bexp,w
  6283     0CCF  1D03               	btfss	3,2
  6284     0CD0  2CD2               	goto	u383_21
  6285     0CD1  2CD3               	goto	u383_20
  6286     0CD2                     u383_21:
  6287     0CD2  2CDB               	goto	i1l2520
  6288     0CD3                     u383_20:
  6289     0CD3                     i1l2518:
  6290     0CD3  3000               	movlw	0
  6291     0CD4  00BD               	movwf	i1___flmul@b+3
  6292     0CD5  3000               	movlw	0
  6293     0CD6  00BC               	movwf	i1___flmul@b+2
  6294     0CD7  3000               	movlw	0
  6295     0CD8  00BB               	movwf	i1___flmul@b+1
  6296     0CD9  3000               	movlw	0
  6297     0CDA  00BA               	movwf	i1___flmul@b
  6298     0CDB                     i1l2520:
  6299     0CDB  17BC               	bsf	i1___flmul@b+2,7
  6300     0CDC  2CE5               	goto	i1l2524
  6301     0CDD                     i1l2522:
  6302     0CDD  3000               	movlw	0
  6303     0CDE  00BD               	movwf	i1___flmul@b+3
  6304     0CDF  3000               	movlw	0
  6305     0CE0  00BC               	movwf	i1___flmul@b+2
  6306     0CE1  3000               	movlw	0
  6307     0CE2  00BB               	movwf	i1___flmul@b+1
  6308     0CE3  3000               	movlw	0
  6309     0CE4  00BA               	movwf	i1___flmul@b
  6310     0CE5                     i1l2524:
  6311     0CE5  0841               	movf	i1___flmul@a+3,w
  6312     0CE6  3980               	andlw	128
  6313     0CE7  00C2               	movwf	??i1___flmul
  6314     0CE8  0842               	movf	??i1___flmul,w
  6315     0CE9  06C7               	xorwf	i1___flmul@sign,f
  6316     0CEA                     i1l2526:
  6317     0CEA  0841               	movf	i1___flmul@a+3,w
  6318     0CEB  00C2               	movwf	??i1___flmul
  6319     0CEC  0742               	addwf	??i1___flmul,w
  6320     0CED  00CC               	movwf	i1___flmul@aexp
  6321     0CEE                     i1l2528:
  6322     0CEE  1FC0               	btfss	i1___flmul@a+2,7
  6323     0CEF  2CF1               	goto	u384_21
  6324     0CF0  2CF2               	goto	u384_20
  6325     0CF1                     u384_21:
  6326     0CF1  2CF3               	goto	i1l2532
  6327     0CF2                     u384_20:
  6328     0CF2                     i1l2530:
  6329     0CF2  144C               	bsf	i1___flmul@aexp,0
  6330     0CF3                     i1l2532:
  6331     0CF3  084C               	movf	i1___flmul@aexp,w
  6332     0CF4  1903               	btfsc	3,2
  6333     0CF5  2CF7               	goto	u385_21
  6334     0CF6  2CF8               	goto	u385_20
  6335     0CF7                     u385_21:
  6336     0CF7  2D07               	goto	i1l2540
  6337     0CF8                     u385_20:
  6338     0CF8                     i1l2534:
  6339     0CF8  0A4C               	incf	i1___flmul@aexp,w
  6340     0CF9  1D03               	btfss	3,2
  6341     0CFA  2CFC               	goto	u386_21
  6342     0CFB  2CFD               	goto	u386_20
  6343     0CFC                     u386_21:
  6344     0CFC  2D05               	goto	i1l2538
  6345     0CFD                     u386_20:
  6346     0CFD                     i1l2536:
  6347     0CFD  3000               	movlw	0
  6348     0CFE  00C1               	movwf	i1___flmul@a+3
  6349     0CFF  3000               	movlw	0
  6350     0D00  00C0               	movwf	i1___flmul@a+2
  6351     0D01  3000               	movlw	0
  6352     0D02  00BF               	movwf	i1___flmul@a+1
  6353     0D03  3000               	movlw	0
  6354     0D04  00BE               	movwf	i1___flmul@a
  6355     0D05                     i1l2538:
  6356     0D05  17C0               	bsf	i1___flmul@a+2,7
  6357     0D06  2D0F               	goto	i1l2542
  6358     0D07                     i1l2540:
  6359     0D07  3000               	movlw	0
  6360     0D08  00C1               	movwf	i1___flmul@a+3
  6361     0D09  3000               	movlw	0
  6362     0D0A  00C0               	movwf	i1___flmul@a+2
  6363     0D0B  3000               	movlw	0
  6364     0D0C  00BF               	movwf	i1___flmul@a+1
  6365     0D0D  3000               	movlw	0
  6366     0D0E  00BE               	movwf	i1___flmul@a
  6367     0D0F                     i1l2542:
  6368     0D0F  084C               	movf	i1___flmul@aexp,w
  6369     0D10  1903               	btfsc	3,2
  6370     0D11  2D13               	goto	u387_21
  6371     0D12  2D14               	goto	u387_20
  6372     0D13                     u387_21:
  6373     0D13  2D19               	goto	i1l2546
  6374     0D14                     u387_20:
  6375     0D14                     i1l2544:
  6376     0D14  084D               	movf	i1___flmul@bexp,w
  6377     0D15  1D03               	btfss	3,2
  6378     0D16  2D18               	goto	u388_21
  6379     0D17  2D19               	goto	u388_20
  6380     0D18                     u388_21:
  6381     0D18  2D22               	goto	i1l2550
  6382     0D19                     u388_20:
  6383     0D19                     i1l2546:
  6384     0D19  3000               	movlw	0
  6385     0D1A  00BD               	movwf	?i1___flmul+3
  6386     0D1B  3000               	movlw	0
  6387     0D1C  00BC               	movwf	?i1___flmul+2
  6388     0D1D  3000               	movlw	0
  6389     0D1E  00BB               	movwf	?i1___flmul+1
  6390     0D1F  3000               	movlw	0
  6391     0D20  00BA               	movwf	?i1___flmul
  6392     0D21  2FFF               	goto	i1l625
  6393     0D22                     i1l2550:
  6394     0D22  083A               	movf	i1___flmul@b,w
  6395     0D23  00F0               	movwf	i1__Umul8_16@multiplicand
  6396     0D24  0840               	movf	i1___flmul@a+2,w
  6397     0D25  120A  158A  2003  120A  158A  	fcall	i1__Umul8_16
  6398     0D2A  0871               	movf	?i1__Umul8_16+1,w
  6399     0D2B  1283               	bcf	3,5	;RP0=0, select bank0
  6400     0D2C  1303               	bcf	3,6	;RP1=0, select bank0
  6401     0D2D  00D3               	movwf	i1___flmul@temp+1
  6402     0D2E  0870               	movf	?i1__Umul8_16,w
  6403     0D2F  00D2               	movwf	i1___flmul@temp
  6404     0D30                     i1l2552:
  6405     0D30  0852               	movf	i1___flmul@temp,w
  6406     0D31  00C2               	movwf	??i1___flmul
  6407     0D32  01C3               	clrf	??i1___flmul+1
  6408     0D33  01C4               	clrf	??i1___flmul+2
  6409     0D34  01C5               	clrf	??i1___flmul+3
  6410     0D35  0845               	movf	??i1___flmul+3,w
  6411     0D36  00CB               	movwf	i1___flmul@grs+3
  6412     0D37  0844               	movf	??i1___flmul+2,w
  6413     0D38  00CA               	movwf	i1___flmul@grs+2
  6414     0D39  0843               	movf	??i1___flmul+1,w
  6415     0D3A  00C9               	movwf	i1___flmul@grs+1
  6416     0D3B  0842               	movf	??i1___flmul,w
  6417     0D3C  00C8               	movwf	i1___flmul@grs
  6418     0D3D                     i1l2554:
  6419     0D3D  0853               	movf	i1___flmul@temp+1,w
  6420     0D3E  00C2               	movwf	??i1___flmul
  6421     0D3F  01C3               	clrf	??i1___flmul+1
  6422     0D40  01C4               	clrf	??i1___flmul+2
  6423     0D41  01C5               	clrf	??i1___flmul+3
  6424     0D42  0845               	movf	??i1___flmul+3,w
  6425     0D43  00D1               	movwf	i1___flmul@prod+3
  6426     0D44  0844               	movf	??i1___flmul+2,w
  6427     0D45  00D0               	movwf	i1___flmul@prod+2
  6428     0D46  0843               	movf	??i1___flmul+1,w
  6429     0D47  00CF               	movwf	i1___flmul@prod+1
  6430     0D48  0842               	movf	??i1___flmul,w
  6431     0D49  00CE               	movwf	i1___flmul@prod
  6432     0D4A  083B               	movf	i1___flmul@b+1,w
  6433     0D4B  00F0               	movwf	i1__Umul8_16@multiplicand
  6434     0D4C  083F               	movf	i1___flmul@a+1,w
  6435     0D4D  120A  158A  2003  120A  158A  	fcall	i1__Umul8_16
  6436     0D52  0871               	movf	?i1__Umul8_16+1,w
  6437     0D53  1283               	bcf	3,5	;RP0=0, select bank0
  6438     0D54  1303               	bcf	3,6	;RP1=0, select bank0
  6439     0D55  00D3               	movwf	i1___flmul@temp+1
  6440     0D56  0870               	movf	?i1__Umul8_16,w
  6441     0D57  00D2               	movwf	i1___flmul@temp
  6442     0D58                     i1l2556:
  6443     0D58  0852               	movf	i1___flmul@temp,w
  6444     0D59  00C2               	movwf	??i1___flmul
  6445     0D5A  01C3               	clrf	??i1___flmul+1
  6446     0D5B  01C4               	clrf	??i1___flmul+2
  6447     0D5C  01C5               	clrf	??i1___flmul+3
  6448     0D5D  0842               	movf	??i1___flmul,w
  6449     0D5E  07C8               	addwf	i1___flmul@grs,f
  6450     0D5F  0843               	movf	??i1___flmul+1,w
  6451     0D60  1103               	clrz
  6452     0D61  1803               	skipnc
  6453     0D62  3E01               	addlw	1
  6454     0D63  1903               	skipnz
  6455     0D64  2D66               	goto	u389_21
  6456     0D65  07C9               	addwf	i1___flmul@grs+1,f
  6457     0D66                     u389_21:
  6458     0D66  0844               	movf	??i1___flmul+2,w
  6459     0D67  1103               	clrz
  6460     0D68  1803               	skipnc
  6461     0D69  3E01               	addlw	1
  6462     0D6A  1903               	skipnz
  6463     0D6B  2D6D               	goto	u389_22
  6464     0D6C  07CA               	addwf	i1___flmul@grs+2,f
  6465     0D6D                     u389_22:
  6466     0D6D  0845               	movf	??i1___flmul+3,w
  6467     0D6E  1103               	clrz
  6468     0D6F  1803               	skipnc
  6469     0D70  3E01               	addlw	1
  6470     0D71  1903               	skipnz
  6471     0D72  2D74               	goto	u389_23
  6472     0D73  07CB               	addwf	i1___flmul@grs+3,f
  6473     0D74                     u389_23:
  6474     0D74                     i1l2558:
  6475     0D74  0853               	movf	i1___flmul@temp+1,w
  6476     0D75  00C2               	movwf	??i1___flmul
  6477     0D76  01C3               	clrf	??i1___flmul+1
  6478     0D77  01C4               	clrf	??i1___flmul+2
  6479     0D78  01C5               	clrf	??i1___flmul+3
  6480     0D79  0842               	movf	??i1___flmul,w
  6481     0D7A  07CE               	addwf	i1___flmul@prod,f
  6482     0D7B  0843               	movf	??i1___flmul+1,w
  6483     0D7C  1103               	clrz
  6484     0D7D  1803               	skipnc
  6485     0D7E  3E01               	addlw	1
  6486     0D7F  1903               	skipnz
  6487     0D80  2D82               	goto	u390_21
  6488     0D81  07CF               	addwf	i1___flmul@prod+1,f
  6489     0D82                     u390_21:
  6490     0D82  0844               	movf	??i1___flmul+2,w
  6491     0D83  1103               	clrz
  6492     0D84  1803               	skipnc
  6493     0D85  3E01               	addlw	1
  6494     0D86  1903               	skipnz
  6495     0D87  2D89               	goto	u390_22
  6496     0D88  07D0               	addwf	i1___flmul@prod+2,f
  6497     0D89                     u390_22:
  6498     0D89  0845               	movf	??i1___flmul+3,w
  6499     0D8A  1103               	clrz
  6500     0D8B  1803               	skipnc
  6501     0D8C  3E01               	addlw	1
  6502     0D8D  1903               	skipnz
  6503     0D8E  2D90               	goto	u390_23
  6504     0D8F  07D1               	addwf	i1___flmul@prod+3,f
  6505     0D90                     u390_23:
  6506     0D90  083C               	movf	i1___flmul@b+2,w
  6507     0D91  00F0               	movwf	i1__Umul8_16@multiplicand
  6508     0D92  083E               	movf	i1___flmul@a,w
  6509     0D93  120A  158A  2003  120A  158A  	fcall	i1__Umul8_16
  6510     0D98  0871               	movf	?i1__Umul8_16+1,w
  6511     0D99  1283               	bcf	3,5	;RP0=0, select bank0
  6512     0D9A  1303               	bcf	3,6	;RP1=0, select bank0
  6513     0D9B  00D3               	movwf	i1___flmul@temp+1
  6514     0D9C  0870               	movf	?i1__Umul8_16,w
  6515     0D9D  00D2               	movwf	i1___flmul@temp
  6516     0D9E                     i1l2560:
  6517     0D9E  0852               	movf	i1___flmul@temp,w
  6518     0D9F  00C2               	movwf	??i1___flmul
  6519     0DA0  01C3               	clrf	??i1___flmul+1
  6520     0DA1  01C4               	clrf	??i1___flmul+2
  6521     0DA2  01C5               	clrf	??i1___flmul+3
  6522     0DA3  0842               	movf	??i1___flmul,w
  6523     0DA4  07C8               	addwf	i1___flmul@grs,f
  6524     0DA5  0843               	movf	??i1___flmul+1,w
  6525     0DA6  1103               	clrz
  6526     0DA7  1803               	skipnc
  6527     0DA8  3E01               	addlw	1
  6528     0DA9  1903               	skipnz
  6529     0DAA  2DAC               	goto	u391_21
  6530     0DAB  07C9               	addwf	i1___flmul@grs+1,f
  6531     0DAC                     u391_21:
  6532     0DAC  0844               	movf	??i1___flmul+2,w
  6533     0DAD  1103               	clrz
  6534     0DAE  1803               	skipnc
  6535     0DAF  3E01               	addlw	1
  6536     0DB0  1903               	skipnz
  6537     0DB1  2DB3               	goto	u391_22
  6538     0DB2  07CA               	addwf	i1___flmul@grs+2,f
  6539     0DB3                     u391_22:
  6540     0DB3  0845               	movf	??i1___flmul+3,w
  6541     0DB4  1103               	clrz
  6542     0DB5  1803               	skipnc
  6543     0DB6  3E01               	addlw	1
  6544     0DB7  1903               	skipnz
  6545     0DB8  2DBA               	goto	u391_23
  6546     0DB9  07CB               	addwf	i1___flmul@grs+3,f
  6547     0DBA                     u391_23:
  6548     0DBA                     i1l2562:
  6549     0DBA  0853               	movf	i1___flmul@temp+1,w
  6550     0DBB  00C2               	movwf	??i1___flmul
  6551     0DBC  01C3               	clrf	??i1___flmul+1
  6552     0DBD  01C4               	clrf	??i1___flmul+2
  6553     0DBE  01C5               	clrf	??i1___flmul+3
  6554     0DBF  0842               	movf	??i1___flmul,w
  6555     0DC0  07CE               	addwf	i1___flmul@prod,f
  6556     0DC1  0843               	movf	??i1___flmul+1,w
  6557     0DC2  1103               	clrz
  6558     0DC3  1803               	skipnc
  6559     0DC4  3E01               	addlw	1
  6560     0DC5  1903               	skipnz
  6561     0DC6  2DC8               	goto	u392_21
  6562     0DC7  07CF               	addwf	i1___flmul@prod+1,f
  6563     0DC8                     u392_21:
  6564     0DC8  0844               	movf	??i1___flmul+2,w
  6565     0DC9  1103               	clrz
  6566     0DCA  1803               	skipnc
  6567     0DCB  3E01               	addlw	1
  6568     0DCC  1903               	skipnz
  6569     0DCD  2DCF               	goto	u392_22
  6570     0DCE  07D0               	addwf	i1___flmul@prod+2,f
  6571     0DCF                     u392_22:
  6572     0DCF  0845               	movf	??i1___flmul+3,w
  6573     0DD0  1103               	clrz
  6574     0DD1  1803               	skipnc
  6575     0DD2  3E01               	addlw	1
  6576     0DD3  1903               	skipnz
  6577     0DD4  2DD6               	goto	u392_23
  6578     0DD5  07D1               	addwf	i1___flmul@prod+3,f
  6579     0DD6                     u392_23:
  6580     0DD6                     i1l2564:
  6581     0DD6  3008               	movlw	8
  6582     0DD7  00C2               	movwf	??i1___flmul
  6583     0DD8                     u393_25:
  6584     0DD8  1003               	clrc
  6585     0DD9  0DC8               	rlf	i1___flmul@grs,f
  6586     0DDA  0DC9               	rlf	i1___flmul@grs+1,f
  6587     0DDB  0DCA               	rlf	i1___flmul@grs+2,f
  6588     0DDC  0DCB               	rlf	i1___flmul@grs+3,f
  6589     0DDD  0BC2               	decfsz	??i1___flmul,f
  6590     0DDE  2DD8               	goto	u393_25
  6591     0DDF                     i1l2566:
  6592     0DDF  083B               	movf	i1___flmul@b+1,w
  6593     0DE0  00F0               	movwf	i1__Umul8_16@multiplicand
  6594     0DE1  083E               	movf	i1___flmul@a,w
  6595     0DE2  120A  158A  2003  120A  158A  	fcall	i1__Umul8_16
  6596     0DE7  0871               	movf	?i1__Umul8_16+1,w
  6597     0DE8  1283               	bcf	3,5	;RP0=0, select bank0
  6598     0DE9  1303               	bcf	3,6	;RP1=0, select bank0
  6599     0DEA  00D3               	movwf	i1___flmul@temp+1
  6600     0DEB  0870               	movf	?i1__Umul8_16,w
  6601     0DEC  00D2               	movwf	i1___flmul@temp
  6602     0DED                     i1l2568:
  6603     0DED  0852               	movf	i1___flmul@temp,w
  6604     0DEE  00C2               	movwf	??i1___flmul
  6605     0DEF  0853               	movf	i1___flmul@temp+1,w
  6606     0DF0  00C3               	movwf	??i1___flmul+1
  6607     0DF1  01C4               	clrf	??i1___flmul+2
  6608     0DF2  01C5               	clrf	??i1___flmul+3
  6609     0DF3  0842               	movf	??i1___flmul,w
  6610     0DF4  07C8               	addwf	i1___flmul@grs,f
  6611     0DF5  0843               	movf	??i1___flmul+1,w
  6612     0DF6  1103               	clrz
  6613     0DF7  1803               	skipnc
  6614     0DF8  3E01               	addlw	1
  6615     0DF9  1903               	skipnz
  6616     0DFA  2DFC               	goto	u394_21
  6617     0DFB  07C9               	addwf	i1___flmul@grs+1,f
  6618     0DFC                     u394_21:
  6619     0DFC  0844               	movf	??i1___flmul+2,w
  6620     0DFD  1103               	clrz
  6621     0DFE  1803               	skipnc
  6622     0DFF  3E01               	addlw	1
  6623     0E00  1903               	skipnz
  6624     0E01  2E03               	goto	u394_22
  6625     0E02  07CA               	addwf	i1___flmul@grs+2,f
  6626     0E03                     u394_22:
  6627     0E03  0845               	movf	??i1___flmul+3,w
  6628     0E04  1103               	clrz
  6629     0E05  1803               	skipnc
  6630     0E06  3E01               	addlw	1
  6631     0E07  1903               	skipnz
  6632     0E08  2E0A               	goto	u394_23
  6633     0E09  07CB               	addwf	i1___flmul@grs+3,f
  6634     0E0A                     u394_23:
  6635     0E0A                     i1l2570:
  6636     0E0A  083A               	movf	i1___flmul@b,w
  6637     0E0B  00F0               	movwf	i1__Umul8_16@multiplicand
  6638     0E0C  083F               	movf	i1___flmul@a+1,w
  6639     0E0D  120A  158A  2003  120A  158A  	fcall	i1__Umul8_16
  6640     0E12  0871               	movf	?i1__Umul8_16+1,w
  6641     0E13  1283               	bcf	3,5	;RP0=0, select bank0
  6642     0E14  1303               	bcf	3,6	;RP1=0, select bank0
  6643     0E15  00D3               	movwf	i1___flmul@temp+1
  6644     0E16  0870               	movf	?i1__Umul8_16,w
  6645     0E17  00D2               	movwf	i1___flmul@temp
  6646     0E18                     i1l2572:
  6647     0E18  0852               	movf	i1___flmul@temp,w
  6648     0E19  00C2               	movwf	??i1___flmul
  6649     0E1A  0853               	movf	i1___flmul@temp+1,w
  6650     0E1B  00C3               	movwf	??i1___flmul+1
  6651     0E1C  01C4               	clrf	??i1___flmul+2
  6652     0E1D  01C5               	clrf	??i1___flmul+3
  6653     0E1E  0842               	movf	??i1___flmul,w
  6654     0E1F  07C8               	addwf	i1___flmul@grs,f
  6655     0E20  0843               	movf	??i1___flmul+1,w
  6656     0E21  1103               	clrz
  6657     0E22  1803               	skipnc
  6658     0E23  3E01               	addlw	1
  6659     0E24  1903               	skipnz
  6660     0E25  2E27               	goto	u395_21
  6661     0E26  07C9               	addwf	i1___flmul@grs+1,f
  6662     0E27                     u395_21:
  6663     0E27  0844               	movf	??i1___flmul+2,w
  6664     0E28  1103               	clrz
  6665     0E29  1803               	skipnc
  6666     0E2A  3E01               	addlw	1
  6667     0E2B  1903               	skipnz
  6668     0E2C  2E2E               	goto	u395_22
  6669     0E2D  07CA               	addwf	i1___flmul@grs+2,f
  6670     0E2E                     u395_22:
  6671     0E2E  0845               	movf	??i1___flmul+3,w
  6672     0E2F  1103               	clrz
  6673     0E30  1803               	skipnc
  6674     0E31  3E01               	addlw	1
  6675     0E32  1903               	skipnz
  6676     0E33  2E35               	goto	u395_23
  6677     0E34  07CB               	addwf	i1___flmul@grs+3,f
  6678     0E35                     u395_23:
  6679     0E35                     i1l2574:
  6680     0E35  3008               	movlw	8
  6681     0E36  00C2               	movwf	??i1___flmul
  6682     0E37                     u396_25:
  6683     0E37  1003               	clrc
  6684     0E38  0DC8               	rlf	i1___flmul@grs,f
  6685     0E39  0DC9               	rlf	i1___flmul@grs+1,f
  6686     0E3A  0DCA               	rlf	i1___flmul@grs+2,f
  6687     0E3B  0DCB               	rlf	i1___flmul@grs+3,f
  6688     0E3C  0BC2               	decfsz	??i1___flmul,f
  6689     0E3D  2E37               	goto	u396_25
  6690     0E3E  083A               	movf	i1___flmul@b,w
  6691     0E3F  00F0               	movwf	i1__Umul8_16@multiplicand
  6692     0E40  083E               	movf	i1___flmul@a,w
  6693     0E41  120A  158A  2003  120A  158A  	fcall	i1__Umul8_16
  6694     0E46  0871               	movf	?i1__Umul8_16+1,w
  6695     0E47  1283               	bcf	3,5	;RP0=0, select bank0
  6696     0E48  1303               	bcf	3,6	;RP1=0, select bank0
  6697     0E49  00D3               	movwf	i1___flmul@temp+1
  6698     0E4A  0870               	movf	?i1__Umul8_16,w
  6699     0E4B  00D2               	movwf	i1___flmul@temp
  6700     0E4C                     i1l2576:
  6701     0E4C  0852               	movf	i1___flmul@temp,w
  6702     0E4D  00C2               	movwf	??i1___flmul
  6703     0E4E  0853               	movf	i1___flmul@temp+1,w
  6704     0E4F  00C3               	movwf	??i1___flmul+1
  6705     0E50  01C4               	clrf	??i1___flmul+2
  6706     0E51  01C5               	clrf	??i1___flmul+3
  6707     0E52  0842               	movf	??i1___flmul,w
  6708     0E53  07C8               	addwf	i1___flmul@grs,f
  6709     0E54  0843               	movf	??i1___flmul+1,w
  6710     0E55  1103               	clrz
  6711     0E56  1803               	skipnc
  6712     0E57  3E01               	addlw	1
  6713     0E58  1903               	skipnz
  6714     0E59  2E5B               	goto	u397_21
  6715     0E5A  07C9               	addwf	i1___flmul@grs+1,f
  6716     0E5B                     u397_21:
  6717     0E5B  0844               	movf	??i1___flmul+2,w
  6718     0E5C  1103               	clrz
  6719     0E5D  1803               	skipnc
  6720     0E5E  3E01               	addlw	1
  6721     0E5F  1903               	skipnz
  6722     0E60  2E62               	goto	u397_22
  6723     0E61  07CA               	addwf	i1___flmul@grs+2,f
  6724     0E62                     u397_22:
  6725     0E62  0845               	movf	??i1___flmul+3,w
  6726     0E63  1103               	clrz
  6727     0E64  1803               	skipnc
  6728     0E65  3E01               	addlw	1
  6729     0E66  1903               	skipnz
  6730     0E67  2E69               	goto	u397_23
  6731     0E68  07CB               	addwf	i1___flmul@grs+3,f
  6732     0E69                     u397_23:
  6733     0E69                     i1l2578:
  6734     0E69  083B               	movf	i1___flmul@b+1,w
  6735     0E6A  00F0               	movwf	i1__Umul8_16@multiplicand
  6736     0E6B  0840               	movf	i1___flmul@a+2,w
  6737     0E6C  120A  158A  2003  120A  158A  	fcall	i1__Umul8_16
  6738     0E71  0871               	movf	?i1__Umul8_16+1,w
  6739     0E72  1283               	bcf	3,5	;RP0=0, select bank0
  6740     0E73  1303               	bcf	3,6	;RP1=0, select bank0
  6741     0E74  00D3               	movwf	i1___flmul@temp+1
  6742     0E75  0870               	movf	?i1__Umul8_16,w
  6743     0E76  00D2               	movwf	i1___flmul@temp
  6744     0E77  0852               	movf	i1___flmul@temp,w
  6745     0E78  00C2               	movwf	??i1___flmul
  6746     0E79  0853               	movf	i1___flmul@temp+1,w
  6747     0E7A  00C3               	movwf	??i1___flmul+1
  6748     0E7B  01C4               	clrf	??i1___flmul+2
  6749     0E7C  01C5               	clrf	??i1___flmul+3
  6750     0E7D  0842               	movf	??i1___flmul,w
  6751     0E7E  07CE               	addwf	i1___flmul@prod,f
  6752     0E7F  0843               	movf	??i1___flmul+1,w
  6753     0E80  1103               	clrz
  6754     0E81  1803               	skipnc
  6755     0E82  3E01               	addlw	1
  6756     0E83  1903               	skipnz
  6757     0E84  2E86               	goto	u398_21
  6758     0E85  07CF               	addwf	i1___flmul@prod+1,f
  6759     0E86                     u398_21:
  6760     0E86  0844               	movf	??i1___flmul+2,w
  6761     0E87  1103               	clrz
  6762     0E88  1803               	skipnc
  6763     0E89  3E01               	addlw	1
  6764     0E8A  1903               	skipnz
  6765     0E8B  2E8D               	goto	u398_22
  6766     0E8C  07D0               	addwf	i1___flmul@prod+2,f
  6767     0E8D                     u398_22:
  6768     0E8D  0845               	movf	??i1___flmul+3,w
  6769     0E8E  1103               	clrz
  6770     0E8F  1803               	skipnc
  6771     0E90  3E01               	addlw	1
  6772     0E91  1903               	skipnz
  6773     0E92  2E94               	goto	u398_23
  6774     0E93  07D1               	addwf	i1___flmul@prod+3,f
  6775     0E94                     u398_23:
  6776     0E94                     i1l2580:
  6777     0E94  083C               	movf	i1___flmul@b+2,w
  6778     0E95  00F0               	movwf	i1__Umul8_16@multiplicand
  6779     0E96  083F               	movf	i1___flmul@a+1,w
  6780     0E97  120A  158A  2003  120A  158A  	fcall	i1__Umul8_16
  6781     0E9C  0871               	movf	?i1__Umul8_16+1,w
  6782     0E9D  1283               	bcf	3,5	;RP0=0, select bank0
  6783     0E9E  1303               	bcf	3,6	;RP1=0, select bank0
  6784     0E9F  00D3               	movwf	i1___flmul@temp+1
  6785     0EA0  0870               	movf	?i1__Umul8_16,w
  6786     0EA1  00D2               	movwf	i1___flmul@temp
  6787     0EA2                     i1l2582:
  6788     0EA2  0852               	movf	i1___flmul@temp,w
  6789     0EA3  00C2               	movwf	??i1___flmul
  6790     0EA4  0853               	movf	i1___flmul@temp+1,w
  6791     0EA5  00C3               	movwf	??i1___flmul+1
  6792     0EA6  01C4               	clrf	??i1___flmul+2
  6793     0EA7  01C5               	clrf	??i1___flmul+3
  6794     0EA8  0842               	movf	??i1___flmul,w
  6795     0EA9  07CE               	addwf	i1___flmul@prod,f
  6796     0EAA  0843               	movf	??i1___flmul+1,w
  6797     0EAB  1103               	clrz
  6798     0EAC  1803               	skipnc
  6799     0EAD  3E01               	addlw	1
  6800     0EAE  1903               	skipnz
  6801     0EAF  2EB1               	goto	u399_21
  6802     0EB0  07CF               	addwf	i1___flmul@prod+1,f
  6803     0EB1                     u399_21:
  6804     0EB1  0844               	movf	??i1___flmul+2,w
  6805     0EB2  1103               	clrz
  6806     0EB3  1803               	skipnc
  6807     0EB4  3E01               	addlw	1
  6808     0EB5  1903               	skipnz
  6809     0EB6  2EB8               	goto	u399_22
  6810     0EB7  07D0               	addwf	i1___flmul@prod+2,f
  6811     0EB8                     u399_22:
  6812     0EB8  0845               	movf	??i1___flmul+3,w
  6813     0EB9  1103               	clrz
  6814     0EBA  1803               	skipnc
  6815     0EBB  3E01               	addlw	1
  6816     0EBC  1903               	skipnz
  6817     0EBD  2EBF               	goto	u399_23
  6818     0EBE  07D1               	addwf	i1___flmul@prod+3,f
  6819     0EBF                     u399_23:
  6820     0EBF  083C               	movf	i1___flmul@b+2,w
  6821     0EC0  00F0               	movwf	i1__Umul8_16@multiplicand
  6822     0EC1  0840               	movf	i1___flmul@a+2,w
  6823     0EC2  120A  158A  2003  120A  158A  	fcall	i1__Umul8_16
  6824     0EC7  0871               	movf	?i1__Umul8_16+1,w
  6825     0EC8  1283               	bcf	3,5	;RP0=0, select bank0
  6826     0EC9  1303               	bcf	3,6	;RP1=0, select bank0
  6827     0ECA  00D3               	movwf	i1___flmul@temp+1
  6828     0ECB  0870               	movf	?i1__Umul8_16,w
  6829     0ECC  00D2               	movwf	i1___flmul@temp
  6830     0ECD                     i1l2584:
  6831     0ECD  0852               	movf	i1___flmul@temp,w
  6832     0ECE  00C2               	movwf	??i1___flmul
  6833     0ECF  0853               	movf	i1___flmul@temp+1,w
  6834     0ED0  00C3               	movwf	??i1___flmul+1
  6835     0ED1  01C4               	clrf	??i1___flmul+2
  6836     0ED2  01C5               	clrf	??i1___flmul+3
  6837     0ED3  3008               	movlw	8
  6838     0ED4                     u400_25:
  6839     0ED4  1003               	clrc
  6840     0ED5  0DC2               	rlf	??i1___flmul,f
  6841     0ED6  0DC3               	rlf	??i1___flmul+1,f
  6842     0ED7  0DC4               	rlf	??i1___flmul+2,f
  6843     0ED8  0DC5               	rlf	??i1___flmul+3,f
  6844     0ED9                     u400_20:
  6845     0ED9  3EFF               	addlw	-1
  6846     0EDA  1D03               	skipz
  6847     0EDB  2ED4               	goto	u400_25
  6848     0EDC  0842               	movf	??i1___flmul,w
  6849     0EDD  07CE               	addwf	i1___flmul@prod,f
  6850     0EDE  0843               	movf	??i1___flmul+1,w
  6851     0EDF  1103               	clrz
  6852     0EE0  1803               	skipnc
  6853     0EE1  3E01               	addlw	1
  6854     0EE2  1903               	skipnz
  6855     0EE3  2EE5               	goto	u401_21
  6856     0EE4  07CF               	addwf	i1___flmul@prod+1,f
  6857     0EE5                     u401_21:
  6858     0EE5  0844               	movf	??i1___flmul+2,w
  6859     0EE6  1103               	clrz
  6860     0EE7  1803               	skipnc
  6861     0EE8  3E01               	addlw	1
  6862     0EE9  1903               	skipnz
  6863     0EEA  2EEC               	goto	u401_22
  6864     0EEB  07D0               	addwf	i1___flmul@prod+2,f
  6865     0EEC                     u401_22:
  6866     0EEC  0845               	movf	??i1___flmul+3,w
  6867     0EED  1103               	clrz
  6868     0EEE  1803               	skipnc
  6869     0EEF  3E01               	addlw	1
  6870     0EF0  1903               	skipnz
  6871     0EF1  2EF3               	goto	u401_23
  6872     0EF2  07D1               	addwf	i1___flmul@prod+3,f
  6873     0EF3                     u401_23:
  6874     0EF3                     i1l2586:
  6875     0EF3  0848               	movf	i1___flmul@grs,w
  6876     0EF4  00C2               	movwf	??i1___flmul
  6877     0EF5  0849               	movf	i1___flmul@grs+1,w
  6878     0EF6  00C3               	movwf	??i1___flmul+1
  6879     0EF7  084A               	movf	i1___flmul@grs+2,w
  6880     0EF8  00C4               	movwf	??i1___flmul+2
  6881     0EF9  084B               	movf	i1___flmul@grs+3,w
  6882     0EFA  00C5               	movwf	??i1___flmul+3
  6883     0EFB  3018               	movlw	24
  6884     0EFC                     u402_25:
  6885     0EFC  1003               	clrc
  6886     0EFD  0CC5               	rrf	??i1___flmul+3,f
  6887     0EFE  0CC4               	rrf	??i1___flmul+2,f
  6888     0EFF  0CC3               	rrf	??i1___flmul+1,f
  6889     0F00  0CC2               	rrf	??i1___flmul,f
  6890     0F01                     u402_20:
  6891     0F01  3EFF               	addlw	-1
  6892     0F02  1D03               	skipz
  6893     0F03  2EFC               	goto	u402_25
  6894     0F04  0842               	movf	??i1___flmul,w
  6895     0F05  07CE               	addwf	i1___flmul@prod,f
  6896     0F06  0843               	movf	??i1___flmul+1,w
  6897     0F07  1103               	clrz
  6898     0F08  1803               	skipnc
  6899     0F09  3E01               	addlw	1
  6900     0F0A  1903               	skipnz
  6901     0F0B  2F0D               	goto	u403_21
  6902     0F0C  07CF               	addwf	i1___flmul@prod+1,f
  6903     0F0D                     u403_21:
  6904     0F0D  0844               	movf	??i1___flmul+2,w
  6905     0F0E  1103               	clrz
  6906     0F0F  1803               	skipnc
  6907     0F10  3E01               	addlw	1
  6908     0F11  1903               	skipnz
  6909     0F12  2F14               	goto	u403_22
  6910     0F13  07D0               	addwf	i1___flmul@prod+2,f
  6911     0F14                     u403_22:
  6912     0F14  0845               	movf	??i1___flmul+3,w
  6913     0F15  1103               	clrz
  6914     0F16  1803               	skipnc
  6915     0F17  3E01               	addlw	1
  6916     0F18  1903               	skipnz
  6917     0F19  2F1B               	goto	u403_23
  6918     0F1A  07D1               	addwf	i1___flmul@prod+3,f
  6919     0F1B                     u403_23:
  6920     0F1B                     i1l2588:
  6921     0F1B  3008               	movlw	8
  6922     0F1C  00C2               	movwf	??i1___flmul
  6923     0F1D                     u404_25:
  6924     0F1D  1003               	clrc
  6925     0F1E  0DC8               	rlf	i1___flmul@grs,f
  6926     0F1F  0DC9               	rlf	i1___flmul@grs+1,f
  6927     0F20  0DCA               	rlf	i1___flmul@grs+2,f
  6928     0F21  0DCB               	rlf	i1___flmul@grs+3,f
  6929     0F22  0BC2               	decfsz	??i1___flmul,f
  6930     0F23  2F1D               	goto	u404_25
  6931     0F24                     i1l2590:
  6932     0F24  084D               	movf	i1___flmul@bexp,w
  6933     0F25  074C               	addwf	i1___flmul@aexp,w
  6934     0F26  00C2               	movwf	??i1___flmul
  6935     0F27  01C3               	clrf	??i1___flmul+1
  6936     0F28  0DC3               	rlf	??i1___flmul+1,f
  6937     0F29  0842               	movf	??i1___flmul,w
  6938     0F2A  3E82               	addlw	130
  6939     0F2B  00D2               	movwf	i1___flmul@temp
  6940     0F2C  0843               	movf	??i1___flmul+1,w
  6941     0F2D  1803               	skipnc
  6942     0F2E  3E01               	addlw	1
  6943     0F2F  3EFF               	addlw	255
  6944     0F30  00D3               	movwf	i1___flmul@temp+1
  6945     0F31  2F4F               	goto	i1l2602
  6946     0F32                     i1l2592:
  6947     0F32  3001               	movlw	1
  6948     0F33  00C2               	movwf	??i1___flmul
  6949     0F34                     u405_25:
  6950     0F34  1003               	clrc
  6951     0F35  0DCE               	rlf	i1___flmul@prod,f
  6952     0F36  0DCF               	rlf	i1___flmul@prod+1,f
  6953     0F37  0DD0               	rlf	i1___flmul@prod+2,f
  6954     0F38  0DD1               	rlf	i1___flmul@prod+3,f
  6955     0F39  0BC2               	decfsz	??i1___flmul,f
  6956     0F3A  2F34               	goto	u405_25
  6957     0F3B                     i1l2594:
  6958     0F3B  1FCB               	btfss	i1___flmul@grs+3,7
  6959     0F3C  2F3E               	goto	u406_21
  6960     0F3D  2F3F               	goto	u406_20
  6961     0F3E                     u406_21:
  6962     0F3E  2F40               	goto	i1l2598
  6963     0F3F                     u406_20:
  6964     0F3F                     i1l2596:
  6965     0F3F  144E               	bsf	i1___flmul@prod,0
  6966     0F40                     i1l2598:
  6967     0F40  3001               	movlw	1
  6968     0F41  00C2               	movwf	??i1___flmul
  6969     0F42                     u407_25:
  6970     0F42  1003               	clrc
  6971     0F43  0DC8               	rlf	i1___flmul@grs,f
  6972     0F44  0DC9               	rlf	i1___flmul@grs+1,f
  6973     0F45  0DCA               	rlf	i1___flmul@grs+2,f
  6974     0F46  0DCB               	rlf	i1___flmul@grs+3,f
  6975     0F47  0BC2               	decfsz	??i1___flmul,f
  6976     0F48  2F42               	goto	u407_25
  6977     0F49                     i1l2600:
  6978     0F49  30FF               	movlw	255
  6979     0F4A  07D2               	addwf	i1___flmul@temp,f
  6980     0F4B  1803               	skipnc
  6981     0F4C  0AD3               	incf	i1___flmul@temp+1,f
  6982     0F4D  30FF               	movlw	255
  6983     0F4E  07D3               	addwf	i1___flmul@temp+1,f
  6984     0F4F                     i1l2602:
  6985     0F4F  1FD0               	btfss	i1___flmul@prod+2,7
  6986     0F50  2F52               	goto	u408_21
  6987     0F51  2F53               	goto	u408_20
  6988     0F52                     u408_21:
  6989     0F52  2F32               	goto	i1l2592
  6990     0F53                     u408_20:
  6991     0F53                     i1l2604:
  6992     0F53  01CC               	clrf	i1___flmul@aexp
  6993     0F54                     i1l2606:
  6994     0F54  1FCB               	btfss	i1___flmul@grs+3,7
  6995     0F55  2F57               	goto	u409_21
  6996     0F56  2F58               	goto	u409_20
  6997     0F57                     u409_21:
  6998     0F57  2F74               	goto	i1l2614
  6999     0F58                     u409_20:
  7000     0F58                     i1l2608:
  7001     0F58  30FF               	movlw	255
  7002     0F59  0548               	andwf	i1___flmul@grs,w
  7003     0F5A  00C2               	movwf	??i1___flmul
  7004     0F5B  30FF               	movlw	255
  7005     0F5C  0549               	andwf	i1___flmul@grs+1,w
  7006     0F5D  00C3               	movwf	??i1___flmul+1
  7007     0F5E  30FF               	movlw	255
  7008     0F5F  054A               	andwf	i1___flmul@grs+2,w
  7009     0F60  00C4               	movwf	??i1___flmul+2
  7010     0F61  307F               	movlw	127
  7011     0F62  054B               	andwf	i1___flmul@grs+3,w
  7012     0F63  00C5               	movwf	??i1___flmul+3
  7013     0F64  0845               	movf	??i1___flmul+3,w
  7014     0F65  0444               	iorwf	??i1___flmul+2,w
  7015     0F66  0443               	iorwf	??i1___flmul+1,w
  7016     0F67  0442               	iorwf	??i1___flmul,w
  7017     0F68  1903               	skipnz
  7018     0F69  2F6B               	goto	u410_21
  7019     0F6A  2F6C               	goto	u410_20
  7020     0F6B                     u410_21:
  7021     0F6B  2F6F               	goto	i1l631
  7022     0F6C                     u410_20:
  7023     0F6C                     i1l2610:
  7024     0F6C  01CC               	clrf	i1___flmul@aexp
  7025     0F6D  0ACC               	incf	i1___flmul@aexp,f
  7026     0F6E  2F74               	goto	i1l2614
  7027     0F6F                     i1l631:
  7028     0F6F  1C4E               	btfss	i1___flmul@prod,0
  7029     0F70  2F72               	goto	u411_21
  7030     0F71  2F73               	goto	u411_20
  7031     0F72                     u411_21:
  7032     0F72  2F74               	goto	i1l2614
  7033     0F73                     u411_20:
  7034     0F73  2F6C               	goto	i1l2610
  7035     0F74                     i1l2614:
  7036     0F74  084C               	movf	i1___flmul@aexp,w
  7037     0F75  1903               	btfsc	3,2
  7038     0F76  2F78               	goto	u412_21
  7039     0F77  2F79               	goto	u412_20
  7040     0F78                     u412_21:
  7041     0F78  2FAA               	goto	i1l2624
  7042     0F79                     u412_20:
  7043     0F79                     i1l2616:
  7044     0F79  3001               	movlw	1
  7045     0F7A  07CE               	addwf	i1___flmul@prod,f
  7046     0F7B  3000               	movlw	0
  7047     0F7C  1803               	skipnc
  7048     0F7D  3001               	movlw	1
  7049     0F7E  07CF               	addwf	i1___flmul@prod+1,f
  7050     0F7F  3000               	movlw	0
  7051     0F80  1803               	skipnc
  7052     0F81  3001               	movlw	1
  7053     0F82  07D0               	addwf	i1___flmul@prod+2,f
  7054     0F83  3000               	movlw	0
  7055     0F84  1803               	skipnc
  7056     0F85  3001               	movlw	1
  7057     0F86  07D1               	addwf	i1___flmul@prod+3,f
  7058     0F87                     i1l2618:
  7059     0F87  1C51               	btfss	i1___flmul@prod+3,0
  7060     0F88  2F8A               	goto	u413_21
  7061     0F89  2F8B               	goto	u413_20
  7062     0F8A                     u413_21:
  7063     0F8A  2FAA               	goto	i1l2624
  7064     0F8B                     u413_20:
  7065     0F8B                     i1l2620:
  7066     0F8B  084E               	movf	i1___flmul@prod,w
  7067     0F8C  00C2               	movwf	??i1___flmul
  7068     0F8D  084F               	movf	i1___flmul@prod+1,w
  7069     0F8E  00C3               	movwf	??i1___flmul+1
  7070     0F8F  0850               	movf	i1___flmul@prod+2,w
  7071     0F90  00C4               	movwf	??i1___flmul+2
  7072     0F91  0851               	movf	i1___flmul@prod+3,w
  7073     0F92  00C5               	movwf	??i1___flmul+3
  7074     0F93  3001               	movlw	1
  7075     0F94  00C6               	movwf	??i1___flmul+4
  7076     0F95                     u414_25:
  7077     0F95  0D45               	rlf	??i1___flmul+3,w
  7078     0F96  0CC5               	rrf	??i1___flmul+3,f
  7079     0F97  0CC4               	rrf	??i1___flmul+2,f
  7080     0F98  0CC3               	rrf	??i1___flmul+1,f
  7081     0F99  0CC2               	rrf	??i1___flmul,f
  7082     0F9A                     u414_20:
  7083     0F9A  0BC6               	decfsz	??i1___flmul+4,f
  7084     0F9B  2F95               	goto	u414_25
  7085     0F9C  0845               	movf	??i1___flmul+3,w
  7086     0F9D  00D1               	movwf	i1___flmul@prod+3
  7087     0F9E  0844               	movf	??i1___flmul+2,w
  7088     0F9F  00D0               	movwf	i1___flmul@prod+2
  7089     0FA0  0843               	movf	??i1___flmul+1,w
  7090     0FA1  00CF               	movwf	i1___flmul@prod+1
  7091     0FA2  0842               	movf	??i1___flmul,w
  7092     0FA3  00CE               	movwf	i1___flmul@prod
  7093     0FA4                     i1l2622:
  7094     0FA4  3001               	movlw	1
  7095     0FA5  07D2               	addwf	i1___flmul@temp,f
  7096     0FA6  1803               	skipnc
  7097     0FA7  0AD3               	incf	i1___flmul@temp+1,f
  7098     0FA8  3000               	movlw	0
  7099     0FA9  07D3               	addwf	i1___flmul@temp+1,f
  7100     0FAA                     i1l2624:
  7101     0FAA  0853               	movf	i1___flmul@temp+1,w
  7102     0FAB  3A80               	xorlw	128
  7103     0FAC  00FF               	movwf	btemp+1
  7104     0FAD  3080               	movlw	128
  7105     0FAE  027F               	subwf	btemp+1,w
  7106     0FAF  1D03               	skipz
  7107     0FB0  2FB3               	goto	u415_25
  7108     0FB1  30FF               	movlw	255
  7109     0FB2  0252               	subwf	i1___flmul@temp,w
  7110     0FB3                     u415_25:
  7111     0FB3  1C03               	skipc
  7112     0FB4  2FB6               	goto	u415_21
  7113     0FB5  2FB7               	goto	u415_20
  7114     0FB6                     u415_21:
  7115     0FB6  2FC2               	goto	i1l2628
  7116     0FB7                     u415_20:
  7117     0FB7                     i1l2626:
  7118     0FB7  307F               	movlw	127
  7119     0FB8  1283               	bcf	3,5	;RP0=0, select bank0
  7120     0FB9  1303               	bcf	3,6	;RP1=0, select bank0
  7121     0FBA  00D1               	movwf	i1___flmul@prod+3
  7122     0FBB  3080               	movlw	128
  7123     0FBC  00D0               	movwf	i1___flmul@prod+2
  7124     0FBD  3000               	movlw	0
  7125     0FBE  00CF               	movwf	i1___flmul@prod+1
  7126     0FBF  3000               	movlw	0
  7127     0FC0  00CE               	movwf	i1___flmul@prod
  7128     0FC1  2FF3               	goto	i1l637
  7129     0FC2                     i1l2628:
  7130     0FC2  1283               	bcf	3,5	;RP0=0, select bank0
  7131     0FC3  1303               	bcf	3,6	;RP1=0, select bank0
  7132     0FC4  0853               	movf	i1___flmul@temp+1,w
  7133     0FC5  3A80               	xorlw	128
  7134     0FC6  00FF               	movwf	btemp+1
  7135     0FC7  3080               	movlw	128
  7136     0FC8  027F               	subwf	btemp+1,w
  7137     0FC9  1D03               	skipz
  7138     0FCA  2FCD               	goto	u416_25
  7139     0FCB  3001               	movlw	1
  7140     0FCC  0252               	subwf	i1___flmul@temp,w
  7141     0FCD                     u416_25:
  7142     0FCD  1803               	skipnc
  7143     0FCE  2FD0               	goto	u416_21
  7144     0FCF  2FD1               	goto	u416_20
  7145     0FD0                     u416_21:
  7146     0FD0  2FDD               	goto	i1l2634
  7147     0FD1                     u416_20:
  7148     0FD1                     i1l2630:
  7149     0FD1  3000               	movlw	0
  7150     0FD2  1283               	bcf	3,5	;RP0=0, select bank0
  7151     0FD3  1303               	bcf	3,6	;RP1=0, select bank0
  7152     0FD4  00D1               	movwf	i1___flmul@prod+3
  7153     0FD5  3000               	movlw	0
  7154     0FD6  00D0               	movwf	i1___flmul@prod+2
  7155     0FD7  3000               	movlw	0
  7156     0FD8  00CF               	movwf	i1___flmul@prod+1
  7157     0FD9  3000               	movlw	0
  7158     0FDA  00CE               	movwf	i1___flmul@prod
  7159     0FDB                     i1l2632:
  7160     0FDB  01C7               	clrf	i1___flmul@sign
  7161     0FDC  2FF3               	goto	i1l637
  7162     0FDD                     i1l2634:
  7163     0FDD  1283               	bcf	3,5	;RP0=0, select bank0
  7164     0FDE  1303               	bcf	3,6	;RP1=0, select bank0
  7165     0FDF  0852               	movf	i1___flmul@temp,w
  7166     0FE0  00CD               	movwf	i1___flmul@bexp
  7167     0FE1  30FF               	movlw	255
  7168     0FE2  05CE               	andwf	i1___flmul@prod,f
  7169     0FE3  30FF               	movlw	255
  7170     0FE4  05CF               	andwf	i1___flmul@prod+1,f
  7171     0FE5  307F               	movlw	127
  7172     0FE6  05D0               	andwf	i1___flmul@prod+2,f
  7173     0FE7  3000               	movlw	0
  7174     0FE8  05D1               	andwf	i1___flmul@prod+3,f
  7175     0FE9                     i1l2636:
  7176     0FE9  1C4D               	btfss	i1___flmul@bexp,0
  7177     0FEA  2FEC               	goto	u417_21
  7178     0FEB  2FED               	goto	u417_20
  7179     0FEC                     u417_21:
  7180     0FEC  2FEE               	goto	i1l2640
  7181     0FED                     u417_20:
  7182     0FED                     i1l2638:
  7183     0FED  17D0               	bsf	i1___flmul@prod+2,7
  7184     0FEE                     i1l2640:
  7185     0FEE  084D               	movf	i1___flmul@bexp,w
  7186     0FEF  00C2               	movwf	??i1___flmul
  7187     0FF0  1003               	clrc
  7188     0FF1  0C42               	rrf	??i1___flmul,w
  7189     0FF2  00D1               	movwf	i1___flmul@prod+3
  7190     0FF3                     i1l637:
  7191     0FF3  0847               	movf	i1___flmul@sign,w
  7192     0FF4  00C2               	movwf	??i1___flmul
  7193     0FF5  0842               	movf	??i1___flmul,w
  7194     0FF6  04D1               	iorwf	i1___flmul@prod+3,f
  7195     0FF7                     i1l2642:
  7196     0FF7  0851               	movf	i1___flmul@prod+3,w
  7197     0FF8  00BD               	movwf	?i1___flmul+3
  7198     0FF9  0850               	movf	i1___flmul@prod+2,w
  7199     0FFA  00BC               	movwf	?i1___flmul+2
  7200     0FFB  084F               	movf	i1___flmul@prod+1,w
  7201     0FFC  00BB               	movwf	?i1___flmul+1
  7202     0FFD  084E               	movf	i1___flmul@prod,w
  7203     0FFE  00BA               	movwf	?i1___flmul
  7204     0FFF                     i1l625:
  7205     0FFF  0008               	return
  7206     1000                     __end_ofi1___flmul:
  7207                           
  7208                           	psect	text14
  7209     0803                     __ptext14:	
  7210 ;; *************** function i1__Umul8_16 *****************
  7211 ;; Defined at:
  7212 ;;		line 4 in file "C:\Program Files\Microchip\xc8\v2.40\pic\sources\c90\common\Umul8_16.c"
  7213 ;; Parameters:    Size  Location     Type
  7214 ;;  multiplier      1    wreg     unsigned char 
  7215 ;;  multiplicand    1    0[COMMON] unsigned char 
  7216 ;; Auto vars:     Size  Location     Type
  7217 ;;  multiplier      1    8[COMMON] unsigned char 
  7218 ;;  word_mpld       2    6[COMMON] unsigned int 
  7219 ;;  product         2    4[COMMON] unsigned int 
  7220 ;; Return value:  Size  Location     Type
  7221 ;;                  2    0[COMMON] unsigned int 
  7222 ;; Registers used:
  7223 ;;		wreg, status,2, status,0
  7224 ;; Tracked objects:
  7225 ;;		On entry : 0/0
  7226 ;;		On exit  : 0/0
  7227 ;;		Unchanged: 0/0
  7228 ;; Data sizes:     COMMON   BANK0   BANK1   BANK3   BANK2
  7229 ;;      Params:         2       0       0       0       0
  7230 ;;      Locals:         5       0       0       0       0
  7231 ;;      Temps:          2       0       0       0       0
  7232 ;;      Totals:         9       0       0       0       0
  7233 ;;Total ram usage:        9 bytes
  7234 ;; Hardware stack levels used: 1
  7235 ;; This function calls:
  7236 ;;		Nothing
  7237 ;; This function is called by:
  7238 ;;		i1___flmul
  7239 ;; This function uses a non-reentrant model
  7240 ;;
  7241                           
  7242     0803                     i1__Umul8_16:	
  7243                           ;psect for function i1__Umul8_16
  7244                           
  7245                           
  7246                           ;incstack = 0
  7247                           ; Regs used in i1__Umul8_16: [wreg+status,2+status,0]
  7248                           ;i1__Umul8_16@multiplier stored from wreg
  7249     0803  00F8               	movwf	i1__Umul8_16@multiplier
  7250     0804                     i1l2256:
  7251     0804  01F4               	clrf	i1__Umul8_16@product
  7252     0805  01F5               	clrf	i1__Umul8_16@product+1
  7253     0806                     i1l2258:
  7254     0806  0870               	movf	i1__Umul8_16@multiplicand,w
  7255     0807  00F2               	movwf	??i1__Umul8_16
  7256     0808  01F3               	clrf	??i1__Umul8_16+1
  7257     0809  0872               	movf	??i1__Umul8_16,w
  7258     080A  00F6               	movwf	i1__Umul8_16@word_mpld
  7259     080B  0873               	movf	??i1__Umul8_16+1,w
  7260     080C  00F7               	movwf	i1__Umul8_16@word_mpld+1
  7261     080D                     i1l2260:
  7262     080D  1C78               	btfss	i1__Umul8_16@multiplier,0
  7263     080E  2810               	goto	u333_21
  7264     080F  2811               	goto	u333_20
  7265     0810                     u333_21:
  7266     0810  2817               	goto	i1l644
  7267     0811                     u333_20:
  7268     0811                     i1l2262:
  7269     0811  0876               	movf	i1__Umul8_16@word_mpld,w
  7270     0812  07F4               	addwf	i1__Umul8_16@product,f
  7271     0813  1803               	skipnc
  7272     0814  0AF5               	incf	i1__Umul8_16@product+1,f
  7273     0815  0877               	movf	i1__Umul8_16@word_mpld+1,w
  7274     0816  07F5               	addwf	i1__Umul8_16@product+1,f
  7275     0817                     i1l644:
  7276     0817  3001               	movlw	1
  7277     0818                     u334_25:
  7278     0818  1003               	clrc
  7279     0819  0DF6               	rlf	i1__Umul8_16@word_mpld,f
  7280     081A  0DF7               	rlf	i1__Umul8_16@word_mpld+1,f
  7281     081B  3EFF               	addlw	-1
  7282     081C  1D03               	skipz
  7283     081D  2818               	goto	u334_25
  7284     081E  1003               	clrc
  7285     081F  0CF8               	rrf	i1__Umul8_16@multiplier,f
  7286     0820                     i1l2264:
  7287     0820  0878               	movf	i1__Umul8_16@multiplier,w
  7288     0821  1D03               	btfss	3,2
  7289     0822  2824               	goto	u335_21
  7290     0823  2825               	goto	u335_20
  7291     0824                     u335_21:
  7292     0824  280D               	goto	i1l2260
  7293     0825                     u335_20:
  7294     0825                     i1l2266:
  7295     0825  0875               	movf	i1__Umul8_16@product+1,w
  7296     0826  00F1               	movwf	?i1__Umul8_16+1
  7297     0827  0874               	movf	i1__Umul8_16@product,w
  7298     0828  00F0               	movwf	?i1__Umul8_16
  7299     0829                     i1l646:
  7300     0829  0008               	return
  7301     082A                     __end_ofi1__Umul8_16:
  7302                           
  7303                           	psect	text15
  7304     162D                     __ptext15:	
  7305 ;; *************** function i1___fldiv *****************
  7306 ;; Defined at:
  7307 ;;		line 8 in file "C:\Program Files\Microchip\xc8\v2.40\pic\sources\c90\common\sprcdiv.c"
  7308 ;; Parameters:    Size  Location     Type
  7309 ;;  a               4    0[BANK0 ] unsigned int 
  7310 ;;  b               4    4[BANK0 ] unsigned int 
  7311 ;; Auto vars:     Size  Location     Type
  7312 ;;  grs             4   20[BANK0 ] unsigned long 
  7313 ;;  rem             4   13[BANK0 ] unsigned long 
  7314 ;;  new_exp         2   18[BANK0 ] int 
  7315 ;;  aexp            1   25[BANK0 ] unsigned char 
  7316 ;;  bexp            1   24[BANK0 ] unsigned char 
  7317 ;;  sign            1   17[BANK0 ] unsigned char 
  7318 ;; Return value:  Size  Location     Type
  7319 ;;                  4    0[BANK0 ] unsigned char 
  7320 ;; Registers used:
  7321 ;;		wreg, status,2, status,0, btemp+1
  7322 ;; Tracked objects:
  7323 ;;		On entry : 0/0
  7324 ;;		On exit  : 0/0
  7325 ;;		Unchanged: 0/0
  7326 ;; Data sizes:     COMMON   BANK0   BANK1   BANK3   BANK2
  7327 ;;      Params:         0       8       0       0       0
  7328 ;;      Locals:         0      13       0       0       0
  7329 ;;      Temps:          0       5       0       0       0
  7330 ;;      Totals:         0      26       0       0       0
  7331 ;;Total ram usage:       26 bytes
  7332 ;; Hardware stack levels used: 1
  7333 ;; This function calls:
  7334 ;;		Nothing
  7335 ;; This function is called by:
  7336 ;;		_isr
  7337 ;;		i1_PWM_duty
  7338 ;; This function uses a non-reentrant model
  7339 ;;
  7340                           
  7341     162D                     i1___fldiv:	
  7342                           ;psect for function i1___fldiv
  7343                           
  7344     162D                     i1l2364:	
  7345                           ;incstack = 0
  7346                           ; Regs used in i1___fldiv: [wreg+status,2+status,0+btemp+1]
  7347                           
  7348     162D  1283               	bcf	3,5	;RP0=0, select bank0
  7349     162E  1303               	bcf	3,6	;RP1=0, select bank0
  7350     162F  0827               	movf	i1___fldiv@b+3,w
  7351     1630  3980               	andlw	128
  7352     1631  00B1               	movwf	i1___fldiv@sign
  7353     1632                     i1l2366:
  7354     1632  0827               	movf	i1___fldiv@b+3,w
  7355     1633  00A8               	movwf	??i1___fldiv
  7356     1634  0728               	addwf	??i1___fldiv,w
  7357     1635  00B8               	movwf	i1___fldiv@bexp
  7358     1636                     i1l2368:
  7359     1636  1FA6               	btfss	i1___fldiv@b+2,7
  7360     1637  2E39               	goto	u352_21
  7361     1638  2E3A               	goto	u352_20
  7362     1639                     u352_21:
  7363     1639  2E3B               	goto	i1l2372
  7364     163A                     u352_20:
  7365     163A                     i1l2370:
  7366     163A  1438               	bsf	i1___fldiv@bexp,0
  7367     163B                     i1l2372:
  7368     163B  0838               	movf	i1___fldiv@bexp,w
  7369     163C  1903               	btfsc	3,2
  7370     163D  2E3F               	goto	u353_21
  7371     163E  2E40               	goto	u353_20
  7372     163F                     u353_21:
  7373     163F  2E50               	goto	i1l2382
  7374     1640                     u353_20:
  7375     1640                     i1l2374:
  7376     1640  0A38               	incf	i1___fldiv@bexp,w
  7377     1641  1D03               	btfss	3,2
  7378     1642  2E44               	goto	u354_21
  7379     1643  2E45               	goto	u354_20
  7380     1644                     u354_21:
  7381     1644  2E4D               	goto	i1l2378
  7382     1645                     u354_20:
  7383     1645                     i1l2376:
  7384     1645  3000               	movlw	0
  7385     1646  00A7               	movwf	i1___fldiv@b+3
  7386     1647  3000               	movlw	0
  7387     1648  00A6               	movwf	i1___fldiv@b+2
  7388     1649  3000               	movlw	0
  7389     164A  00A5               	movwf	i1___fldiv@b+1
  7390     164B  3000               	movlw	0
  7391     164C  00A4               	movwf	i1___fldiv@b
  7392     164D                     i1l2378:
  7393     164D  17A6               	bsf	i1___fldiv@b+2,7
  7394     164E                     i1l2380:
  7395     164E  01A7               	clrf	i1___fldiv@b+3
  7396     164F  2E58               	goto	i1l2384
  7397     1650                     i1l2382:
  7398     1650  3000               	movlw	0
  7399     1651  00A7               	movwf	i1___fldiv@b+3
  7400     1652  3000               	movlw	0
  7401     1653  00A6               	movwf	i1___fldiv@b+2
  7402     1654  3000               	movlw	0
  7403     1655  00A5               	movwf	i1___fldiv@b+1
  7404     1656  3000               	movlw	0
  7405     1657  00A4               	movwf	i1___fldiv@b
  7406     1658                     i1l2384:
  7407     1658  0823               	movf	i1___fldiv@a+3,w
  7408     1659  3980               	andlw	128
  7409     165A  00A8               	movwf	??i1___fldiv
  7410     165B  0828               	movf	??i1___fldiv,w
  7411     165C  06B1               	xorwf	i1___fldiv@sign,f
  7412     165D                     i1l2386:
  7413     165D  0823               	movf	i1___fldiv@a+3,w
  7414     165E  00A8               	movwf	??i1___fldiv
  7415     165F  0728               	addwf	??i1___fldiv,w
  7416     1660  00B9               	movwf	i1___fldiv@aexp
  7417     1661                     i1l2388:
  7418     1661  1FA2               	btfss	i1___fldiv@a+2,7
  7419     1662  2E64               	goto	u355_21
  7420     1663  2E65               	goto	u355_20
  7421     1664                     u355_21:
  7422     1664  2E66               	goto	i1l2392
  7423     1665                     u355_20:
  7424     1665                     i1l2390:
  7425     1665  1439               	bsf	i1___fldiv@aexp,0
  7426     1666                     i1l2392:
  7427     1666  0839               	movf	i1___fldiv@aexp,w
  7428     1667  1903               	btfsc	3,2
  7429     1668  2E6A               	goto	u356_21
  7430     1669  2E6B               	goto	u356_20
  7431     166A                     u356_21:
  7432     166A  2E7B               	goto	i1l2402
  7433     166B                     u356_20:
  7434     166B                     i1l2394:
  7435     166B  0A39               	incf	i1___fldiv@aexp,w
  7436     166C  1D03               	btfss	3,2
  7437     166D  2E6F               	goto	u357_21
  7438     166E  2E70               	goto	u357_20
  7439     166F                     u357_21:
  7440     166F  2E78               	goto	i1l2398
  7441     1670                     u357_20:
  7442     1670                     i1l2396:
  7443     1670  3000               	movlw	0
  7444     1671  00A3               	movwf	i1___fldiv@a+3
  7445     1672  3000               	movlw	0
  7446     1673  00A2               	movwf	i1___fldiv@a+2
  7447     1674  3000               	movlw	0
  7448     1675  00A1               	movwf	i1___fldiv@a+1
  7449     1676  3000               	movlw	0
  7450     1677  00A0               	movwf	i1___fldiv@a
  7451     1678                     i1l2398:
  7452     1678  17A2               	bsf	i1___fldiv@a+2,7
  7453     1679                     i1l2400:
  7454     1679  01A3               	clrf	i1___fldiv@a+3
  7455     167A  2E83               	goto	i1l585
  7456     167B                     i1l2402:
  7457     167B  3000               	movlw	0
  7458     167C  00A3               	movwf	i1___fldiv@a+3
  7459     167D  3000               	movlw	0
  7460     167E  00A2               	movwf	i1___fldiv@a+2
  7461     167F  3000               	movlw	0
  7462     1680  00A1               	movwf	i1___fldiv@a+1
  7463     1681  3000               	movlw	0
  7464     1682  00A0               	movwf	i1___fldiv@a
  7465     1683                     i1l585:
  7466     1683  0823               	movf	i1___fldiv@a+3,w
  7467     1684  0422               	iorwf	i1___fldiv@a+2,w
  7468     1685  0421               	iorwf	i1___fldiv@a+1,w
  7469     1686  0420               	iorwf	i1___fldiv@a,w
  7470     1687  1D03               	skipz
  7471     1688  2E8A               	goto	u358_21
  7472     1689  2E8B               	goto	u358_20
  7473     168A                     u358_21:
  7474     168A  2EA4               	goto	i1l2412
  7475     168B                     u358_20:
  7476     168B                     i1l2404:
  7477     168B  3000               	movlw	0
  7478     168C  00A7               	movwf	i1___fldiv@b+3
  7479     168D  3000               	movlw	0
  7480     168E  00A6               	movwf	i1___fldiv@b+2
  7481     168F  3000               	movlw	0
  7482     1690  00A5               	movwf	i1___fldiv@b+1
  7483     1691  3000               	movlw	0
  7484     1692  00A4               	movwf	i1___fldiv@b
  7485     1693  3080               	movlw	128
  7486     1694  04A6               	iorwf	i1___fldiv@b+2,f
  7487     1695  307F               	movlw	127
  7488     1696  04A7               	iorwf	i1___fldiv@b+3,f
  7489     1697                     i1l2406:
  7490     1697  0831               	movf	i1___fldiv@sign,w
  7491     1698  00A8               	movwf	??i1___fldiv
  7492     1699  0828               	movf	??i1___fldiv,w
  7493     169A  04A7               	iorwf	i1___fldiv@b+3,f
  7494     169B                     i1l2408:
  7495     169B  0827               	movf	i1___fldiv@b+3,w
  7496     169C  00A3               	movwf	?i1___fldiv+3
  7497     169D  0826               	movf	i1___fldiv@b+2,w
  7498     169E  00A2               	movwf	?i1___fldiv+2
  7499     169F  0825               	movf	i1___fldiv@b+1,w
  7500     16A0  00A1               	movwf	?i1___fldiv+1
  7501     16A1  0824               	movf	i1___fldiv@b,w
  7502     16A2  00A0               	movwf	?i1___fldiv
  7503     16A3  2FFF               	goto	i1l587
  7504     16A4                     i1l2412:
  7505     16A4  0838               	movf	i1___fldiv@bexp,w
  7506     16A5  1D03               	btfss	3,2
  7507     16A6  2EA8               	goto	u359_21
  7508     16A7  2EA9               	goto	u359_20
  7509     16A8                     u359_21:
  7510     16A8  2EB2               	goto	i1l2418
  7511     16A9                     u359_20:
  7512     16A9                     i1l2414:
  7513     16A9  3000               	movlw	0
  7514     16AA  00A3               	movwf	?i1___fldiv+3
  7515     16AB  3000               	movlw	0
  7516     16AC  00A2               	movwf	?i1___fldiv+2
  7517     16AD  3000               	movlw	0
  7518     16AE  00A1               	movwf	?i1___fldiv+1
  7519     16AF  3000               	movlw	0
  7520     16B0  00A0               	movwf	?i1___fldiv
  7521     16B1  2FFF               	goto	i1l587
  7522     16B2                     i1l2418:
  7523     16B2  0838               	movf	i1___fldiv@bexp,w
  7524     16B3  00A8               	movwf	??i1___fldiv
  7525     16B4  01A9               	clrf	??i1___fldiv+1
  7526     16B5  0829               	movf	??i1___fldiv+1,w
  7527     16B6  00AB               	movwf	??i1___fldiv+3
  7528     16B7  0839               	movf	i1___fldiv@aexp,w
  7529     16B8  0228               	subwf	??i1___fldiv,w
  7530     16B9  00AA               	movwf	??i1___fldiv+2
  7531     16BA  1C03               	skipc
  7532     16BB  03AB               	decf	??i1___fldiv+3,f
  7533     16BC  082A               	movf	??i1___fldiv+2,w
  7534     16BD  3E7F               	addlw	127
  7535     16BE  00B2               	movwf	i1___fldiv@new_exp
  7536     16BF  082B               	movf	??i1___fldiv+3,w
  7537     16C0  1803               	skipnc
  7538     16C1  3E01               	addlw	1
  7539     16C2  3E00               	addlw	0
  7540     16C3  00B3               	movwf	i1___fldiv@new_exp+1
  7541     16C4                     i1l2420:
  7542     16C4  0827               	movf	i1___fldiv@b+3,w
  7543     16C5  00B0               	movwf	i1___fldiv@rem+3
  7544     16C6  0826               	movf	i1___fldiv@b+2,w
  7545     16C7  00AF               	movwf	i1___fldiv@rem+2
  7546     16C8  0825               	movf	i1___fldiv@b+1,w
  7547     16C9  00AE               	movwf	i1___fldiv@rem+1
  7548     16CA  0824               	movf	i1___fldiv@b,w
  7549     16CB  00AD               	movwf	i1___fldiv@rem
  7550     16CC                     i1l2422:
  7551     16CC  3000               	movlw	0
  7552     16CD  00A7               	movwf	i1___fldiv@b+3
  7553     16CE  3000               	movlw	0
  7554     16CF  00A6               	movwf	i1___fldiv@b+2
  7555     16D0  3000               	movlw	0
  7556     16D1  00A5               	movwf	i1___fldiv@b+1
  7557     16D2  3000               	movlw	0
  7558     16D3  00A4               	movwf	i1___fldiv@b
  7559     16D4                     i1l2424:
  7560     16D4  3000               	movlw	0
  7561     16D5  00B7               	movwf	i1___fldiv@grs+3
  7562     16D6  3000               	movlw	0
  7563     16D7  00B6               	movwf	i1___fldiv@grs+2
  7564     16D8  3000               	movlw	0
  7565     16D9  00B5               	movwf	i1___fldiv@grs+1
  7566     16DA  3000               	movlw	0
  7567     16DB  00B4               	movwf	i1___fldiv@grs
  7568     16DC                     i1l2426:
  7569     16DC  01B9               	clrf	i1___fldiv@aexp
  7570     16DD  2F28               	goto	i1l2446
  7571     16DE                     i1l2428:
  7572     16DE  0839               	movf	i1___fldiv@aexp,w
  7573     16DF  1903               	btfsc	3,2
  7574     16E0  2EE2               	goto	u360_21
  7575     16E1  2EE3               	goto	u360_20
  7576     16E2                     u360_21:
  7577     16E2  2F03               	goto	i1l2438
  7578     16E3                     u360_20:
  7579     16E3                     i1l2430:
  7580     16E3  3001               	movlw	1
  7581     16E4  00A8               	movwf	??i1___fldiv
  7582     16E5                     u361_25:
  7583     16E5  1003               	clrc
  7584     16E6  0DAD               	rlf	i1___fldiv@rem,f
  7585     16E7  0DAE               	rlf	i1___fldiv@rem+1,f
  7586     16E8  0DAF               	rlf	i1___fldiv@rem+2,f
  7587     16E9  0DB0               	rlf	i1___fldiv@rem+3,f
  7588     16EA  0BA8               	decfsz	??i1___fldiv,f
  7589     16EB  2EE5               	goto	u361_25
  7590     16EC  3001               	movlw	1
  7591     16ED  00A8               	movwf	??i1___fldiv
  7592     16EE                     u362_25:
  7593     16EE  1003               	clrc
  7594     16EF  0DA4               	rlf	i1___fldiv@b,f
  7595     16F0  0DA5               	rlf	i1___fldiv@b+1,f
  7596     16F1  0DA6               	rlf	i1___fldiv@b+2,f
  7597     16F2  0DA7               	rlf	i1___fldiv@b+3,f
  7598     16F3  0BA8               	decfsz	??i1___fldiv,f
  7599     16F4  2EEE               	goto	u362_25
  7600     16F5                     i1l2432:
  7601     16F5  1FB7               	btfss	i1___fldiv@grs+3,7
  7602     16F6  2EF8               	goto	u363_21
  7603     16F7  2EF9               	goto	u363_20
  7604     16F8                     u363_21:
  7605     16F8  2EFA               	goto	i1l2436
  7606     16F9                     u363_20:
  7607     16F9                     i1l2434:
  7608     16F9  1424               	bsf	i1___fldiv@b,0
  7609     16FA                     i1l2436:
  7610     16FA  3001               	movlw	1
  7611     16FB  00A8               	movwf	??i1___fldiv
  7612     16FC                     u364_25:
  7613     16FC  1003               	clrc
  7614     16FD  0DB4               	rlf	i1___fldiv@grs,f
  7615     16FE  0DB5               	rlf	i1___fldiv@grs+1,f
  7616     16FF  0DB6               	rlf	i1___fldiv@grs+2,f
  7617     1700  0DB7               	rlf	i1___fldiv@grs+3,f
  7618     1701  0BA8               	decfsz	??i1___fldiv,f
  7619     1702  2EFC               	goto	u364_25
  7620     1703                     i1l2438:
  7621     1703  0823               	movf	i1___fldiv@a+3,w
  7622     1704  0230               	subwf	i1___fldiv@rem+3,w
  7623     1705  1D03               	skipz
  7624     1706  2F11               	goto	u365_25
  7625     1707  0822               	movf	i1___fldiv@a+2,w
  7626     1708  022F               	subwf	i1___fldiv@rem+2,w
  7627     1709  1D03               	skipz
  7628     170A  2F11               	goto	u365_25
  7629     170B  0821               	movf	i1___fldiv@a+1,w
  7630     170C  022E               	subwf	i1___fldiv@rem+1,w
  7631     170D  1D03               	skipz
  7632     170E  2F11               	goto	u365_25
  7633     170F  0820               	movf	i1___fldiv@a,w
  7634     1710  022D               	subwf	i1___fldiv@rem,w
  7635     1711                     u365_25:
  7636     1711  1C03               	skipc
  7637     1712  2F14               	goto	u365_21
  7638     1713  2F15               	goto	u365_20
  7639     1714                     u365_21:
  7640     1714  2F24               	goto	i1l2444
  7641     1715                     u365_20:
  7642     1715                     i1l2440:
  7643     1715  1737               	bsf	i1___fldiv@grs+3,6
  7644     1716                     i1l2442:
  7645     1716  0820               	movf	i1___fldiv@a,w
  7646     1717  02AD               	subwf	i1___fldiv@rem,f
  7647     1718  0821               	movf	i1___fldiv@a+1,w
  7648     1719  1C03               	skipc
  7649     171A  0F21               	incfsz	i1___fldiv@a+1,w
  7650     171B  02AE               	subwf	i1___fldiv@rem+1,f
  7651     171C  0822               	movf	i1___fldiv@a+2,w
  7652     171D  1C03               	skipc
  7653     171E  0F22               	incfsz	i1___fldiv@a+2,w
  7654     171F  02AF               	subwf	i1___fldiv@rem+2,f
  7655     1720  0823               	movf	i1___fldiv@a+3,w
  7656     1721  1C03               	skipc
  7657     1722  0F23               	incfsz	i1___fldiv@a+3,w
  7658     1723  02B0               	subwf	i1___fldiv@rem+3,f
  7659     1724                     i1l2444:
  7660     1724  3001               	movlw	1
  7661     1725  00A8               	movwf	??i1___fldiv
  7662     1726  0828               	movf	??i1___fldiv,w
  7663     1727  07B9               	addwf	i1___fldiv@aexp,f
  7664     1728                     i1l2446:
  7665     1728  301A               	movlw	26
  7666     1729  0239               	subwf	i1___fldiv@aexp,w
  7667     172A  1C03               	skipc
  7668     172B  2F2D               	goto	u366_21
  7669     172C  2F2E               	goto	u366_20
  7670     172D                     u366_21:
  7671     172D  2EDE               	goto	i1l2428
  7672     172E                     u366_20:
  7673     172E                     i1l2448:
  7674     172E  0830               	movf	i1___fldiv@rem+3,w
  7675     172F  042F               	iorwf	i1___fldiv@rem+2,w
  7676     1730  042E               	iorwf	i1___fldiv@rem+1,w
  7677     1731  042D               	iorwf	i1___fldiv@rem,w
  7678     1732  1903               	skipnz
  7679     1733  2F35               	goto	u367_21
  7680     1734  2F36               	goto	u367_20
  7681     1735                     u367_21:
  7682     1735  2F55               	goto	i1l2462
  7683     1736                     u367_20:
  7684     1736                     i1l2450:
  7685     1736  1434               	bsf	i1___fldiv@grs,0
  7686     1737  2F55               	goto	i1l2462
  7687     1738                     i1l2452:
  7688     1738  3001               	movlw	1
  7689     1739  00A8               	movwf	??i1___fldiv
  7690     173A                     u368_25:
  7691     173A  1003               	clrc
  7692     173B  0DA4               	rlf	i1___fldiv@b,f
  7693     173C  0DA5               	rlf	i1___fldiv@b+1,f
  7694     173D  0DA6               	rlf	i1___fldiv@b+2,f
  7695     173E  0DA7               	rlf	i1___fldiv@b+3,f
  7696     173F  0BA8               	decfsz	??i1___fldiv,f
  7697     1740  2F3A               	goto	u368_25
  7698     1741                     i1l2454:
  7699     1741  1FB7               	btfss	i1___fldiv@grs+3,7
  7700     1742  2F44               	goto	u369_21
  7701     1743  2F45               	goto	u369_20
  7702     1744                     u369_21:
  7703     1744  2F46               	goto	i1l2458
  7704     1745                     u369_20:
  7705     1745                     i1l2456:
  7706     1745  1424               	bsf	i1___fldiv@b,0
  7707     1746                     i1l2458:
  7708     1746  3001               	movlw	1
  7709     1747  00A8               	movwf	??i1___fldiv
  7710     1748                     u370_25:
  7711     1748  1003               	clrc
  7712     1749  0DB4               	rlf	i1___fldiv@grs,f
  7713     174A  0DB5               	rlf	i1___fldiv@grs+1,f
  7714     174B  0DB6               	rlf	i1___fldiv@grs+2,f
  7715     174C  0DB7               	rlf	i1___fldiv@grs+3,f
  7716     174D  0BA8               	decfsz	??i1___fldiv,f
  7717     174E  2F48               	goto	u370_25
  7718     174F                     i1l2460:
  7719     174F  30FF               	movlw	255
  7720     1750  07B2               	addwf	i1___fldiv@new_exp,f
  7721     1751  1803               	skipnc
  7722     1752  0AB3               	incf	i1___fldiv@new_exp+1,f
  7723     1753  30FF               	movlw	255
  7724     1754  07B3               	addwf	i1___fldiv@new_exp+1,f
  7725     1755                     i1l2462:
  7726     1755  1FA6               	btfss	i1___fldiv@b+2,7
  7727     1756  2F58               	goto	u371_21
  7728     1757  2F59               	goto	u371_20
  7729     1758                     u371_21:
  7730     1758  2F38               	goto	i1l2452
  7731     1759                     u371_20:
  7732     1759                     i1l2464:
  7733     1759  01B9               	clrf	i1___fldiv@aexp
  7734     175A                     i1l2466:
  7735     175A  1FB7               	btfss	i1___fldiv@grs+3,7
  7736     175B  2F5D               	goto	u372_21
  7737     175C  2F5E               	goto	u372_20
  7738     175D                     u372_21:
  7739     175D  2F7A               	goto	i1l2474
  7740     175E                     u372_20:
  7741     175E                     i1l2468:
  7742     175E  30FF               	movlw	255
  7743     175F  0534               	andwf	i1___fldiv@grs,w
  7744     1760  00A8               	movwf	??i1___fldiv
  7745     1761  30FF               	movlw	255
  7746     1762  0535               	andwf	i1___fldiv@grs+1,w
  7747     1763  00A9               	movwf	??i1___fldiv+1
  7748     1764  30FF               	movlw	255
  7749     1765  0536               	andwf	i1___fldiv@grs+2,w
  7750     1766  00AA               	movwf	??i1___fldiv+2
  7751     1767  307F               	movlw	127
  7752     1768  0537               	andwf	i1___fldiv@grs+3,w
  7753     1769  00AB               	movwf	??i1___fldiv+3
  7754     176A  082B               	movf	??i1___fldiv+3,w
  7755     176B  042A               	iorwf	??i1___fldiv+2,w
  7756     176C  0429               	iorwf	??i1___fldiv+1,w
  7757     176D  0428               	iorwf	??i1___fldiv,w
  7758     176E  1903               	skipnz
  7759     176F  2F71               	goto	u373_21
  7760     1770  2F72               	goto	u373_20
  7761     1771                     u373_21:
  7762     1771  2F75               	goto	i1l601
  7763     1772                     u373_20:
  7764     1772                     i1l2470:
  7765     1772  01B9               	clrf	i1___fldiv@aexp
  7766     1773  0AB9               	incf	i1___fldiv@aexp,f
  7767     1774  2F7A               	goto	i1l2474
  7768     1775                     i1l601:
  7769     1775  1C24               	btfss	i1___fldiv@b,0
  7770     1776  2F78               	goto	u374_21
  7771     1777  2F79               	goto	u374_20
  7772     1778                     u374_21:
  7773     1778  2F7A               	goto	i1l2474
  7774     1779                     u374_20:
  7775     1779  2F72               	goto	i1l2470
  7776     177A                     i1l2474:
  7777     177A  0839               	movf	i1___fldiv@aexp,w
  7778     177B  1903               	btfsc	3,2
  7779     177C  2F7E               	goto	u375_21
  7780     177D  2F7F               	goto	u375_20
  7781     177E                     u375_21:
  7782     177E  2FB0               	goto	i1l2484
  7783     177F                     u375_20:
  7784     177F                     i1l2476:
  7785     177F  3001               	movlw	1
  7786     1780  07A4               	addwf	i1___fldiv@b,f
  7787     1781  3000               	movlw	0
  7788     1782  1803               	skipnc
  7789     1783  3001               	movlw	1
  7790     1784  07A5               	addwf	i1___fldiv@b+1,f
  7791     1785  3000               	movlw	0
  7792     1786  1803               	skipnc
  7793     1787  3001               	movlw	1
  7794     1788  07A6               	addwf	i1___fldiv@b+2,f
  7795     1789  3000               	movlw	0
  7796     178A  1803               	skipnc
  7797     178B  3001               	movlw	1
  7798     178C  07A7               	addwf	i1___fldiv@b+3,f
  7799     178D                     i1l2478:
  7800     178D  1C27               	btfss	i1___fldiv@b+3,0
  7801     178E  2F90               	goto	u376_21
  7802     178F  2F91               	goto	u376_20
  7803     1790                     u376_21:
  7804     1790  2FB0               	goto	i1l2484
  7805     1791                     u376_20:
  7806     1791                     i1l2480:
  7807     1791  0824               	movf	i1___fldiv@b,w
  7808     1792  00A8               	movwf	??i1___fldiv
  7809     1793  0825               	movf	i1___fldiv@b+1,w
  7810     1794  00A9               	movwf	??i1___fldiv+1
  7811     1795  0826               	movf	i1___fldiv@b+2,w
  7812     1796  00AA               	movwf	??i1___fldiv+2
  7813     1797  0827               	movf	i1___fldiv@b+3,w
  7814     1798  00AB               	movwf	??i1___fldiv+3
  7815     1799  3001               	movlw	1
  7816     179A  00AC               	movwf	??i1___fldiv+4
  7817     179B                     u377_25:
  7818     179B  0D2B               	rlf	??i1___fldiv+3,w
  7819     179C  0CAB               	rrf	??i1___fldiv+3,f
  7820     179D  0CAA               	rrf	??i1___fldiv+2,f
  7821     179E  0CA9               	rrf	??i1___fldiv+1,f
  7822     179F  0CA8               	rrf	??i1___fldiv,f
  7823     17A0                     u377_20:
  7824     17A0  0BAC               	decfsz	??i1___fldiv+4,f
  7825     17A1  2F9B               	goto	u377_25
  7826     17A2  082B               	movf	??i1___fldiv+3,w
  7827     17A3  00A7               	movwf	i1___fldiv@b+3
  7828     17A4  082A               	movf	??i1___fldiv+2,w
  7829     17A5  00A6               	movwf	i1___fldiv@b+2
  7830     17A6  0829               	movf	??i1___fldiv+1,w
  7831     17A7  00A5               	movwf	i1___fldiv@b+1
  7832     17A8  0828               	movf	??i1___fldiv,w
  7833     17A9  00A4               	movwf	i1___fldiv@b
  7834     17AA                     i1l2482:
  7835     17AA  3001               	movlw	1
  7836     17AB  07B2               	addwf	i1___fldiv@new_exp,f
  7837     17AC  1803               	skipnc
  7838     17AD  0AB3               	incf	i1___fldiv@new_exp+1,f
  7839     17AE  3000               	movlw	0
  7840     17AF  07B3               	addwf	i1___fldiv@new_exp+1,f
  7841     17B0                     i1l2484:
  7842     17B0  0833               	movf	i1___fldiv@new_exp+1,w
  7843     17B1  3A80               	xorlw	128
  7844     17B2  00FF               	movwf	btemp+1
  7845     17B3  3080               	movlw	128
  7846     17B4  027F               	subwf	btemp+1,w
  7847     17B5  1D03               	skipz
  7848     17B6  2FB9               	goto	u378_25
  7849     17B7  30FF               	movlw	255
  7850     17B8  0232               	subwf	i1___fldiv@new_exp,w
  7851     17B9                     u378_25:
  7852     17B9  1C03               	skipc
  7853     17BA  2FBC               	goto	u378_21
  7854     17BB  2FBD               	goto	u378_20
  7855     17BC                     u378_21:
  7856     17BC  2FCB               	goto	i1l2488
  7857     17BD                     u378_20:
  7858     17BD                     i1l2486:
  7859     17BD  30FF               	movlw	255
  7860     17BE  1283               	bcf	3,5	;RP0=0, select bank0
  7861     17BF  1303               	bcf	3,6	;RP1=0, select bank0
  7862     17C0  00B2               	movwf	i1___fldiv@new_exp
  7863     17C1  3000               	movlw	0
  7864     17C2  00B3               	movwf	i1___fldiv@new_exp+1
  7865     17C3  3000               	movlw	0
  7866     17C4  00A7               	movwf	i1___fldiv@b+3
  7867     17C5  3000               	movlw	0
  7868     17C6  00A6               	movwf	i1___fldiv@b+2
  7869     17C7  3000               	movlw	0
  7870     17C8  00A5               	movwf	i1___fldiv@b+1
  7871     17C9  3000               	movlw	0
  7872     17CA  00A4               	movwf	i1___fldiv@b
  7873     17CB                     i1l2488:
  7874     17CB  1283               	bcf	3,5	;RP0=0, select bank0
  7875     17CC  1303               	bcf	3,6	;RP1=0, select bank0
  7876     17CD  0833               	movf	i1___fldiv@new_exp+1,w
  7877     17CE  3A80               	xorlw	128
  7878     17CF  00FF               	movwf	btemp+1
  7879     17D0  3080               	movlw	128
  7880     17D1  027F               	subwf	btemp+1,w
  7881     17D2  1D03               	skipz
  7882     17D3  2FD6               	goto	u379_25
  7883     17D4  3001               	movlw	1
  7884     17D5  0232               	subwf	i1___fldiv@new_exp,w
  7885     17D6                     u379_25:
  7886     17D6  1803               	skipnc
  7887     17D7  2FD9               	goto	u379_21
  7888     17D8  2FDA               	goto	u379_20
  7889     17D9                     u379_21:
  7890     17D9  2FE7               	goto	i1l607
  7891     17DA                     u379_20:
  7892     17DA                     i1l2490:
  7893     17DA  1283               	bcf	3,5	;RP0=0, select bank0
  7894     17DB  1303               	bcf	3,6	;RP1=0, select bank0
  7895     17DC  01B2               	clrf	i1___fldiv@new_exp
  7896     17DD  01B3               	clrf	i1___fldiv@new_exp+1
  7897     17DE                     i1l2492:
  7898     17DE  3000               	movlw	0
  7899     17DF  00A7               	movwf	i1___fldiv@b+3
  7900     17E0  3000               	movlw	0
  7901     17E1  00A6               	movwf	i1___fldiv@b+2
  7902     17E2  3000               	movlw	0
  7903     17E3  00A5               	movwf	i1___fldiv@b+1
  7904     17E4  3000               	movlw	0
  7905     17E5  00A4               	movwf	i1___fldiv@b
  7906     17E6                     i1l2494:
  7907     17E6  01B1               	clrf	i1___fldiv@sign
  7908     17E7                     i1l607:
  7909     17E7  1283               	bcf	3,5	;RP0=0, select bank0
  7910     17E8  1303               	bcf	3,6	;RP1=0, select bank0
  7911     17E9  0832               	movf	i1___fldiv@new_exp,w
  7912     17EA  00B8               	movwf	i1___fldiv@bexp
  7913     17EB                     i1l2496:
  7914     17EB  1C38               	btfss	i1___fldiv@bexp,0
  7915     17EC  2FEE               	goto	u380_21
  7916     17ED  2FEF               	goto	u380_20
  7917     17EE                     u380_21:
  7918     17EE  2FF1               	goto	i1l2500
  7919     17EF                     u380_20:
  7920     17EF                     i1l2498:
  7921     17EF  17A6               	bsf	i1___fldiv@b+2,7
  7922     17F0  2FF5               	goto	i1l609
  7923     17F1                     i1l2500:
  7924     17F1  307F               	movlw	127
  7925     17F2  00A8               	movwf	??i1___fldiv
  7926     17F3  0828               	movf	??i1___fldiv,w
  7927     17F4  05A6               	andwf	i1___fldiv@b+2,f
  7928     17F5                     i1l609:
  7929     17F5  0838               	movf	i1___fldiv@bexp,w
  7930     17F6  00A8               	movwf	??i1___fldiv
  7931     17F7  1003               	clrc
  7932     17F8  0C28               	rrf	??i1___fldiv,w
  7933     17F9  00A7               	movwf	i1___fldiv@b+3
  7934     17FA  0831               	movf	i1___fldiv@sign,w
  7935     17FB  00A8               	movwf	??i1___fldiv
  7936     17FC  0828               	movf	??i1___fldiv,w
  7937     17FD  04A7               	iorwf	i1___fldiv@b+3,f
  7938     17FE  2E9B               	goto	i1l2408
  7939     17FF                     i1l587:
  7940     17FF  0008               	return
  7941     1800                     __end_ofi1___fldiv:
  7942                           
  7943                           	psect	text16
  7944     07E5                     __ptext16:	
  7945 ;; *************** function _pulse *****************
  7946 ;; Defined at:
  7947 ;;		line 104 in file "Progra_IRONMAN.c"
  7948 ;; Parameters:    Size  Location     Type
  7949 ;;		None
  7950 ;; Auto vars:     Size  Location     Type
  7951 ;;		None
  7952 ;; Return value:  Size  Location     Type
  7953 ;;                  1    wreg      void 
  7954 ;; Registers used:
  7955 ;;		wreg, status,2
  7956 ;; Tracked objects:
  7957 ;;		On entry : 0/0
  7958 ;;		On exit  : 0/0
  7959 ;;		Unchanged: 0/0
  7960 ;; Data sizes:     COMMON   BANK0   BANK1   BANK3   BANK2
  7961 ;;      Params:         0       0       0       0       0
  7962 ;;      Locals:         0       0       0       0       0
  7963 ;;      Temps:          0       0       0       0       0
  7964 ;;      Totals:         0       0       0       0       0
  7965 ;;Total ram usage:        0 bytes
  7966 ;; Hardware stack levels used: 1
  7967 ;; This function calls:
  7968 ;;		Nothing
  7969 ;; This function is called by:
  7970 ;;		_isr
  7971 ;; This function uses a non-reentrant model
  7972 ;;
  7973                           
  7974     07E5                     _pulse:	
  7975                           ;psect for function _pulse
  7976                           
  7977     07E5                     i1l2646:	
  7978                           ;incstack = 0
  7979                           ; Regs used in _pulse: [wreg+status,2]
  7980                           
  7981                           
  7982                           ;Progra_IRONMAN.c: 105:     if (PORTCbits.RC4 == 1)
  7983     07E5  1283               	bcf	3,5	;RP0=0, select bank0
  7984     07E6  1303               	bcf	3,6	;RP1=0, select bank0
  7985     07E7  1E07               	btfss	7,4	;volatile
  7986     07E8  2FEA               	goto	u418_21
  7987     07E9  2FEB               	goto	u418_20
  7988     07EA                     u418_21:
  7989     07EA  2FF3               	goto	i1l2652
  7990     07EB                     u418_20:
  7991     07EB                     i1l2648:
  7992                           
  7993                           ;Progra_IRONMAN.c: 106:         {;Progra_IRONMAN.c: 107:             TMR0 = ang1;
  7994     07EB  1683               	bsf	3,5	;RP0=1, select bank3
  7995     07EC  1703               	bsf	3,6	;RP1=1, select bank3
  7996     07ED  0867               	movf	_ang1^(0+384),w
  7997     07EE  1283               	bcf	3,5	;RP0=0, select bank0
  7998     07EF  1303               	bcf	3,6	;RP1=0, select bank0
  7999     07F0  0081               	movwf	1	;volatile
  8000     07F1                     i1l2650:
  8001                           
  8002                           ;Progra_IRONMAN.c: 108:             PORTCbits.RC4 = 0;
  8003     07F1  1207               	bcf	7,4	;volatile
  8004                           
  8005                           ;Progra_IRONMAN.c: 109:         }
  8006     07F2  2FFA               	goto	i1l92
  8007     07F3                     i1l2652:
  8008                           
  8009                           ;Progra_IRONMAN.c: 111:         {;Progra_IRONMAN.c: 112:             TMR0 = (255-ang1);
  8010     07F3  1683               	bsf	3,5	;RP0=1, select bank3
  8011     07F4  1703               	bsf	3,6	;RP1=1, select bank3
  8012     07F5  0967               	comf	_ang1^(0+384),w
  8013     07F6  1283               	bcf	3,5	;RP0=0, select bank0
  8014     07F7  1303               	bcf	3,6	;RP1=0, select bank0
  8015     07F8  0081               	movwf	1	;volatile
  8016     07F9                     i1l2654:
  8017                           
  8018                           ;Progra_IRONMAN.c: 113:             PORTCbits.RC4 = 1;
  8019     07F9  1607               	bsf	7,4	;volatile
  8020     07FA                     i1l92:
  8021     07FA  0008               	return
  8022     07FB                     __end_of_pulse:
  8023                           
  8024                           	psect	text17
  8025     0564                     __ptext17:	
  8026 ;; *************** function ___fladd *****************
  8027 ;; Defined at:
  8028 ;;		line 10 in file "C:\Program Files\Microchip\xc8\v2.40\pic\sources\c90\common\sprcadd.c"
  8029 ;; Parameters:    Size  Location     Type
  8030 ;;  b               4   52[BANK0 ] void 
  8031 ;;  a               4   56[BANK0 ] void 
  8032 ;; Auto vars:     Size  Location     Type
  8033 ;;  grs             1   71[BANK0 ] unsigned char 
  8034 ;;  bexp            1   70[BANK0 ] unsigned char 
  8035 ;;  aexp            1   69[BANK0 ] unsigned char 
  8036 ;;  signs           1   68[BANK0 ] unsigned char 
  8037 ;; Return value:  Size  Location     Type
  8038 ;;                  4   52[BANK0 ] unsigned char 
  8039 ;; Registers used:
  8040 ;;		wreg, status,2, status,0, btemp+1
  8041 ;; Tracked objects:
  8042 ;;		On entry : 0/0
  8043 ;;		On exit  : 0/0
  8044 ;;		Unchanged: 0/0
  8045 ;; Data sizes:     COMMON   BANK0   BANK1   BANK3   BANK2
  8046 ;;      Params:         0       8       0       0       0
  8047 ;;      Locals:         0       4       0       0       0
  8048 ;;      Temps:          0       8       0       0       0
  8049 ;;      Totals:         0      20       0       0       0
  8050 ;;Total ram usage:       20 bytes
  8051 ;; Hardware stack levels used: 1
  8052 ;; This function calls:
  8053 ;;		Nothing
  8054 ;; This function is called by:
  8055 ;;		_isr
  8056 ;; This function uses a non-reentrant model
  8057 ;;
  8058                           
  8059     0564                     ___fladd:	
  8060                           ;psect for function ___fladd
  8061                           
  8062     0564                     i1l2738:	
  8063                           ;incstack = 0
  8064                           ; Regs used in ___fladd: [wreg+status,2+status,0+btemp+1]
  8065                           
  8066     0564  1283               	bcf	3,5	;RP0=0, select bank0
  8067     0565  1303               	bcf	3,6	;RP1=0, select bank0
  8068     0566  0857               	movf	___fladd@b+3,w
  8069     0567  3980               	andlw	128
  8070     0568  00E4               	movwf	___fladd@signs
  8071     0569                     i1l2740:
  8072     0569  0857               	movf	___fladd@b+3,w
  8073     056A  00DC               	movwf	??___fladd
  8074     056B  075C               	addwf	??___fladd,w
  8075     056C  00E6               	movwf	___fladd@bexp
  8076     056D                     i1l2742:
  8077     056D  1FD6               	btfss	___fladd@b+2,7
  8078     056E  2D70               	goto	u419_21
  8079     056F  2D71               	goto	u419_20
  8080     0570                     u419_21:
  8081     0570  2D72               	goto	i1l2746
  8082     0571                     u419_20:
  8083     0571                     i1l2744:
  8084     0571  1466               	bsf	___fladd@bexp,0
  8085     0572                     i1l2746:
  8086     0572  0866               	movf	___fladd@bexp,w
  8087     0573  1903               	btfsc	3,2
  8088     0574  2D76               	goto	u420_21
  8089     0575  2D77               	goto	u420_20
  8090     0576                     u420_21:
  8091     0576  2D87               	goto	i1l2756
  8092     0577                     u420_20:
  8093     0577                     i1l2748:
  8094     0577  0A66               	incf	___fladd@bexp,w
  8095     0578  1D03               	btfss	3,2
  8096     0579  2D7B               	goto	u421_21
  8097     057A  2D7C               	goto	u421_20
  8098     057B                     u421_21:
  8099     057B  2D84               	goto	i1l2752
  8100     057C                     u421_20:
  8101     057C                     i1l2750:
  8102     057C  3000               	movlw	0
  8103     057D  00D7               	movwf	___fladd@b+3
  8104     057E  3000               	movlw	0
  8105     057F  00D6               	movwf	___fladd@b+2
  8106     0580  3000               	movlw	0
  8107     0581  00D5               	movwf	___fladd@b+1
  8108     0582  3000               	movlw	0
  8109     0583  00D4               	movwf	___fladd@b
  8110     0584                     i1l2752:
  8111     0584  17D6               	bsf	___fladd@b+2,7
  8112     0585                     i1l2754:
  8113     0585  01D7               	clrf	___fladd@b+3
  8114     0586  2D8F               	goto	i1l2758
  8115     0587                     i1l2756:
  8116     0587  3000               	movlw	0
  8117     0588  00D7               	movwf	___fladd@b+3
  8118     0589  3000               	movlw	0
  8119     058A  00D6               	movwf	___fladd@b+2
  8120     058B  3000               	movlw	0
  8121     058C  00D5               	movwf	___fladd@b+1
  8122     058D  3000               	movlw	0
  8123     058E  00D4               	movwf	___fladd@b
  8124     058F                     i1l2758:
  8125     058F  085B               	movf	___fladd@a+3,w
  8126     0590  3980               	andlw	128
  8127     0591  00E5               	movwf	___fladd@aexp
  8128     0592                     i1l2760:
  8129     0592  0865               	movf	___fladd@aexp,w
  8130     0593  0664               	xorwf	___fladd@signs,w
  8131     0594  1903               	skipnz
  8132     0595  2D97               	goto	u422_21
  8133     0596  2D98               	goto	u422_20
  8134     0597                     u422_21:
  8135     0597  2D99               	goto	i1l2764
  8136     0598                     u422_20:
  8137     0598                     i1l2762:
  8138     0598  1764               	bsf	___fladd@signs,6
  8139     0599                     i1l2764:
  8140     0599  085B               	movf	___fladd@a+3,w
  8141     059A  00DC               	movwf	??___fladd
  8142     059B  075C               	addwf	??___fladd,w
  8143     059C  00E5               	movwf	___fladd@aexp
  8144     059D                     i1l2766:
  8145     059D  1FDA               	btfss	___fladd@a+2,7
  8146     059E  2DA0               	goto	u423_21
  8147     059F  2DA1               	goto	u423_20
  8148     05A0                     u423_21:
  8149     05A0  2DA2               	goto	i1l2770
  8150     05A1                     u423_20:
  8151     05A1                     i1l2768:
  8152     05A1  1465               	bsf	___fladd@aexp,0
  8153     05A2                     i1l2770:
  8154     05A2  0865               	movf	___fladd@aexp,w
  8155     05A3  1903               	btfsc	3,2
  8156     05A4  2DA6               	goto	u424_21
  8157     05A5  2DA7               	goto	u424_20
  8158     05A6                     u424_21:
  8159     05A6  2DB7               	goto	i1l2780
  8160     05A7                     u424_20:
  8161     05A7                     i1l2772:
  8162     05A7  0A65               	incf	___fladd@aexp,w
  8163     05A8  1D03               	btfss	3,2
  8164     05A9  2DAB               	goto	u425_21
  8165     05AA  2DAC               	goto	u425_20
  8166     05AB                     u425_21:
  8167     05AB  2DB4               	goto	i1l2776
  8168     05AC                     u425_20:
  8169     05AC                     i1l2774:
  8170     05AC  3000               	movlw	0
  8171     05AD  00DB               	movwf	___fladd@a+3
  8172     05AE  3000               	movlw	0
  8173     05AF  00DA               	movwf	___fladd@a+2
  8174     05B0  3000               	movlw	0
  8175     05B1  00D9               	movwf	___fladd@a+1
  8176     05B2  3000               	movlw	0
  8177     05B3  00D8               	movwf	___fladd@a
  8178     05B4                     i1l2776:
  8179     05B4  17DA               	bsf	___fladd@a+2,7
  8180     05B5                     i1l2778:
  8181     05B5  01DB               	clrf	___fladd@a+3
  8182     05B6  2DBF               	goto	i1l529
  8183     05B7                     i1l2780:
  8184     05B7  3000               	movlw	0
  8185     05B8  00DB               	movwf	___fladd@a+3
  8186     05B9  3000               	movlw	0
  8187     05BA  00DA               	movwf	___fladd@a+2
  8188     05BB  3000               	movlw	0
  8189     05BC  00D9               	movwf	___fladd@a+1
  8190     05BD  3000               	movlw	0
  8191     05BE  00D8               	movwf	___fladd@a
  8192     05BF                     i1l529:
  8193     05BF  0866               	movf	___fladd@bexp,w
  8194     05C0  0265               	subwf	___fladd@aexp,w
  8195     05C1  1803               	skipnc
  8196     05C2  2DC4               	goto	u426_21
  8197     05C3  2DC5               	goto	u426_20
  8198     05C4                     u426_21:
  8199     05C4  2DEB               	goto	i1l2816
  8200     05C5                     u426_20:
  8201     05C5                     i1l2782:
  8202     05C5  1F64               	btfss	___fladd@signs,6
  8203     05C6  2DC8               	goto	u427_21
  8204     05C7  2DC9               	goto	u427_20
  8205     05C8                     u427_21:
  8206     05C8  2DCD               	goto	i1l2786
  8207     05C9                     u427_20:
  8208     05C9                     i1l2784:
  8209     05C9  3080               	movlw	128
  8210     05CA  00DC               	movwf	??___fladd
  8211     05CB  085C               	movf	??___fladd,w
  8212     05CC  06E4               	xorwf	___fladd@signs,f
  8213     05CD                     i1l2786:
  8214     05CD  0866               	movf	___fladd@bexp,w
  8215     05CE  00E7               	movwf	___fladd@grs
  8216     05CF                     i1l2788:
  8217     05CF  0865               	movf	___fladd@aexp,w
  8218     05D0  00E6               	movwf	___fladd@bexp
  8219     05D1                     i1l2790:
  8220     05D1  0867               	movf	___fladd@grs,w
  8221     05D2  00E5               	movwf	___fladd@aexp
  8222     05D3                     i1l2792:
  8223     05D3  0854               	movf	___fladd@b,w
  8224     05D4  00E7               	movwf	___fladd@grs
  8225     05D5                     i1l2794:
  8226     05D5  0858               	movf	___fladd@a,w
  8227     05D6  00D4               	movwf	___fladd@b
  8228     05D7                     i1l2796:
  8229     05D7  0867               	movf	___fladd@grs,w
  8230     05D8  00D8               	movwf	___fladd@a
  8231     05D9                     i1l2798:
  8232     05D9  0855               	movf	___fladd@b+1,w
  8233     05DA  00E7               	movwf	___fladd@grs
  8234     05DB                     i1l2800:
  8235     05DB  0859               	movf	___fladd@a+1,w
  8236     05DC  00D5               	movwf	___fladd@b+1
  8237     05DD                     i1l2802:
  8238     05DD  0867               	movf	___fladd@grs,w
  8239     05DE  00D9               	movwf	___fladd@a+1
  8240     05DF                     i1l2804:
  8241     05DF  0856               	movf	___fladd@b+2,w
  8242     05E0  00E7               	movwf	___fladd@grs
  8243     05E1                     i1l2806:
  8244     05E1  085A               	movf	___fladd@a+2,w
  8245     05E2  00D6               	movwf	___fladd@b+2
  8246     05E3                     i1l2808:
  8247     05E3  0867               	movf	___fladd@grs,w
  8248     05E4  00DA               	movwf	___fladd@a+2
  8249     05E5                     i1l2810:
  8250     05E5  0857               	movf	___fladd@b+3,w
  8251     05E6  00E7               	movwf	___fladd@grs
  8252     05E7                     i1l2812:
  8253     05E7  085B               	movf	___fladd@a+3,w
  8254     05E8  00D7               	movwf	___fladd@b+3
  8255     05E9                     i1l2814:
  8256     05E9  0867               	movf	___fladd@grs,w
  8257     05EA  00DB               	movwf	___fladd@a+3
  8258     05EB                     i1l2816:
  8259     05EB  01E7               	clrf	___fladd@grs
  8260     05EC                     i1l2818:
  8261     05EC  0865               	movf	___fladd@aexp,w
  8262     05ED  00DC               	movwf	??___fladd
  8263     05EE  01DD               	clrf	??___fladd+1
  8264     05EF  085D               	movf	??___fladd+1,w
  8265     05F0  00DF               	movwf	??___fladd+3
  8266     05F1  0866               	movf	___fladd@bexp,w
  8267     05F2  025C               	subwf	??___fladd,w
  8268     05F3  00DE               	movwf	??___fladd+2
  8269     05F4  1C03               	skipc
  8270     05F5  03DF               	decf	??___fladd+3,f
  8271     05F6  085F               	movf	??___fladd+3,w
  8272     05F7  3A80               	xorlw	128
  8273     05F8  00FF               	movwf	btemp+1
  8274     05F9  3080               	movlw	128
  8275     05FA  027F               	subwf	btemp+1,w
  8276     05FB  1D03               	skipz
  8277     05FC  2DFF               	goto	u428_25
  8278     05FD  301A               	movlw	26
  8279     05FE  025E               	subwf	??___fladd+2,w
  8280     05FF                     u428_25:
  8281     05FF  1C03               	skipc
  8282     0600  2E02               	goto	u428_21
  8283     0601  2E03               	goto	u428_20
  8284     0602                     u428_21:
  8285     0602  2E3A               	goto	i1l2834
  8286     0603                     u428_20:
  8287     0603                     i1l2820:
  8288     0603  1283               	bcf	3,5	;RP0=0, select bank0
  8289     0604  1303               	bcf	3,6	;RP1=0, select bank0
  8290     0605  0857               	movf	___fladd@b+3,w
  8291     0606  0456               	iorwf	___fladd@b+2,w
  8292     0607  0455               	iorwf	___fladd@b+1,w
  8293     0608  0454               	iorwf	___fladd@b,w
  8294     0609  1D03               	skipz
  8295     060A  2E0C               	goto	u429_21
  8296     060B  2E0E               	goto	u429_20
  8297     060C                     u429_21:
  8298     060C  3001               	movlw	1
  8299     060D  2E0F               	goto	u430_20
  8300     060E                     u429_20:
  8301     060E  3000               	movlw	0
  8302     060F                     u430_20:
  8303     060F  00E7               	movwf	___fladd@grs
  8304     0610  3000               	movlw	0
  8305     0611  00D7               	movwf	___fladd@b+3
  8306     0612  3000               	movlw	0
  8307     0613  00D6               	movwf	___fladd@b+2
  8308     0614  3000               	movlw	0
  8309     0615  00D5               	movwf	___fladd@b+1
  8310     0616  3000               	movlw	0
  8311     0617  00D4               	movwf	___fladd@b
  8312     0618  0865               	movf	___fladd@aexp,w
  8313     0619  00E6               	movwf	___fladd@bexp
  8314     061A  2E42               	goto	i1l533
  8315     061B                     i1l535:
  8316     061B  1C67               	btfss	___fladd@grs,0
  8317     061C  2E1E               	goto	u431_21
  8318     061D  2E1F               	goto	u431_20
  8319     061E                     u431_21:
  8320     061E  2E26               	goto	i1l2824
  8321     061F                     u431_20:
  8322     061F                     i1l2822:
  8323     061F  0867               	movf	___fladd@grs,w
  8324     0620  00DC               	movwf	??___fladd
  8325     0621  1003               	clrc
  8326     0622  0C5C               	rrf	??___fladd,w
  8327     0623  3801               	iorlw	1
  8328     0624  00E7               	movwf	___fladd@grs
  8329     0625  2E28               	goto	i1l2826
  8330     0626                     i1l2824:
  8331     0626  1003               	clrc
  8332     0627  0CE7               	rrf	___fladd@grs,f
  8333     0628                     i1l2826:
  8334     0628  1C54               	btfss	___fladd@b,0
  8335     0629  2E2B               	goto	u432_21
  8336     062A  2E2C               	goto	u432_20
  8337     062B                     u432_21:
  8338     062B  2E2D               	goto	i1l2830
  8339     062C                     u432_20:
  8340     062C                     i1l2828:
  8341     062C  17E7               	bsf	___fladd@grs,7
  8342     062D                     i1l2830:
  8343     062D  3001               	movlw	1
  8344     062E  00DC               	movwf	??___fladd
  8345     062F                     u433_25:
  8346     062F  0D57               	rlf	___fladd@b+3,w
  8347     0630  0CD7               	rrf	___fladd@b+3,f
  8348     0631  0CD6               	rrf	___fladd@b+2,f
  8349     0632  0CD5               	rrf	___fladd@b+1,f
  8350     0633  0CD4               	rrf	___fladd@b,f
  8351     0634  0BDC               	decfsz	??___fladd& (0+127),f
  8352     0635  2E2F               	goto	u433_25
  8353     0636                     i1l2832:
  8354     0636  3001               	movlw	1
  8355     0637  00DC               	movwf	??___fladd
  8356     0638  085C               	movf	??___fladd,w
  8357     0639  07E6               	addwf	___fladd@bexp,f
  8358     063A                     i1l2834:
  8359     063A  1283               	bcf	3,5	;RP0=0, select bank0
  8360     063B  1303               	bcf	3,6	;RP1=0, select bank0
  8361     063C  0865               	movf	___fladd@aexp,w
  8362     063D  0266               	subwf	___fladd@bexp,w
  8363     063E  1C03               	skipc
  8364     063F  2E41               	goto	u434_21
  8365     0640  2E42               	goto	u434_20
  8366     0641                     u434_21:
  8367     0641  2E1B               	goto	i1l535
  8368     0642                     u434_20:
  8369     0642                     i1l533:
  8370     0642  1B64               	btfsc	___fladd@signs,6
  8371     0643  2E45               	goto	u435_21
  8372     0644  2E46               	goto	u435_20
  8373     0645                     u435_21:
  8374     0645  2E8F               	goto	i1l2860
  8375     0646                     u435_20:
  8376     0646                     i1l2836:
  8377     0646  0866               	movf	___fladd@bexp,w
  8378     0647  1D03               	btfss	3,2
  8379     0648  2E4A               	goto	u436_21
  8380     0649  2E4B               	goto	u436_20
  8381     064A                     u436_21:
  8382     064A  2E54               	goto	i1l2842
  8383     064B                     u436_20:
  8384     064B                     i1l2838:
  8385     064B  3000               	movlw	0
  8386     064C  00D7               	movwf	?___fladd+3
  8387     064D  3000               	movlw	0
  8388     064E  00D6               	movwf	?___fladd+2
  8389     064F  3000               	movlw	0
  8390     0650  00D5               	movwf	?___fladd+1
  8391     0651  3000               	movlw	0
  8392     0652  00D4               	movwf	?___fladd
  8393     0653  2FBB               	goto	i1l542
  8394     0654                     i1l2842:
  8395     0654  0858               	movf	___fladd@a,w
  8396     0655  07D4               	addwf	___fladd@b,f
  8397     0656  0859               	movf	___fladd@a+1,w
  8398     0657  1103               	clrz
  8399     0658  1803               	skipnc
  8400     0659  3E01               	addlw	1
  8401     065A  1903               	skipnz
  8402     065B  2E5D               	goto	u437_21
  8403     065C  07D5               	addwf	___fladd@b+1,f
  8404     065D                     u437_21:
  8405     065D  085A               	movf	___fladd@a+2,w
  8406     065E  1103               	clrz
  8407     065F  1803               	skipnc
  8408     0660  3E01               	addlw	1
  8409     0661  1903               	skipnz
  8410     0662  2E64               	goto	u437_22
  8411     0663  07D6               	addwf	___fladd@b+2,f
  8412     0664                     u437_22:
  8413     0664  085B               	movf	___fladd@a+3,w
  8414     0665  1103               	clrz
  8415     0666  1803               	skipnc
  8416     0667  3E01               	addlw	1
  8417     0668  1903               	skipnz
  8418     0669  2E6B               	goto	u437_23
  8419     066A  07D7               	addwf	___fladd@b+3,f
  8420     066B                     u437_23:
  8421     066B                     i1l2844:
  8422     066B  1C57               	btfss	___fladd@b+3,0
  8423     066C  2E6E               	goto	u438_21
  8424     066D  2E6F               	goto	u438_20
  8425     066E                     u438_21:
  8426     066E  2F43               	goto	i1l2894
  8427     066F                     u438_20:
  8428     066F                     i1l2846:
  8429     066F  1C67               	btfss	___fladd@grs,0
  8430     0670  2E72               	goto	u439_21
  8431     0671  2E73               	goto	u439_20
  8432     0672                     u439_21:
  8433     0672  2E7A               	goto	i1l2850
  8434     0673                     u439_20:
  8435     0673                     i1l2848:
  8436     0673  0867               	movf	___fladd@grs,w
  8437     0674  00DC               	movwf	??___fladd
  8438     0675  1003               	clrc
  8439     0676  0C5C               	rrf	??___fladd,w
  8440     0677  3801               	iorlw	1
  8441     0678  00E7               	movwf	___fladd@grs
  8442     0679  2E7C               	goto	i1l2852
  8443     067A                     i1l2850:
  8444     067A  1003               	clrc
  8445     067B  0CE7               	rrf	___fladd@grs,f
  8446     067C                     i1l2852:
  8447     067C  1C54               	btfss	___fladd@b,0
  8448     067D  2E7F               	goto	u440_21
  8449     067E  2E80               	goto	u440_20
  8450     067F                     u440_21:
  8451     067F  2E81               	goto	i1l2856
  8452     0680                     u440_20:
  8453     0680                     i1l2854:
  8454     0680  17E7               	bsf	___fladd@grs,7
  8455     0681                     i1l2856:
  8456     0681  3001               	movlw	1
  8457     0682  00DC               	movwf	??___fladd
  8458     0683                     u441_25:
  8459     0683  0D57               	rlf	___fladd@b+3,w
  8460     0684  0CD7               	rrf	___fladd@b+3,f
  8461     0685  0CD6               	rrf	___fladd@b+2,f
  8462     0686  0CD5               	rrf	___fladd@b+1,f
  8463     0687  0CD4               	rrf	___fladd@b,f
  8464     0688  0BDC               	decfsz	??___fladd& (0+127),f
  8465     0689  2E83               	goto	u441_25
  8466     068A                     i1l2858:
  8467     068A  3001               	movlw	1
  8468     068B  00DC               	movwf	??___fladd
  8469     068C  085C               	movf	??___fladd,w
  8470     068D  07E6               	addwf	___fladd@bexp,f
  8471     068E  2F43               	goto	i1l2894
  8472     068F                     i1l2860:
  8473     068F  0857               	movf	___fladd@b+3,w
  8474     0690  3A80               	xorlw	128
  8475     0691  00FF               	movwf	btemp+1
  8476     0692  085B               	movf	___fladd@a+3,w
  8477     0693  3A80               	xorlw	128
  8478     0694  027F               	subwf	btemp+1,w
  8479     0695  1D03               	skipz
  8480     0696  2EA1               	goto	u442_23
  8481     0697  085A               	movf	___fladd@a+2,w
  8482     0698  0256               	subwf	___fladd@b+2,w
  8483     0699  1D03               	skipz
  8484     069A  2EA1               	goto	u442_23
  8485     069B  0859               	movf	___fladd@a+1,w
  8486     069C  0255               	subwf	___fladd@b+1,w
  8487     069D  1D03               	skipz
  8488     069E  2EA1               	goto	u442_23
  8489     069F  0858               	movf	___fladd@a,w
  8490     06A0  0254               	subwf	___fladd@b,w
  8491     06A1                     u442_23:
  8492     06A1  1803               	skipnc
  8493     06A2  2EA4               	goto	u442_21
  8494     06A3  2EA5               	goto	u442_20
  8495     06A4                     u442_21:
  8496     06A4  2EFD               	goto	i1l2870
  8497     06A5                     u442_20:
  8498     06A5                     i1l2862:
  8499     06A5  30FF               	movlw	255
  8500     06A6  00DC               	movwf	??___fladd
  8501     06A7  30FF               	movlw	255
  8502     06A8  00DD               	movwf	??___fladd+1
  8503     06A9  30FF               	movlw	255
  8504     06AA  00DE               	movwf	??___fladd+2
  8505     06AB  30FF               	movlw	255
  8506     06AC  00DF               	movwf	??___fladd+3
  8507     06AD  0858               	movf	___fladd@a,w
  8508     06AE  00E0               	movwf	??___fladd+4
  8509     06AF  0859               	movf	___fladd@a+1,w
  8510     06B0  00E1               	movwf	??___fladd+5
  8511     06B1  085A               	movf	___fladd@a+2,w
  8512     06B2  00E2               	movwf	??___fladd+6
  8513     06B3  085B               	movf	___fladd@a+3,w
  8514     06B4  00E3               	movwf	??___fladd+7
  8515     06B5  0854               	movf	___fladd@b,w
  8516     06B6  02E0               	subwf	??___fladd+4,f
  8517     06B7  0855               	movf	___fladd@b+1,w
  8518     06B8  1C03               	skipc
  8519     06B9  0F55               	incfsz	___fladd@b+1,w
  8520     06BA  2EBC               	goto	u443_21
  8521     06BB  2EBD               	goto	u443_22
  8522     06BC                     u443_21:
  8523     06BC  02E1               	subwf	??___fladd+5,f
  8524     06BD                     u443_22:
  8525     06BD  0856               	movf	___fladd@b+2,w
  8526     06BE  1C03               	skipc
  8527     06BF  0F56               	incfsz	___fladd@b+2,w
  8528     06C0  2EC2               	goto	u443_23
  8529     06C1  2EC3               	goto	u443_24
  8530     06C2                     u443_23:
  8531     06C2  02E2               	subwf	??___fladd+6,f
  8532     06C3                     u443_24:
  8533     06C3  0857               	movf	___fladd@b+3,w
  8534     06C4  1C03               	skipc
  8535     06C5  0F57               	incfsz	___fladd@b+3,w
  8536     06C6  2EC8               	goto	u443_25
  8537     06C7  2EC9               	goto	u443_26
  8538     06C8                     u443_25:
  8539     06C8  02E3               	subwf	??___fladd+7,f
  8540     06C9                     u443_26:
  8541     06C9  0860               	movf	??___fladd+4,w
  8542     06CA  07DC               	addwf	??___fladd,f
  8543     06CB  0861               	movf	??___fladd+5,w
  8544     06CC  1803               	skipnc
  8545     06CD  0F61               	incfsz	??___fladd+5,w
  8546     06CE  2ED0               	goto	u444_20
  8547     06CF  2ED1               	goto	u444_21
  8548     06D0                     u444_20:
  8549     06D0  07DD               	addwf	??___fladd+1,f
  8550     06D1                     u444_21:
  8551     06D1  0862               	movf	??___fladd+6,w
  8552     06D2  1803               	skipnc
  8553     06D3  0F62               	incfsz	??___fladd+6,w
  8554     06D4  2ED6               	goto	u444_22
  8555     06D5  2ED7               	goto	u444_23
  8556     06D6                     u444_22:
  8557     06D6  07DE               	addwf	??___fladd+2,f
  8558     06D7                     u444_23:
  8559     06D7  0863               	movf	??___fladd+7,w
  8560     06D8  1803               	skipnc
  8561     06D9  0A63               	incf	??___fladd+7,w
  8562     06DA  07DF               	addwf	??___fladd+3,f
  8563     06DB  085F               	movf	??___fladd+3,w
  8564     06DC  00D7               	movwf	___fladd@b+3
  8565     06DD  085E               	movf	??___fladd+2,w
  8566     06DE  00D6               	movwf	___fladd@b+2
  8567     06DF  085D               	movf	??___fladd+1,w
  8568     06E0  00D5               	movwf	___fladd@b+1
  8569     06E1  085C               	movf	??___fladd,w
  8570     06E2  00D4               	movwf	___fladd@b
  8571     06E3                     i1l2864:
  8572     06E3  3080               	movlw	128
  8573     06E4  00DC               	movwf	??___fladd
  8574     06E5  085C               	movf	??___fladd,w
  8575     06E6  06E4               	xorwf	___fladd@signs,f
  8576     06E7  09E7               	comf	___fladd@grs,f
  8577     06E8  0AE7               	incf	___fladd@grs,f
  8578     06E9                     i1l2866:
  8579     06E9  0867               	movf	___fladd@grs,w
  8580     06EA  1D03               	btfss	3,2
  8581     06EB  2EED               	goto	u445_21
  8582     06EC  2EEE               	goto	u445_20
  8583     06ED                     u445_21:
  8584     06ED  2F0B               	goto	i1l550
  8585     06EE                     u445_20:
  8586     06EE                     i1l2868:
  8587     06EE  3001               	movlw	1
  8588     06EF  07D4               	addwf	___fladd@b,f
  8589     06F0  3000               	movlw	0
  8590     06F1  1803               	skipnc
  8591     06F2  3001               	movlw	1
  8592     06F3  07D5               	addwf	___fladd@b+1,f
  8593     06F4  3000               	movlw	0
  8594     06F5  1803               	skipnc
  8595     06F6  3001               	movlw	1
  8596     06F7  07D6               	addwf	___fladd@b+2,f
  8597     06F8  3000               	movlw	0
  8598     06F9  1803               	skipnc
  8599     06FA  3001               	movlw	1
  8600     06FB  07D7               	addwf	___fladd@b+3,f
  8601     06FC  2F0B               	goto	i1l550
  8602     06FD                     i1l2870:
  8603     06FD  0858               	movf	___fladd@a,w
  8604     06FE  02D4               	subwf	___fladd@b,f
  8605     06FF  0859               	movf	___fladd@a+1,w
  8606     0700  1C03               	skipc
  8607     0701  0F59               	incfsz	___fladd@a+1,w
  8608     0702  02D5               	subwf	___fladd@b+1,f
  8609     0703  085A               	movf	___fladd@a+2,w
  8610     0704  1C03               	skipc
  8611     0705  0F5A               	incfsz	___fladd@a+2,w
  8612     0706  02D6               	subwf	___fladd@b+2,f
  8613     0707  085B               	movf	___fladd@a+3,w
  8614     0708  1C03               	skipc
  8615     0709  0F5B               	incfsz	___fladd@a+3,w
  8616     070A  02D7               	subwf	___fladd@b+3,f
  8617     070B                     i1l550:
  8618     070B  0857               	movf	___fladd@b+3,w
  8619     070C  0456               	iorwf	___fladd@b+2,w
  8620     070D  0455               	iorwf	___fladd@b+1,w
  8621     070E  0454               	iorwf	___fladd@b,w
  8622     070F  1D03               	skipz
  8623     0710  2F12               	goto	u446_21
  8624     0711  2F13               	goto	u446_20
  8625     0712                     u446_21:
  8626     0712  2F3F               	goto	i1l2892
  8627     0713                     u446_20:
  8628     0713                     i1l2872:
  8629     0713  0867               	movf	___fladd@grs,w
  8630     0714  1D03               	btfss	3,2
  8631     0715  2F17               	goto	u447_21
  8632     0716  2F18               	goto	u447_20
  8633     0717                     u447_21:
  8634     0717  2F3F               	goto	i1l2892
  8635     0718                     u447_20:
  8636     0718                     i1l2874:
  8637     0718  3000               	movlw	0
  8638     0719  00D7               	movwf	?___fladd+3
  8639     071A  3000               	movlw	0
  8640     071B  00D6               	movwf	?___fladd+2
  8641     071C  3000               	movlw	0
  8642     071D  00D5               	movwf	?___fladd+1
  8643     071E  3000               	movlw	0
  8644     071F  00D4               	movwf	?___fladd
  8645     0720  2FBB               	goto	i1l542
  8646     0721                     i1l2878:
  8647     0721  3001               	movlw	1
  8648     0722  00DC               	movwf	??___fladd
  8649     0723                     u448_25:
  8650     0723  1003               	clrc
  8651     0724  0DD4               	rlf	___fladd@b,f
  8652     0725  0DD5               	rlf	___fladd@b+1,f
  8653     0726  0DD6               	rlf	___fladd@b+2,f
  8654     0727  0DD7               	rlf	___fladd@b+3,f
  8655     0728  0BDC               	decfsz	??___fladd,f
  8656     0729  2F23               	goto	u448_25
  8657     072A                     i1l2880:
  8658     072A  1FE7               	btfss	___fladd@grs,7
  8659     072B  2F2D               	goto	u449_21
  8660     072C  2F2E               	goto	u449_20
  8661     072D                     u449_21:
  8662     072D  2F2F               	goto	i1l554
  8663     072E                     u449_20:
  8664     072E                     i1l2882:
  8665     072E  1454               	bsf	___fladd@b,0
  8666     072F                     i1l554:
  8667     072F  1C67               	btfss	___fladd@grs,0
  8668     0730  2F32               	goto	u450_21
  8669     0731  2F33               	goto	u450_20
  8670     0732                     u450_21:
  8671     0732  2F36               	goto	i1l2886
  8672     0733                     u450_20:
  8673     0733                     i1l2884:
  8674     0733  1403               	setc
  8675     0734  0DE7               	rlf	___fladd@grs,f
  8676     0735  2F38               	goto	i1l2888
  8677     0736                     i1l2886:
  8678     0736  1003               	clrc
  8679     0737  0DE7               	rlf	___fladd@grs,f
  8680     0738                     i1l2888:
  8681     0738  0866               	movf	___fladd@bexp,w
  8682     0739  1903               	btfsc	3,2
  8683     073A  2F3C               	goto	u451_21
  8684     073B  2F3D               	goto	u451_20
  8685     073C                     u451_21:
  8686     073C  2F3F               	goto	i1l2892
  8687     073D                     u451_20:
  8688     073D                     i1l2890:
  8689     073D  3001               	movlw	1
  8690     073E  02E6               	subwf	___fladd@bexp,f
  8691     073F                     i1l2892:
  8692     073F  1FD6               	btfss	___fladd@b+2,7
  8693     0740  2F42               	goto	u452_21
  8694     0741  2F43               	goto	u452_20
  8695     0742                     u452_21:
  8696     0742  2F21               	goto	i1l2878
  8697     0743                     u452_20:
  8698     0743                     i1l2894:
  8699     0743  01E5               	clrf	___fladd@aexp
  8700     0744                     i1l2896:
  8701     0744  1FE7               	btfss	___fladd@grs,7
  8702     0745  2F47               	goto	u453_21
  8703     0746  2F48               	goto	u453_20
  8704     0747                     u453_21:
  8705     0747  2F56               	goto	i1l2904
  8706     0748                     u453_20:
  8707     0748                     i1l2898:
  8708     0748  0867               	movf	___fladd@grs,w
  8709     0749  397F               	andlw	127
  8710     074A  1903               	btfsc	3,2
  8711     074B  2F4D               	goto	u454_21
  8712     074C  2F4E               	goto	u454_20
  8713     074D                     u454_21:
  8714     074D  2F51               	goto	i1l560
  8715     074E                     u454_20:
  8716     074E                     i1l2900:
  8717     074E  01E5               	clrf	___fladd@aexp
  8718     074F  0AE5               	incf	___fladd@aexp,f
  8719     0750  2F56               	goto	i1l2904
  8720     0751                     i1l560:
  8721     0751  1C54               	btfss	___fladd@b,0
  8722     0752  2F54               	goto	u455_21
  8723     0753  2F55               	goto	u455_20
  8724     0754                     u455_21:
  8725     0754  2F56               	goto	i1l2904
  8726     0755                     u455_20:
  8727     0755  2F4E               	goto	i1l2900
  8728     0756                     i1l2904:
  8729     0756  0865               	movf	___fladd@aexp,w
  8730     0757  1903               	btfsc	3,2
  8731     0758  2F5A               	goto	u456_21
  8732     0759  2F5B               	goto	u456_20
  8733     075A                     u456_21:
  8734     075A  2F8F               	goto	i1l563
  8735     075B                     u456_20:
  8736     075B                     i1l2906:
  8737     075B  3001               	movlw	1
  8738     075C  07D4               	addwf	___fladd@b,f
  8739     075D  3000               	movlw	0
  8740     075E  1803               	skipnc
  8741     075F  3001               	movlw	1
  8742     0760  07D5               	addwf	___fladd@b+1,f
  8743     0761  3000               	movlw	0
  8744     0762  1803               	skipnc
  8745     0763  3001               	movlw	1
  8746     0764  07D6               	addwf	___fladd@b+2,f
  8747     0765  3000               	movlw	0
  8748     0766  1803               	skipnc
  8749     0767  3001               	movlw	1
  8750     0768  07D7               	addwf	___fladd@b+3,f
  8751     0769                     i1l2908:
  8752     0769  1C57               	btfss	___fladd@b+3,0
  8753     076A  2F6C               	goto	u457_21
  8754     076B  2F6D               	goto	u457_20
  8755     076C                     u457_21:
  8756     076C  2F8F               	goto	i1l563
  8757     076D                     u457_20:
  8758     076D                     i1l2910:
  8759     076D  0854               	movf	___fladd@b,w
  8760     076E  00DC               	movwf	??___fladd
  8761     076F  0855               	movf	___fladd@b+1,w
  8762     0770  00DD               	movwf	??___fladd+1
  8763     0771  0856               	movf	___fladd@b+2,w
  8764     0772  00DE               	movwf	??___fladd+2
  8765     0773  0857               	movf	___fladd@b+3,w
  8766     0774  00DF               	movwf	??___fladd+3
  8767     0775  3001               	movlw	1
  8768     0776  00E0               	movwf	??___fladd+4
  8769     0777                     u458_25:
  8770     0777  0D5F               	rlf	??___fladd+3,w
  8771     0778  0CDF               	rrf	??___fladd+3,f
  8772     0779  0CDE               	rrf	??___fladd+2,f
  8773     077A  0CDD               	rrf	??___fladd+1,f
  8774     077B  0CDC               	rrf	??___fladd,f
  8775     077C                     u458_20:
  8776     077C  0BE0               	decfsz	??___fladd+4,f
  8777     077D  2F77               	goto	u458_25
  8778     077E  085F               	movf	??___fladd+3,w
  8779     077F  00D7               	movwf	___fladd@b+3
  8780     0780  085E               	movf	??___fladd+2,w
  8781     0781  00D6               	movwf	___fladd@b+2
  8782     0782  085D               	movf	??___fladd+1,w
  8783     0783  00D5               	movwf	___fladd@b+1
  8784     0784  085C               	movf	??___fladd,w
  8785     0785  00D4               	movwf	___fladd@b
  8786     0786  0A66               	incf	___fladd@bexp,w
  8787     0787  1903               	btfsc	3,2
  8788     0788  2F8A               	goto	u459_21
  8789     0789  2F8B               	goto	u459_20
  8790     078A                     u459_21:
  8791     078A  2F8F               	goto	i1l563
  8792     078B                     u459_20:
  8793     078B                     i1l2912:
  8794     078B  3001               	movlw	1
  8795     078C  00DC               	movwf	??___fladd
  8796     078D  085C               	movf	??___fladd,w
  8797     078E  07E6               	addwf	___fladd@bexp,f
  8798     078F                     i1l563:
  8799     078F  0A66               	incf	___fladd@bexp,w
  8800     0790  1903               	btfsc	3,2
  8801     0791  2F93               	goto	u460_21
  8802     0792  2F94               	goto	u460_20
  8803     0793                     u460_21:
  8804     0793  2F99               	goto	i1l2916
  8805     0794                     u460_20:
  8806     0794                     i1l2914:
  8807     0794  0866               	movf	___fladd@bexp,w
  8808     0795  1D03               	btfss	3,2
  8809     0796  2F98               	goto	u461_21
  8810     0797  2F99               	goto	u461_20
  8811     0798                     u461_21:
  8812     0798  2FA7               	goto	i1l2922
  8813     0799                     u461_20:
  8814     0799                     i1l2916:
  8815     0799  3000               	movlw	0
  8816     079A  00D7               	movwf	___fladd@b+3
  8817     079B  3000               	movlw	0
  8818     079C  00D6               	movwf	___fladd@b+2
  8819     079D  3000               	movlw	0
  8820     079E  00D5               	movwf	___fladd@b+1
  8821     079F  3000               	movlw	0
  8822     07A0  00D4               	movwf	___fladd@b
  8823     07A1                     i1l2918:
  8824     07A1  0866               	movf	___fladd@bexp,w
  8825     07A2  1D03               	btfss	3,2
  8826     07A3  2FA5               	goto	u462_21
  8827     07A4  2FA6               	goto	u462_20
  8828     07A5                     u462_21:
  8829     07A5  2FA7               	goto	i1l2922
  8830     07A6                     u462_20:
  8831     07A6                     i1l2920:
  8832     07A6  01E4               	clrf	___fladd@signs
  8833     07A7                     i1l2922:
  8834     07A7  1C66               	btfss	___fladd@bexp,0
  8835     07A8  2FAA               	goto	u463_21
  8836     07A9  2FAB               	goto	u463_20
  8837     07AA                     u463_21:
  8838     07AA  2FAD               	goto	i1l2926
  8839     07AB                     u463_20:
  8840     07AB                     i1l2924:
  8841     07AB  17D6               	bsf	___fladd@b+2,7
  8842     07AC  2FB1               	goto	i1l571
  8843     07AD                     i1l2926:
  8844     07AD  307F               	movlw	127
  8845     07AE  00DC               	movwf	??___fladd
  8846     07AF  085C               	movf	??___fladd,w
  8847     07B0  05D6               	andwf	___fladd@b+2,f
  8848     07B1                     i1l571:
  8849     07B1  0866               	movf	___fladd@bexp,w
  8850     07B2  00DC               	movwf	??___fladd
  8851     07B3  1003               	clrc
  8852     07B4  0C5C               	rrf	??___fladd,w
  8853     07B5  00D7               	movwf	___fladd@b+3
  8854     07B6                     i1l2928:
  8855     07B6  1FE4               	btfss	___fladd@signs,7
  8856     07B7  2FB9               	goto	u464_21
  8857     07B8  2FBA               	goto	u464_20
  8858     07B9                     u464_21:
  8859     07B9  2FBB               	goto	i1l572
  8860     07BA                     u464_20:
  8861     07BA                     i1l2930:
  8862     07BA  17D7               	bsf	___fladd@b+3,7
  8863     07BB                     i1l572:
  8864     07BB                     i1l542:
  8865     07BB  0008               	return
  8866     07BC                     __end_of___fladd:
  8867     007E                     btemp	set	126	;btemp
  8868     007E                     wtemp0	set	126
  8869                           
  8870                           	psect	idloc
  8871                           
  8872                           ;Config register IDLOC0 @ 0x2000
  8873                           ;	unspecified, using default values
  8874     2000                     	org	8192
  8875     2000  3FFF               	dw	16383
  8876                           
  8877                           ;Config register IDLOC1 @ 0x2001
  8878                           ;	unspecified, using default values
  8879     2001                     	org	8193
  8880     2001  3FFF               	dw	16383
  8881                           
  8882                           ;Config register IDLOC2 @ 0x2002
  8883                           ;	unspecified, using default values
  8884     2002                     	org	8194
  8885     2002  3FFF               	dw	16383
  8886                           
  8887                           ;Config register IDLOC3 @ 0x2003
  8888                           ;	unspecified, using default values
  8889     2003                     	org	8195
  8890     2003  3FFF               	dw	16383
  8891                           
  8892                           	psect	config
  8893                           
  8894                           ;Config register CONFIG1 @ 0x2007
  8895                           ;	Oscillator Selection bits
  8896                           ;	FOSC = INTRC_NOCLKOUT, INTOSCIO oscillator: I/O function on RA6/OSC2/CLKOUT pin, I/O f
      +                          unction on RA7/OSC1/CLKIN
  8897                           ;	Watchdog Timer Enable bit
  8898                           ;	WDTE = OFF, WDT disabled and can be enabled by SWDTEN bit of the WDTCON register
  8899                           ;	Power-up Timer Enable bit
  8900                           ;	PWRTE = OFF, PWRT disabled
  8901                           ;	RE3/MCLR pin function select bit
  8902                           ;	MCLRE = OFF, RE3/MCLR pin function is digital input, MCLR internally tied to VDD
  8903                           ;	Code Protection bit
  8904                           ;	CP = OFF, Program memory code protection is disabled
  8905                           ;	Data Code Protection bit
  8906                           ;	CPD = OFF, Data memory code protection is disabled
  8907                           ;	Brown Out Reset Selection bits
  8908                           ;	BOREN = OFF, BOR disabled
  8909                           ;	Internal External Switchover bit
  8910                           ;	IESO = OFF, Internal/External Switchover mode is disabled
  8911                           ;	Fail-Safe Clock Monitor Enabled bit
  8912                           ;	FCMEN = OFF, Fail-Safe Clock Monitor is disabled
  8913                           ;	Low Voltage Programming Enable bit
  8914                           ;	LVP = OFF, RB3 pin has digital I/O, HV on MCLR must be used for programming
  8915                           ;	In-Circuit Debugger Mode bit
  8916                           ;	DEBUG = 0x1, unprogramme  8917     2007                     	org	8199
  8918     2007  20D4               	dw	8404
  8919                           
  8920                           ;Config register CONFIG2 @ 0x2008
  8921                           ;	Brown-out Reset Selection bit
  8922                           ;	BOR4V = BOR40V, Brown-out Reset set to 4.0V
  8923                           ;	Flash Program Memory Self Write Enable bits
  8924                           ;	WRT = OFF, Write protection off
  8925     2008                     	org	8200
  8926     2008  3FFF               	dw	16383

Data Sizes:
    Strings     0
    Constant    0
    Data        1
    BSS         16
    Persistent  2
    Stack       0

Auto Spaces:
    Space          Size  Autos    Used
    COMMON           14     14      14
    BANK0            80     80      80
    BANK1            80     46      55
    BANK3            96     78      88
    BANK2            96      0       0

Pointer List with Targets:

    None.

Critical Paths under _main in COMMON

    None.

Critical Paths under _isr in COMMON

    _isr->i1___xxtofl
    i1___fltol->i1___xxtofl
    i1___flmul->i1___xxtofl
    i1___fldiv->i1___xxtofl
    ___fladd->i1___xxtofl

Critical Paths under _main in BANK0

    None.

Critical Paths under _isr in BANK0

    _isr->i1___fltol
    i1_PWM_duty->i1___fltol
    i1___fltol->___fladd
    i1___flmul->i1___fldiv
    ___fladd->i1___flmul

Critical Paths under _main in BANK1

    _main->___fltol
    _PWM_duty->___fltol
    ___flmul->___xxtofl
    _PWM_config->___fltol
    ___fltol->___flmul
    ___fldiv->___flmul

Critical Paths under _isr in BANK1

    _isr->i1_PWM_duty
    i1_PWM_duty->i1___fltol

Critical Paths under _main in BANK3

    _main->_setup
    _setup->_PWM_duty
    _PWM_duty->___fltol
    _PWM_config->___fltol
    ___fltol->___fldiv
    ___fldiv->___flmul

Critical Paths under _isr in BANK3

    None.

Critical Paths under _main in BANK2

    None.

Critical Paths under _isr in BANK2

    None.

Call Graph Tables:

 ---------------------------------------------------------------------------------
 (Depth) Function   	        Calls       Base Space   Used Autos Params    Refs
 ---------------------------------------------------------------------------------
 (0) _main                                                10    10      0   20803
                                             68 BANK3     10    10      0
                            ___fldiv
                            ___flmul
                            ___fltol
                           ___xxtofl
                              _setup
 ---------------------------------------------------------------------------------
 (1) _setup                                                1     1      0   12142
                                             67 BANK3      1     1      0
                         _PWM_config
                           _PWM_duty
 ---------------------------------------------------------------------------------
 (2) _PWM_duty                                            12     8      4    8353
                                             55 BANK3     12     8      4
                            ___fldiv
                            ___flmul
                            ___fltol
 ---------------------------------------------------------------------------------
 (3) ___flmul                                             26    18      8    4262
                                             39 BANK1      5     5      0
                                              0 BANK3     21    13      8
                          __Umul8_16
                           ___xxtofl (ARG)
 ---------------------------------------------------------------------------------
 (4) __Umul8_16                                            9     7      2     799
                                             25 BANK1      9     7      2
 ---------------------------------------------------------------------------------
 (2) _PWM_config                                           5     1      4    3789
                                             55 BANK3      5     1      4
                            ___fldiv
                            ___fltol
 ---------------------------------------------------------------------------------
 (3) ___fltol                                             10     6      4     862
                                             44 BANK1      2     2      0
                                             47 BANK3      8     4      4
                            ___fldiv (ARG)
                            ___flmul (ARG)
 ---------------------------------------------------------------------------------
 (3) ___fldiv                                             26    18      8    2623
                                             21 BANK3     26    18      8
                            ___flmul (ARG)
                           ___xxtofl (ARG)
 ---------------------------------------------------------------------------------
 (1) ___xxtofl                                            14    10      4     648
                                             25 BANK1     14    10      4
 ---------------------------------------------------------------------------------
 Estimated maximum stack depth 4
 ---------------------------------------------------------------------------------
 (Depth) Function   	        Calls       Base Space   Used Autos Params    Refs
 ---------------------------------------------------------------------------------
 (5) _isr                                                 11    11      0   10768
                                             14 BANK1     11    11      0
                            ___fladd
                              _pulse
                         i1_PWM_duty
                          i1___fldiv
                          i1___flmul
                          i1___fltol
                         i1___xxtofl
 ---------------------------------------------------------------------------------
 (6) i1___xxtofl                                          14    10      4     452
                                              0 COMMON    14    10      4
 ---------------------------------------------------------------------------------
 (6) i1_PWM_duty                                          12     8      4    4141
                                              2 BANK1     12     8      4
                          i1___fldiv
                          i1___flmul
                          i1___fltol
 ---------------------------------------------------------------------------------
 (6) i1___fltol                                           10     6      4     359
                                             72 BANK0      8     4      4
                                              0 BANK1      2     2      0
                            ___fladd (ARG)
                          i1___fldiv (ARG)
                          i1___flmul (ARG)
                         i1___xxtofl (ARG)
 ---------------------------------------------------------------------------------
 (6) i1___flmul                                           26    18      8    2179
                                             26 BANK0     26    18      8
                        i1__Umul8_16
                          i1___fldiv (ARG)
                         i1___xxtofl (ARG)
 ---------------------------------------------------------------------------------
 (7) i1__Umul8_16                                          9     7      2     349
                                              0 COMMON     9     7      2
 ---------------------------------------------------------------------------------
 (6) i1___fldiv                                           26    18      8    1329
                                              0 BANK0     26    18      8
                        i1__Umul8_16 (ARG)
                         i1___xxtofl (ARG)
 ---------------------------------------------------------------------------------
 (6) _pulse                                                0     0      0       0
 ---------------------------------------------------------------------------------
 (6) ___fladd                                             20    12      8    2262
                                             52 BANK0     20    12      8
                          i1___flmul (ARG)
                         i1___xxtofl (ARG)
 ---------------------------------------------------------------------------------
 Estimated maximum stack depth 7
 ---------------------------------------------------------------------------------

 Call Graph Graphs:

 _main (ROOT)
   ___fldiv
     ___flmul (ARG)
       __Umul8_16
       ___xxtofl (ARG)
     ___xxtofl (ARG)
   ___flmul
   ___fltol
     ___fldiv (ARG)
     ___flmul (ARG)
   ___xxtofl
   _setup
     _PWM_config
       ___fldiv
       ___fltol
     _PWM_duty
       ___fldiv
       ___flmul
       ___fltol

 _isr (ROOT)
   ___fladd
     i1___flmul (ARG)
       i1__Umul8_16
       i1___fldiv (ARG)
         i1__Umul8_16 (ARG)
         i1___xxtofl (ARG)
       i1___xxtofl (ARG)
     i1___xxtofl (ARG)
   _pulse
   i1_PWM_duty
     i1___fldiv
     i1___flmul
     i1___fltol
       ___fladd (ARG)
       i1___fldiv (ARG)
       i1___flmul (ARG)
       i1___xxtofl (ARG)
   i1___fldiv
   i1___flmul
   i1___fltol
   i1___xxtofl

 Address spaces:
Name               Size   Autos  Total    Cost      Usage
BANK3               60     4E      58       9       91.7%
BITBANK3            60      0       0       8        0.0%
SFR3                 0      0       0       4        0.0%
BITSFR3              0      0       0       4        0.0%
BANK2               60      0       0      11        0.0%
BITBANK2            60      0       0      10        0.0%
SFR2                 0      0       0       5        0.0%
BITSFR2              0      0       0       5        0.0%
BANK1               50     2E      37       7       68.8%
BITBANK1            50      0       0       6        0.0%
SFR1                 0      0       0       2        0.0%
BITSFR1              0      0       0       2        0.0%
BANK0               50     50      50       5      100.0%
BITBANK0            50      0       0       4        0.0%
SFR0                 0      0       0       1        0.0%
BITSFR0              0      0       0       1        0.0%
COMMON               E      E       E       1      100.0%
BITCOMMON            E      0       0       0        0.0%
CODE                 0      0       0       0        0.0%
DATA                 0      0      ED      12        0.0%
ABS                  0      0      ED       3        0.0%
NULL                 0      0       0       0        0.0%
STACK                0      0       0       2        0.0%
EEDATA             100      0       0       0        0.0%


Microchip Technology PIC Macro Assembler V2.40 build 20220703182018 
Symbol Table                                                                                   Mon May 15 10:14:33 2023

            ___fldiv@aexp 01BE              ___fldiv@bexp 01BD                         _i 00D4  
            ___fldiv@sign 01B6               i1___fldiv@a 0020               i1___fldiv@b 0024  
             i1___flmul@a 003E               i1___flmul@b 003A       __Umul8_16@word_mpld 00BF  
              i1___xxtofl 121C                       l101 140D                       l105 142C  
                     l141 1062                       l117 121B                       l142 106E  
                     l150 13D9                       l144 1071                       l139 105E  
                     l422 118D                       l432 118D                       l601 0A2C  
                     l429 1176                       l607 0A9E                       l631 04AD  
                     l609 0AAC                       l625 0563                       l644 07D2  
                     l637 0553                       l646 07E4                       l671 08E3  
                     l585 093A                       l682 08AD                       l683 08B9  
                     l675 0891                       l587 0AB6                       l669 084E  
                     _PR2 0092                _PWM_config 1004                       _isr 0AB7  
            i1___fltol@f1 0068              ___flmul@aexp 0199              ___flmul@bexp 019E  
            ___flmul@sign 0198              ___flmul@temp 01A3              ___flmul@prod 019F  
           i1___fldiv@grs 0034             i1___fldiv@rem 002D              ___fltol@exp1 00CD  
                    l3200 0983                      l3120 113E                      l3112 1118  
                    l3210 09AC                      l3202 098B                      l3122 1142  
                    l3130 1160                      l3114 112F                      l3106 1100  
                    l3220 09CD                      l3212 09B0                      l3204 0993  
                    l3140 1180                      l3116 1132                      l3108 110D  
                    l3300 0059                      l3230 09EF                      l3222 09DB  
                    l3214 09B1                      l3206 0995                      l3150 08F2  
                    l3142 08E4                      l3118 113A                      l3310 0077  
                    l3302 0061                      l3232 09F8                      l3240 0A0C  
                    l3208 099A                      l3216 09BA                      l3224 09DF  
                    l3152 08F7                      l3160 0907                      l3144 08E9  
                    l3136 1167                      l3128 114A                      l3400 0500  
                    l3320 0093                      l3312 007C                      l3304 006A  
                    l3242 0A10                      l3234 09FC                      l3226 09E5  
                    l3218 09CC                      l3170 091D                      l3162 090F  
                    l3154 08FC                      l3146 08ED                      l3138 117B  
                    l3410 0537                      l3402 0506                      l3330 00BE  
                    l3322 0098                      l3314 0081                      l3306 0072  
                    l3260 0A61                      l3252 0A31                      l3244 0A11  
                    l3236 09FD                      l3228 09ED                      l3172 0922  
                    l3180 0932                      l3164 0914                      l3156 0904  
                    l3148 08F1                      l3420 055B                      l3412 0539  
                    l3404 0513                      l3340 01B8                      l3332 00DB  
                    l3324 009D                      l3316 0089                      l3308 0076  
                    l3500 11A0                      l3270 0A95                      l3254 0A36  
                    l3262 0A67                      l3246 0A15                      l3238 0A06  
                    l3182 0942                      l3190 095B                      l3174 0927  
                    l3166 0918                      l3158 0905                      l3414 0545  
                    l3406 051E                      l3350 025E                      l3342 01E8  
                    l3334 0110                      l3318 008B                      l3430 132E  
                    l3510 11AB                      l3502 11A1                      l3272 0A9D  
                    l3264 0A74                      l3256 0A44                      l3248 0A29  
                    l3192 0960                      l3184 094E                      l3176 092F  
                    l3168 091C                      l3416 0549                      l3408 052D  
                    l3360 0356                      l3352 0293                      l3344 01F7  
                    l3336 0140                      l3328 00A6                      l3440 13AF  
                    l3432 133F                      l3424 12D7                      l3520 11B0  
                    l3512 11AC                      l3504 11A2                      l3274 0AA2  
                    l3266 0A82                      l3258 0A48                      l3186 0952  
                    l3178 0930                      l3450 1038                      l1930 07CC  
                    l3418 054A                      l3370 0450                      l3362 03A3  
                    l3354 02BC                      l3346 0211                      l3338 0188  
                    l3290 0044                      l3442 13C0                      l3426 12DC  
                    l3434 1359                      l3530 11B7                      l3522 11B1  
                    l3514 11AD                      l3506 11A5                      l3276 0AA6  
                    l3268 0A91                      l3196 0969                      l3452 103B  
                    l3460 1048                      l1932 07DB                      l1924 07BF  
                    l3372 045F                      l3380 047D                      l3364 03E1  
                    l3356 02F1                      l3348 0246                      l3292 0045  
                    l3284 0033                      l3436 135F                      l3428 131D  
                    l3540 11BE                      l3532 11B8                      l3524 11B4  
                    l3516 11AE                      l3508 11A7                      l3278 0AA8  
                    l3198 097B                      l3470 1057                      l3462 104E  
                    l3454 1043                      l3446 1007                      l1934 07E0  
                    l1926 07C1                      l3382 0481                      l3374 0465  
                    l3366 0429                      l3358 033E                      l3294 004A  
                    l3286 0038                      l3438 13A0                      l3550 11D3  
                    l3542 11C3                      l3534 11B9                      l3526 11B5  
                    l3518 11AF                      l3480 106A                      l3464 1051  
                    l3472 1058                      l3456 1045                      l3448 1031  
                    l1928 07C8                      l3392 04B4                      l3384 0482  
                    l3376 0466                      l3368 0438                      l3296 004F  
                    l3288 0040                      l3552 11DB                      l3544 11C6  
                    l3536 11BA                      l3528 11B6                      l3474 105B  
                    l3466 1055                      l3458 1046                      l3394 04B9  
                    l3386 0486                      l3378 0475                      l3298 0057  
                    l3554 11EB                      l3546 11CD                      l3538 11BD  
                    l3490 1199                      l3482 118E                      l3570 13FD  
                    l3562 13DA                      l2940 0856                      l2932 082D  
                    l3476 105D                      l3468 1056                      l3396 04C7  
                    l3388 04A8                      l3556 11FB                      l3548 11D0  
                    l3492 119A                      l3484 1193                      l3580 1489  
                    l3572 1407                      l3564 13E8                      l2950 0876  
                    l2934 0832                      l3478 1063                      l3398 04CB  
                    l3558 120B                      l3494 119B                      l3486 1194  
                    l3590 14D8                      l3582 14B3                      l3574 141C  
                    l3566 13ED                      l2960 08A7                      l2952 087A  
                    l2944 085F                      l2936 0836                      l3496 119E  
                    l3488 1198                      l3592 14DF                      l3584 14B9  
                    l3576 1426                      l3568 13F0                      l2970 08DA  
                    l2962 08B1                      l2954 0888                      l2946 0862  
                    l2938 0846                      l3498 119F                      l3594 14EC  
                    l3586 14C4                      l3578 142E                      l2972 08DB  
                    l2964 08BB                      l2956 0898                      l2948 086F  
                    l3596 14F0                      l3588 14CB                      l2966 08D1  
                    l2958 08A3                      l3598 14F8                      l2968 08D6  
                    ?_isr 0070                      _IOCB 0096                      u5100 1149  
                    u2540 07CC                      u5101 1148                      u2541 07CB  
                    u5200 091C                      u5120 115F                      u2560 07E0  
                    u5201 091B                      u5121 115E                      u2561 07DF  
                    u5210 0922                      u5130 1166                      u5211 0921  
                    u5131 1165                      u5115 114B                      u2555 07D3  
                    u5300 09CC                      u5220 0927                      u5301 09CB  
                    u5221 0926                      u5310 09E5                      u5230 0942  
                    u5150 117B                      u5070 110D                      u5311 09E4  
                    u5231 0941                      u5151 117A                      u5071 110C  
                    u5400 0A36                      u5320 09ED                      u5240 0960  
                    u5160 1180                      u5080 1128                      u5401 0A35  
                    u5321 09EC                      u5305 09C8                      u5241 095F  
                    u5161 117F                      u5145 116B                      u5410 0A48  
                    u5250 099A                      u5170 08F1                      u5090 1142  
                    u5411 0A47                      u5251 0999                      u5171 08F0  
                    u5091 1141                      u5420 0A57                      u5340 09FC  
                    u5180 08F7                      u5500 007C                      u5341 09FB  
                    u5181 08F6                      u5085 1123                      u5501 007B  
                    u4710 0897                      u5430 0A74                      u5190 08FC  
                    u5510 0081                      u4711 0896                      u5431 0A73  
                    u5335 09F1                      u5191 08FB                      u5511 0080  
                    u5440 0A91                      u5360 0A10                      u5280 09B0  
                    u5520 0098                      u4705 0889                      u5441 0A90  
                    u5425 0A52                      u5361 0A0F                      u5281 09AF  
                    u5265 099C                      u5601 0279                      u5521 0097  
                    u4730 08A7                      u4650 0832                      u5450 0AA6  
                    u5370 0A15                      u5602 0284                      u5530 009D  
                    u4731 08A6                      u4651 0831                      u5451 0AA5  
                    u5435 0A70                      u5371 0A14                      u5355 09FF  
                    u5275 09A5                      u5603 028F                      u5531 009C  
                    u4740 08AD                      u4660 0836                      u5380 0A29  
                    u5460 0044                      u4741 08AC                      u4725 089C  
                    u4661 0835                      u5445 0A8D                      u5381 0A28  
                    u5621 02D7                      u5541 0126                      u5461 0043  
                    u4750 08B1                      u4670 0856                      u5390 0A30  
                    u5710 0465                      u5622 02E2                      u5542 0131  
                    u5470 004A                      u4751 08B0                      u4671 0855  
                    u5391 0A2F                      u5295 09B3                      u5711 0464  
                    u5631 0324                      u5623 02ED                      u5615 0297  
                    u5551 0156                      u5543 013C                      u5471 0049  
                    i1l80 0AC6                      u4760 08C6                      u5800 0513  
                    u5632 032F                      u5552 0161                      u5480 004F  
                    u5801 0512                      u5705 0454                      u5641 0371  
                    u5633 033A                      u5561 019E                      u5553 016C  
                    u5481 004E                      u4770 08D6                      u4690 0875  
                    u5810 052D                      u5730 0481                      u5650 03B5  
                    u5642 037C                      u5562 01A9                      u5490 0076  
                    u4771 08D5                      u4691 0874                      u5811 052C  
                    u5731 0480                      u5643 0387                      u5571 01CE  
                    u5563 01B4                      u5491 0075                      i1l92 07FA  
                    u4780 08DA                      u5820 0549                      u5740 0486  
                    u5572 01D9                      u5900 141C                      u4781 08D9  
                    u4765 08C1                      u4685 0867                      u5821 0548  
                    u5805 050F                      u5741 0485                      u5725 046A  
                    u5661 03C7                      u5573 01E4                      u5901 141B  
                    u5750 04A8                      u5670 03FD                      u5662 03D2  
                    u5830 12DC                      u5910 14B9                      i1l87 0CB0  
                    u5815 0529                      u5751 04A7                      u5663 03DD  
                    u5655 03B0                      u5591 022C                      u5831 12DB  
                    u5911 14B8                      u5760 04B3                      u5592 0237  
                    u5840 135F                      u5920 14C4                      u5761 04B2  
                    u5681 040F                      u5593 0242                      u5585 01EC  
                    u5841 135E                      u5921 14C3                      u5905 1418  
                    u5850 1038                      u5770 04B9                      u5682 041A  
                    u5930 14D8                      u5851 1037                      u5771 04B8  
                    u5683 0425                      u5675 03F8                      u5931 14D7  
                    u5860 104E                      u5780 04CB                      u5940 14EC  
                    u5861 104D                      u5781 04CA                      u5941 14EB  
                    u5870 1062                      u5790 04E8                      u5871 1061  
                    u5695 042D                      u5880 106A                      u5881 1069  
                    u5890 13FD                      u5795 04E3                      u5891 13FC  
                    u5957 14F4                      u5967 11D7                      u5895 13F9  
                    _TMR0 0001                      _ang1 01E7                      _ang2 01E6  
                    _cont 00D6                      _main 13DA             i1___flmul@grs 0048  
                    btemp 007E                      start 0010           ___fldiv@new_exp 01B7  
                   ??_isr 00AE            i1___fldiv@aexp 0039            i1___fldiv@bexp 0038  
          i1___fldiv@sign 0031               ?i1_PWM_duty 00A2             ___fltol@sign1 00CC  
         __end_of___fladd 07BC                     ?_main 0070           __end_of___fldiv 0AB7  
         __end_of___flmul 0564           __end_of___fltol 118E                     i1l150 162C  
                   i1l422 10FF                     i1l432 10FF                     i1l601 1775  
                   i1l533 0642                     i1l429 10E8                     i1l550 070B  
                   i1l542 07BB                     i1l535 061B                     i1l607 17E7  
                   i1l631 0F6F                     i1l560 0751                     i1l529 05BF  
                   i1l609 17F5                     i1l625 0FFF                     i1l554 072F  
                   i1l571 07B1                     i1l563 078F                     i1l572 07BB  
                   i1l644 0817                     i1l637 0FF3                     i1l646 0829  
                   i1l671 12D3                     i1l585 1683                     i1l682 129D  
                   i1l587 17FF                     i1l683 12A9                     i1l675 1281  
                   i1l669 123E                     _PORTA 0005                     _PORTB 0006  
                   _PORTC 0007                     _PORTD 0008                     _PORTE 0009  
                   _TRISB 0086                     _TRISC 0087                     _TRISD 0088  
                   _TRISE 0089            i1___flmul@aexp 004C            i1___flmul@bexp 004D  
          i1___flmul@sign 0047            i1___flmul@temp 0052            i1___flmul@prod 004E  
                   _setup 118E                     _pulse 07E5                     pclath 000A  
          i1___fltol@exp1 00A1          __end_of_PWM_duty 13DA                     status 0003  
                   wtemp0 007E           __initialization 0013              __end_of_main 14FF  
                  ??_main 01D4               ?i1___xxtofl 0070               ?_PWM_config 01C7  
                  _ADRESH 001E                    _CCPR1L 0015                    _CCPR2L 001B  
                  ?_setup 0070                    ?_pulse 0070                    _ANSELH 0189  
                  i1l3000 1222                    i1l3010 124F                    i1l3002 1226  
                  i1l3020 1278                    i1l3012 1252                    i1l3004 1236  
                  i1l3030 12AB                    i1l3022 1288                    i1l3014 125F  
                  i1l3006 1246                    i1l2400 1679                    i1l3032 12C1  
                  i1l3024 1293                    i1l3016 1266                    i1l2402 167B  
                  i1l2330 107F                    i1l3034 12C6                    i1l3026 1297  
                  i1l3018 126A                    i1l3050 0AC5                    i1l3042 0AB7  
                  i1l2500 17F1                    i1l2420 16C4                    i1l2404 168B  
                  i1l2412 16A4                    i1l2260 080D                    i1l2340 10AC  
                  i1l3036 12CA                    i1l3028 12A1                    i1l3060 0C46  
                  i1l3052 0ACC                    i1l3044 0ABB                    i1l2430 16E3  
                  i1l2422 16CC                    i1l2414 16A9                    i1l2406 1697  
                  i1l2262 0811                    i1l2510 0CC4                    i1l2350 10BC  
                  i1l2342 10B0                    i1l2334 108A                    i1l3038 12CB  
                  i1l3062 0C53                    i1l3046 0AC0                    i1l2440 1715  
                  i1l2432 16F5                    i1l2424 16D4                    i1l2408 169B  
                  i1l2264 0820                    i1l2256 0804                    i1l2600 0F49  
                  i1l2520 0CDB                    i1l2512 0CC8                    i1l2360 10ED  
                  i1l2344 10B4                    i1l2352 10D2                    i1l2336 10A1  
                  i1l2328 1072                    i1l3064 0CAD                    i1l3056 0AD8  
                  i1l3048 0AC1                    i1l2450 1736                    i1l2442 1716  
                  i1l2434 16F9                    i1l2426 16DC                    i1l2418 16B2  
                  i1l2370 163A                    i1l2266 0825                    i1l2258 0806  
                  i1l2610 0F6C                    i1l2602 0F4F                    i1l2530 0CF2  
                  i1l2522 0CDD                    i1l2514 0CC9                    i1l2506 0CBB  
                  i1l2362 10F2                    i1l2338 10A4                    i1l3058 0AE5  
                  i1l2460 174F                    i1l2452 1738                    i1l2444 1724  
                  i1l2436 16FA                    i1l2428 16DE                    i1l2380 164E  
                  i1l2372 163B                    i1l2364 162D                    i1l2620 0F8B  
                  i1l2604 0F53                    i1l2540 0D07                    i1l2532 0CF3  
                  i1l2524 0CE5                    i1l2516 0CCE                    i1l2508 0CC0  
                  i1l2470 1772                    i1l2454 1741                    i1l2462 1755  
                  i1l2438 1703                    i1l2446 1728                    i1l2390 1665  
                  i1l2374 1640                    i1l2382 1650                    i1l2366 1632  
                  i1l2630 0FD1                    i1l2622 0FA4                    i1l2614 0F74  
                  i1l2606 0F54                    i1l2550 0D22                    i1l2542 0D0F  
                  i1l2534 0CF8                    i1l2526 0CEA                    i1l2518 0CD3  
                  i1l2358 10D9                    i1l2800 05DB                    i1l2480 1791  
                  i1l2464 1759                    i1l2456 1745                    i1l2448 172E  
                  i1l2392 1666                    i1l2384 1658                    i1l2376 1645  
                  i1l2368 1636                    i1l2640 0FEE                    i1l2632 0FDB  
                  i1l2616 0F79                    i1l2624 0FAA                    i1l2608 0F58  
                  i1l2560 0D9E                    i1l2552 0D30                    i1l2544 0D14  
                  i1l2536 0CFD                    i1l2528 0CEE                    i1l2810 05E5  
                  i1l2802 05DD                    i1l2650 07F1                    i1l2490 17DA  
                  i1l2482 17AA                    i1l2474 177A                    i1l2466 175A  
                  i1l2458 1746                    i1l2394 166B                    i1l2386 165D  
                  i1l2378 164D                    i1l2642 0FF7                    i1l2634 0FDD  
                  i1l2626 0FB7                    i1l2618 0F87                    i1l2570 0E0A  
                  i1l2562 0DBA                    i1l2554 0D3D                    i1l2546 0D19  
                  i1l2538 0D05                    i1l2900 074E                    i1l2820 0603  
                  i1l2812 05E7                    i1l2804 05DF                    i1l2740 0569  
                  i1l2652 07F3                    i1l2492 17DE                    i1l2476 177F  
                  i1l2484 17B0                    i1l2468 175E                    i1l2396 1670  
                  i1l2388 1661                    i1l2636 0FE9                    i1l2628 0FC2  
                  i1l2580 0E94                    i1l2572 0E18                    i1l2564 0DD6  
                  i1l2556 0D58                    i1l2910 076D                    i1l2830 062D  
                  i1l2822 061F                    i1l2814 05E9                    i1l2806 05E1  
                  i1l2750 057C                    i1l2742 056D                    i1l2654 07F9  
                  i1l2646 07E5                    i1l2494 17E6                    i1l2486 17BD  
                  i1l2478 178D                    i1l2398 1678                    i1l2638 0FED  
                  i1l2590 0F24                    i1l2582 0EA2                    i1l2574 0E35  
                  i1l2566 0DDF                    i1l2558 0D74                    i1l2920 07A6  
                  i1l2912 078B                    i1l2904 0756                    i1l2832 0636  
                  i1l2824 0626                    i1l2808 05E3                    i1l2816 05EB  
                  i1l2760 0592                    i1l2752 0584                    i1l2744 0571  
                  i1l2648 07EB                    i1l2496 17EB                    i1l2488 17CB  
                  i1l2592 0F32                    i1l2584 0ECD                    i1l2576 0E4C  
                  i1l2568 0DED                    i1l2930 07BA                    i1l2922 07A7  
                  i1l2914 0794                    i1l2906 075B                    i1l2850 067A  
                  i1l2842 0654                    i1l2826 0628                    i1l2834 063A  
                  i1l2818 05EC                    i1l2770 05A2                    i1l2762 0598  
                  i1l2754 0585                    i1l2746 0572                    i1l2738 0564  
                  i1l2498 17EF                    i1l2594 0F3B                    i1l2586 0EF3  
                  i1l2578 0E69                    i1l2924 07AB                    i1l2916 0799  
                  i1l2908 0769                    i1l2852 067C                    i1l2844 066B  
                  i1l2836 0646                    i1l2860 068F                    i1l2828 062C  
                  i1l2772 05A7                    i1l2780 05B7                    i1l2764 0599  
                  i1l2748 0577                    i1l2756 0587                    i1l2596 0F3F  
                  i1l2588 0F1B                    i1l2926 07AD                    i1l2918 07A1  
                  i1l2862 06A5                    i1l2870 06FD                    i1l2854 0680  
                  i1l2846 066F                    i1l2838 064B                    i1l2790 05D1  
                  i1l2782 05C5                    i1l2774 05AC                    i1l2766 059D  
                  i1l2758 058F                    i1l2598 0F40                    i1l2928 07B6  
                  i1l2880 072A                    i1l2872 0713                    i1l2864 06E3  
                  i1l2856 0681                    i1l2848 0673                    i1l2792 05D3  
                  i1l2784 05C9                    i1l2776 05B4                    i1l2768 05A1  
                  i1l2890 073D                    i1l2882 072E                    i1l2874 0718  
                  i1l2866 06E9                    i1l2858 068A                    i1l2794 05D5  
                  i1l2786 05CD                    i1l2778 05B5                    i1l2884 0733  
                  i1l2892 073F                    i1l2868 06EE                    i1l2796 05D7  
                  i1l2788 05CF                    i1l2980 155C                    i1l2886 0736  
                  i1l2878 0721                    i1l2894 0743                    i1l2798 05D9  
                  i1l2990 15F3                    i1l2982 156D                    i1l2896 0744  
                  i1l2888 0738                    i1l2992 1602                    i1l2984 157E  
                  i1l2976 1502                    i1l2898 0748                    i1l2994 1613  
                  i1l2978 1507                    i1l2986 1598                    i1l2988 159E  
                  i1l2998 121D                    u400_20 0ED9                    u400_25 0ED4  
                  u401_21 0EE5                    u401_22 0EEC                    u401_23 0EF3  
                  u410_20 0F6C                    u402_20 0F01                    u410_21 0F6B  
                  u402_25 0EFC                    u411_20 0F73                    u411_21 0F72  
                  u403_21 0F0D                    u403_22 0F14                    u403_23 0F1B  
                  u420_20 0577                    u412_20 0F79                    u500_20 0C53  
                  u420_21 0576                    u412_21 0F78                    u500_21 0C52  
                  u404_25 0F1D                    u421_20 057C                    u333_20 0811  
                  u413_20 0F8B                    u421_21 057B                    u333_21 0810  
                  u413_21 0F8A                    u405_25 0F34                    u430_20 060F  
                  u422_20 0598                    u414_20 0F9A                    u406_20 0F3F  
                  u350_20 10ED                    u342_20 107F                    u422_21 0597  
                  u406_21 0F3E                    u350_21 10EC                    u342_21 107E  
                  u334_25 0818                    u414_25 0F95                    u431_20 061F  
                  u423_20 05A1                    u335_20 0825                    u415_20 0FB7  
                  u351_20 10F2                    u343_20 109A                    u431_21 061E  
                  u423_21 05A0                    u335_21 0824                    u415_21 0FB6  
                  u351_21 10F1                    u415_25 0FB3                    u407_25 0F42  
                  u343_25 1095                    u440_20 0680                    u432_20 062C  
                  u424_20 05A7                    u360_20 16E3                    u352_20 163A  
                  u416_20 0FD1                    u408_20 0F53                    u344_20 10B4  
                  u440_21 067F                    u432_21 062B                    u424_21 05A6  
                  u360_21 16E2                    u352_21 1639                    u416_21 0FD0  
                  u408_21 0F52                    u344_21 10B3                    u416_25 0FCD  
                  u425_20 05AC                    u353_20 1640                    u417_20 0FED  
                  u409_20 0F58                    u345_20 10BB                    u425_21 05AB  
                  u353_21 163F                    u417_21 0FEC                    u409_21 0F57  
                  u345_21 10BA                    u441_25 0683                    u433_25 062F  
                  u361_25 16E5                    u450_20 0733                    u442_20 06A5  
                  u434_20 0642                    u426_20 05C5                    u418_20 07EB  
                  u354_20 1645                    u450_21 0732                    u442_21 06A4  
                  u434_21 0641                    u426_21 05C4                    u418_21 07EA  
                  u354_21 1644                    u442_23 06A1                    u370_25 1748  
                  u362_25 16EE                    u346_25 10BD                    u451_20 073D  
                  u435_20 0646                    u427_20 05C9                    u419_20 0571  
                  u371_20 1759                    u363_20 16F9                    u355_20 1665  
                  u347_20 10D1                    u451_21 073C                    u443_21 06BC  
                  u435_21 0645                    u427_21 05C8                    u419_21 0570  
                  u371_21 1758                    u363_21 16F8                    u355_21 1664  
                  u347_21 10D0                    u443_22 06BD                    u443_23 06C2  
                  u443_24 06C3                    u443_25 06C8                    u443_26 06C9  
                  u460_20 0794                    u452_20 0743                    u444_20 06D0  
                  u436_20 064B                    u428_20 0603                    u380_20 17EF  
                  u372_20 175E                    u356_20 166B                    u348_20 10D8  
                  u460_21 0793                    u452_21 0742                    u444_21 06D1  
                  u436_21 064A                    u428_21 0602                    u380_21 17EE  
                  u372_21 175D                    u356_21 166A                    u348_21 10D7  
                  u444_22 06D6                    u444_23 06D7                    u428_25 05FF  
                  u364_25 16FC                    u461_20 0799                    u453_20 0748  
                  u445_20 06EE                    u429_20 060E                    u373_20 1772  
                  u365_20 1715                    u357_20 1670                    u381_20 0CC8  
                  u461_21 0798                    u453_21 0747                    u445_21 06ED  
                  u437_21 065D                    u429_21 060C                    u373_21 1771  
                  u365_21 1714                    u357_21 166F                    u381_21 0CC7  
                  u437_22 0664                    u437_23 066B                    u365_25 1711  
                  u349_25 10DD                    u462_20 07A6                    u454_20 074E  
                  u446_20 0713                    u438_20 066F                    u374_20 1779  
                  u366_20 172E                    u358_20 168B                    u382_20 0CCE  
                  u462_21 07A5                    u454_21 074D                    u446_21 0712  
                  u438_21 066E                    u374_21 1778                    u366_21 172D  
                  u358_21 168A                    u390_21 0D82                    u382_21 0CCD  
                  u390_22 0D89                    u390_23 0D90                    u463_20 07AB  
                  u455_20 0755                    u447_20 0718                    u439_20 0673  
                  u375_20 177F                    u367_20 1736                    u359_20 16A9  
                  u383_20 0CD3                    u463_21 07AA                    u455_21 0754  
                  u447_21 0717                    u439_21 0672                    u375_21 177E  
                  u367_21 1735                    u359_21 16A8                    u391_21 0DAC  
                  u383_21 0CD2                    u391_22 0DB3                    u391_23 0DBA  
                  u464_20 07BA                    u456_20 075B                    u376_20 1791  
                  u384_20 0CF2                    u480_20 159E                    u464_21 07B9  
                  u456_21 075A                    u376_21 1790                    u392_21 0DC8  
                  u384_21 0CF1                    u480_21 159D                    u392_22 0DCF  
                  u392_23 0DD6                    u448_25 0723                    u368_25 173A  
                  u457_20 076D                    u449_20 072E                    u377_20 17A0  
                  u369_20 1745                    u385_20 0CF8                    u481_20 1222  
                  u457_21 076C                    u449_21 072D                    u369_21 1744  
                  u385_21 0CF7                    u481_21 1221                    u377_25 179B  
                  u393_25 0DD8                    u458_20 077C                    u378_20 17BD  
                  u386_20 0CFD                    u490_20 129D                    u482_20 1226  
                  u378_21 17BC                    u394_21 0DFC                    u386_21 0CFC  
                  u490_21 129C                    u482_21 1225                    u394_22 0E03  
                  u394_23 0E0A                    u458_25 0777                    u378_25 17B9  
                  u459_20 078B                    u379_20 17DA                    u387_20 0D14  
                  u491_20 12A1                    u483_20 1246                    u459_21 078A  
                  u379_21 17D9                    u395_21 0E27                    u387_21 0D13  
                  u491_21 12A0                    u483_21 1245                    u395_22 0E2E  
                  u395_23 0E35                    u379_25 17D6                    u388_20 0D19  
                  u492_20 12B6                    u388_21 0D18                    u396_25 0E37  
                  u492_25 12B1                    u484_25 1257                    u493_20 12C6  
                  u485_20 1265                    u397_21 0E5B                    u389_21 0D66  
                  u493_21 12C5                    u485_21 1264                    u397_22 0E62  
                  u389_22 0D6D                    u397_23 0E69                    u389_23 0D74  
                  u494_20 12CA                    u398_21 0E86                    u494_21 12C9  
                  u398_22 0E8D                    u398_23 0E94                    u486_25 1279  
                  u479_20 1507                    u487_20 1287                    u495_20 0ABB  
                  u399_21 0EB1                    u479_21 1506                    u487_21 1286  
                  u495_21 0ABA                    u399_22 0EB8                    u399_23 0EBF  
                  u496_20 0AC5                    u496_21 0AC4                    u488_25 128C  
                  u489_20 1297                    u497_20 0ACC                    u489_21 1296  
                  u497_21 0ACB                    u498_20 0AD7                    u498_21 0AD6  
                  u499_20 0AE5                    u499_21 0AE4          __end_of___xxtofl 08E4  
               ??___fladd 005C                 ??___fldiv 01AD                 ??___flmul 00C7  
               ??___fltol 01C3         __end_ofi1___fldiv 1800         __end_ofi1___flmul 1000  
       __end_ofi1___fltol 1100                    saved_w 007E           i1___fltol@sign1 00A0  
            ___xxtofl@arg 00C3              ___xxtofl@exp 00C2              ___xxtofl@val 00B9  
 __end_of__initialization 002F                ___fltol@f1 01BF              ?i1__Umul8_16 0070  
          __pcstackCOMMON 0070              __pidataBANK1 07FB             __end_of_setup 121C  
           __end_of_pulse 07FB                 ?_PWM_duty 01C7            _OPTION_REGbits 0081  
                 ??_setup 01D3                   ??_pulse 0070                __pbssBANK1 00CE  
              __pbssBANK3 01DE            i1___xxtofl@arg 007A            i1___xxtofl@exp 0079  
          i1___xxtofl@val 0070         __end_of__Umul8_16 07E5                __pmaintext 13DA  
              __pintentry 0004              ??i1_PWM_duty 00A6                ??_PWM_duty 01CB  
               ?___xxtofl 00B9       i1__Umul8_16@product 0074              PWM_duty@duty 01C7  
      __end_ofi1_PWM_duty 162D                   ___fladd 0564                   ___fldiv 08E4  
                 ___flmul 0033                   ___fltol 1100                 _ANSELbits 0188  
            ??i1___xxtofl 0074                   __ptext1 118E                   __ptext2 12D4  
                 __ptext3 0033                   __ptext4 07BC                   __ptext5 1004  
                 __ptext6 1100                   __ptext7 08E4                   __ptext8 082A  
                 __ptext9 0AB7              ??_PWM_config 00CE                 _T2CONbits 0012  
              ??___xxtofl 00BD                   _dutyPot 01DE      end_of_initialization 002F  
          i1PWM_duty@duty 00A2                _periodoPot 00CE                _potMapeado 01E0  
      __end_ofi1___xxtofl 12D4        __end_of_PWM_config 1072     i1__Umul8_16@word_mpld 0076  
               _PORTCbits 0007               ___fladd@grs 0067             ___xxtofl@sign 00C1  
               _TRISCbits 0087                 i1___fldiv 162D                 i1___flmul 0CBB  
             ___fldiv@grs 01B9                 i1___fltol 1072               ___fldiv@rem 01B2  
             ___flmul@grs 019A               _CCP1CONbits 0017               _CCP2CONbits 001D  
     start_initialization 0013                ?i1___fldiv 0020               __end_of_isr 0CBB  
              ?i1___flmul 003A                ?i1___fltol 0068      i1PWM_duty@particion1 00AA  
    i1PWM_duty@particion2 00AC                 __Umul8_16 07BC               __pdataBANK1 00D6  
               ___fladd@a 0058                 ___fladd@b 0054                 ___fldiv@a 01A5  
               ___fldiv@b 01A9                 ___flmul@a 0194                 ___flmul@b 0190  
               ___latbits 0002             __pcstackBANK0 0020             __pcstackBANK1 00A0  
           __pcstackBANK3 0190           i1___xxtofl@sign 0078         i1___fldiv@new_exp 0032  
               __pnvBANK3 01E6  i1__Umul8_16@multiplicand 0070                  ?___fladd 0054  
                ?___fldiv 01A5                  ?___flmul 0190                  ?___fltol 01BF  
              ?__Umul8_16 00B9               ??i1___fldiv 0028               ??i1___flmul 0042  
             ??i1___fltol 006C         interrupt_function 0004                  _PIE1bits 008C  
                _PIR1bits 000C                 _valorPot1 00D2                 _valorPot2 00D0  
           PWM_duty@canal 01CE      PWM_config@periodo_ms 01C7                _ADCON0bits 001F  
              _ADCON1bits 009F                  _PWM_duty 12D4           PWM_config@canal 01CB  
           ??i1__Umul8_16 0072               ??__Umul8_16 00BB                  ___xxtofl 082A  
                _isr$1214 00B5                  _main$344 01D6                  _main$345 01D8  
                __ptext10 121C                  __ptext11 14FF                  __ptext12 1072  
                __ptext13 0CBB                  __ptext14 0803                  __ptext15 162D  
                __ptext16 07E5                  __ptext17 0564        PWM_duty@particion1 01CF  
      PWM_duty@particion2 01D1       __end_ofi1__Umul8_16 082A                  main@Lmax 01DA  
                main@Lmin 01DC           i1PWM_duty@canal 00A9                _INTCONbits 000B  
                intlevel1 0000    i1__Umul8_16@multiplier 0078             _potenciometro 01E4  
              _OSCCONbits 008F                i1_PWM_duty 14FF    __Umul8_16@multiplicand 00B9  
           ___fladd@signs 0064              ___fladd@aexp 0065              ___fladd@bexp 0066  
    __Umul8_16@multiplier 00C1               i1__Umul8_16 0803         __Umul8_16@product 00BD  
