

Microchip MPLAB XC8 Assembler V2.40 build 20220703182018 
                                                                                               Tue May 30 16:35:10 2023

Microchip MPLAB XC8 C Compiler v2.40 (Free license) build 20220703182018 Og1 
     1                           	processor	16F887
     2                           	pagewidth 120
     3                           	opt	flic
     4                           	psect	idataBANK1,global,class=CODE,delta=2,noexec
     5                           	psect	nvBANK3,global,class=BANK3,space=1,delta=1,noexec
     6                           	psect	cinit,global,class=CODE,merge=1,delta=2
     7                           	psect	bssBANK1,global,class=BANK1,space=1,delta=1,noexec
     8                           	psect	dataBANK1,global,class=BANK1,space=1,delta=1,noexec
     9                           	psect	bssBANK3,global,class=BANK3,space=1,delta=1,noexec
    10                           	psect	clrtext,global,class=CODE,delta=2
    11                           	psect	cstackBANK3,global,class=BANK3,space=1,delta=1,noexec
    12                           	psect	cstackBANK2,global,class=BANK2,space=1,delta=1,noexec
    13                           	psect	cstackBANK1,global,class=BANK1,space=1,delta=1,noexec
    14                           	psect	cstackCOMMON,global,class=COMMON,space=1,delta=1,noexec
    15                           	psect	cstackBANK0,global,class=BANK0,space=1,delta=1,noexec
    16                           	psect	maintext,global,class=CODE,split=1,delta=2
    17                           	psect	text1,local,class=CODE,merge=1,delta=2
    18                           	psect	text2,local,class=CODE,merge=1,delta=2
    19                           	psect	text3,local,class=CODE,merge=1,delta=2,group=1
    20                           	psect	text4,local,class=CODE,merge=1,delta=2,group=1
    21                           	psect	text5,local,class=CODE,merge=1,delta=2
    22                           	psect	text6,local,class=CODE,merge=1,delta=2,group=1
    23                           	psect	text7,local,class=CODE,merge=1,delta=2,group=1
    24                           	psect	text8,local,class=CODE,merge=1,delta=2
    25                           	psect	text9,local,class=CODE,merge=1,delta=2
    26                           	psect	intentry,global,class=CODE,delta=2
    27                           	psect	text10,local,class=CODE,merge=1,delta=2
    28                           	psect	text11,local,class=CODE,merge=1,delta=2
    29                           	psect	text12,local,class=CODE,merge=1,delta=2
    30                           	psect	text13,local,class=CODE,merge=1,delta=2
    31                           	psect	text14,local,class=CODE,merge=1,delta=2
    32                           	psect	text15,local,class=CODE,merge=1,delta=2
    33                           	psect	text16,local,class=CODE,merge=1,delta=2
    34                           	psect	text17,local,class=CODE,merge=1,delta=2,group=1
    35                           	psect	text18,local,class=CODE,merge=1,delta=2,group=1
    36                           	psect	text19,local,class=CODE,merge=1,delta=2
    37                           	psect	text20,local,class=CODE,merge=1,delta=2
    38                           	psect	text21,local,class=CODE,merge=1,delta=2
    39                           	psect	text22,local,class=CODE,merge=1,delta=2,group=1
    40                           	psect	idloc,global,abs,ovrld,class=IDLOC,space=5,delta=2,noexec
    41                           	psect	config,global,abs,ovrld,class=CONFIG,space=4,delta=2,noexec
    42                           	dabs	1,0x7E,2
    43     0000                     
    44                           ; Version 2.40
    45                           ; Generated 17/11/2021 GMT
    46                           ; 
    47                           ; Copyright © 2021, Microchip Technology Inc. and its subsidiaries ("Microchip")
    48                           ; All rights reserved.
    49                           ; 
    50                           ; This software is developed by Microchip Technology Inc. and its subsidiaries ("Microch
      +                          ip").
    51                           ; 
    52                           ; Redistribution and use in source and binary forms, with or without modification, are
    53                           ; permitted provided that the following conditions are met:
    54                           ; 
    55                           ;     1. Redistributions of source code must retain the above copyright notice, this lis
      +                          t of
    56                           ;        conditions and the following disclaimer.
    57                           ; 
    58                           ;     2. Redistributions in binary form must reproduce the above copyright notice, this 
      +                          list
    59                           ;        of conditions and the following disclaimer in the documentation and/or other
    60                           ;        materials provided with the distribution. Publication is not required when
    61                           ;        this file is used in an embedded application.
    62                           ; 
    63                           ;     3. Microchip's name may not be used to endorse or promote products derived from th
      +                          is
    64                           ;        software without specific prior written permission.
    65                           ; 
    66                           ; THIS SOFTWARE IS PROVIDED BY MICROCHIP "AS IS" AND ANY EXPRESS OR IMPLIED WARRANTIES,
    67                           ; INCLUDING, BUT NOT LIMITED TO, THE IMPLIED WARRANTIES OF MERCHANTABILITY AND FITNESS F
      +                          OR
    68                           ; PURPOSE ARE DISCLAIMED.  IN NO EVENT SHALL MICROCHIP BE LIABLE FOR ANY DIRECT, INDIREC
      +                          T,
    69                           ; INCIDENTAL, SPECIAL, EXEMPLARY, OR CONSEQUENTIAL DAMAGES (INCLUDING BUT NOT LIMITED TO
    70                           ; PROCUREMENT OF SUBSTITUTE GOODS OR SERVICES; LOSS OF USE, DATA OR PROFITS; OR BUSINESS
    71                           ; INTERRUPTION) HOWSOEVER CAUSED AND ON ANY THEORY OF LIABILITY, WHETHER IN CONTRACT, ST
      +                          RICT
    72                           ; LIABILITY, OR TORT (INCLUDING NEGLIGENCE OR OTHERWISE) ARISING IN ANY WAY OUT OF THE U
      +                          SE OF
    73                           ; THIS SOFTWARE, EVEN IF ADVISED OF THE POSSIBILITY OF SUCH DAMAGE.
    74                           ; 
    75                           ; 
    76                           ; Code-generator required, PIC16F887 Definitions
    77                           ; 
    78                           ; SFR Addresses
    79     0000                     	;# 
    80     0001                     	;# 
    81     0002                     	;# 
    82     0003                     	;# 
    83     0004                     	;# 
    84     0005                     	;# 
    85     0006                     	;# 
    86     0007                     	;# 
    87     0008                     	;# 
    88     0009                     	;# 
    89     000A                     	;# 
    90     000B                     	;# 
    91     000C                     	;# 
    92     000D                     	;# 
    93     000E                     	;# 
    94     000E                     	;# 
    95     000F                     	;# 
    96     0010                     	;# 
    97     0011                     	;# 
    98     0012                     	;# 
    99     0013                     	;# 
   100     0014                     	;# 
   101     0015                     	;# 
   102     0015                     	;# 
   103     0016                     	;# 
   104     0017                     	;# 
   105     0018                     	;# 
   106     0019                     	;# 
   107     001A                     	;# 
   108     001B                     	;# 
   109     001B                     	;# 
   110     001C                     	;# 
   111     001D                     	;# 
   112     001E                     	;# 
   113     001F                     	;# 
   114     0081                     	;# 
   115     0085                     	;# 
   116     0086                     	;# 
   117     0087                     	;# 
   118     0088                     	;# 
   119     0089                     	;# 
   120     008C                     	;# 
   121     008D                     	;# 
   122     008E                     	;# 
   123     008F                     	;# 
   124     0090                     	;# 
   125     0091                     	;# 
   126     0092                     	;# 
   127     0093                     	;# 
   128     0093                     	;# 
   129     0093                     	;# 
   130     0094                     	;# 
   131     0095                     	;# 
   132     0096                     	;# 
   133     0097                     	;# 
   134     0098                     	;# 
   135     0099                     	;# 
   136     009A                     	;# 
   137     009B                     	;# 
   138     009C                     	;# 
   139     009D                     	;# 
   140     009E                     	;# 
   141     009F                     	;# 
   142     0105                     	;# 
   143     0107                     	;# 
   144     0108                     	;# 
   145     0109                     	;# 
   146     010C                     	;# 
   147     010C                     	;# 
   148     010D                     	;# 
   149     010E                     	;# 
   150     010F                     	;# 
   151     0185                     	;# 
   152     0187                     	;# 
   153     0188                     	;# 
   154     0189                     	;# 
   155     018C                     	;# 
   156     018D                     	;# 
   157     0000                     	;# 
   158     0001                     	;# 
   159     0002                     	;# 
   160     0003                     	;# 
   161     0004                     	;# 
   162     0005                     	;# 
   163     0006                     	;# 
   164     0007                     	;# 
   165     0008                     	;# 
   166     0009                     	;# 
   167     000A                     	;# 
   168     000B                     	;# 
   169     000C                     	;# 
   170     000D                     	;# 
   171     000E                     	;# 
   172     000E                     	;# 
   173     000F                     	;# 
   174     0010                     	;# 
   175     0011                     	;# 
   176     0012                     	;# 
   177     0013                     	;# 
   178     0014                     	;# 
   179     0015                     	;# 
   180     0015                     	;# 
   181     0016                     	;# 
   182     0017                     	;# 
   183     0018                     	;# 
   184     0019                     	;# 
   185     001A                     	;# 
   186     001B                     	;# 
   187     001B                     	;# 
   188     001C                     	;# 
   189     001D                     	;# 
   190     001E                     	;# 
   191     001F                     	;# 
   192     0081                     	;# 
   193     0085                     	;# 
   194     0086                     	;# 
   195     0087                     	;# 
   196     0088                     	;# 
   197     0089                     	;# 
   198     008C                     	;# 
   199     008D                     	;# 
   200     008E                     	;# 
   201     008F                     	;# 
   202     0090                     	;# 
   203     0091                     	;# 
   204     0092                     	;# 
   205     0093                     	;# 
   206     0093                     	;# 
   207     0093                     	;# 
   208     0094                     	;# 
   209     0095                     	;# 
   210     0096                     	;# 
   211     0097                     	;# 
   212     0098                     	;# 
   213     0099                     	;# 
   214     009A                     	;# 
   215     009B                     	;# 
   216     009C                     	;# 
   217     009D                     	;# 
   218     009E                     	;# 
   219     009F                     	;# 
   220     0105                     	;# 
   221     0107                     	;# 
   222     0108                     	;# 
   223     0109                     	;# 
   224     010C                     	;# 
   225     010C                     	;# 
   226     010D                     	;# 
   227     010E                     	;# 
   228     010F                     	;# 
   229     0185                     	;# 
   230     0187                     	;# 
   231     0188                     	;# 
   232     0189                     	;# 
   233     018C                     	;# 
   234     018D                     	;# 
   235     0000                     	;# 
   236     0001                     	;# 
   237     0002                     	;# 
   238     0003                     	;# 
   239     0004                     	;# 
   240     0005                     	;# 
   241     0006                     	;# 
   242     0007                     	;# 
   243     0008                     	;# 
   244     0009                     	;# 
   245     000A                     	;# 
   246     000B                     	;# 
   247     000C                     	;# 
   248     000D                     	;# 
   249     000E                     	;# 
   250     000E                     	;# 
   251     000F                     	;# 
   252     0010                     	;# 
   253     0011                     	;# 
   254     0012                     	;# 
   255     0013                     	;# 
   256     0014                     	;# 
   257     0015                     	;# 
   258     0015                     	;# 
   259     0016                     	;# 
   260     0017                     	;# 
   261     0018                     	;# 
   262     0019                     	;# 
   263     001A                     	;# 
   264     001B                     	;# 
   265     001B                     	;# 
   266     001C                     	;# 
   267     001D                     	;# 
   268     001E                     	;# 
   269     001F                     	;# 
   270     0081                     	;# 
   271     0085                     	;# 
   272     0086                     	;# 
   273     0087                     	;# 
   274     0088                     	;# 
   275     0089                     	;# 
   276     008C                     	;# 
   277     008D                     	;# 
   278     008E                     	;# 
   279     008F                     	;# 
   280     0090                     	;# 
   281     0091                     	;# 
   282     0092                     	;# 
   283     0093                     	;# 
   284     0093                     	;# 
   285     0093                     	;# 
   286     0094                     	;# 
   287     0095                     	;# 
   288     0096                     	;# 
   289     0097                     	;# 
   290     0098                     	;# 
   291     0099                     	;# 
   292     009A                     	;# 
   293     009B                     	;# 
   294     009C                     	;# 
   295     009D                     	;# 
   296     009E                     	;# 
   297     009F                     	;# 
   298     0105                     	;# 
   299     0107                     	;# 
   300     0108                     	;# 
   301     0109                     	;# 
   302     010C                     	;# 
   303     010C                     	;# 
   304     010D                     	;# 
   305     010E                     	;# 
   306     010F                     	;# 
   307     0185                     	;# 
   308     0187                     	;# 
   309     0188                     	;# 
   310     0189                     	;# 
   311     018C                     	;# 
   312     018D                     	;# 
   313                           
   314                           	psect	idataBANK1
   315     07FA                     __pidataBANK1:
   316                           
   317                           ;initializer for _i
   318     07FA  34FF               	retlw	255
   319     07FB  34FF               	retlw	255
   320                           
   321                           ;initializer for _servo
   322     07FC  3401               	retlw	1
   323                           
   324                           	psect	nvBANK3
   325     01E6                     __pnvBANK3:
   326     01E6                     _ang2:
   327     01E6                     	ds	1
   328     01E7                     _ang1:
   329     01E7                     	ds	1
   330     0012                     _T2CONbits	set	18
   331     001B                     _CCPR2L	set	27
   332     001D                     _CCP2CONbits	set	29
   333     0015                     _CCPR1L	set	21
   334     0017                     _CCP1CONbits	set	23
   335     001A                     _RCREG	set	26
   336     0018                     _RCSTAbits	set	24
   337     0007                     _PORTC	set	7
   338     0006                     _PORTB	set	6
   339     0005                     _PORTA	set	5
   340     0009                     _PORTE	set	9
   341     0008                     _PORTD	set	8
   342     0001                     _TMR0	set	1
   343     0007                     _PORTCbits	set	7
   344     001F                     _ADCON0bits	set	31
   345     0006                     _PORTBbits	set	6
   346     000C                     _PIR1bits	set	12
   347     000B                     _INTCONbits	set	11
   348     001E                     _ADRESH	set	30
   349     005F                     _GIE	set	95
   350     0064                     _TXIF	set	100
   351     00C7                     _SPEN	set	199
   352     00C4                     _CREN	set	196
   353     0087                     _TRISCbits	set	135
   354     0092                     _PR2	set	146
   355     0098                     _TXSTAbits	set	152
   356     009A                     _SPBRGH	set	154
   357     0099                     _SPBRG	set	153
   358     009F                     _ADCON1bits	set	159
   359     008C                     _PIE1bits	set	140
   360     008F                     _OSCCONbits	set	143
   361     0096                     _IOCB	set	150
   362     0081                     _OPTION_REGbits	set	129
   363     0089                     _TRISE	set	137
   364     0088                     _TRISD	set	136
   365     0085                     _TRISA	set	133
   366     0086                     _TRISB	set	134
   367     04C5                     _TXEN	set	1221
   368     04C4                     _SYNC	set	1220
   369     04C2                     _BRGH	set	1218
   370     010C                     _EEDAT	set	268
   371     010D                     _EEADR	set	269
   372     018D                     _EECON2	set	397
   373     018C                     _EECON1bits	set	396
   374     0189                     _ANSELH	set	393
   375     0188                     _ANSELbits	set	392
   376     0C60                     _RD	set	3168
   377     0C61                     _WR	set	3169
   378     0C3B                     _BRG16	set	3131
   379                           
   380                           	psect	cinit
   381     0015                     start_initialization:	
   382                           ; #config settings
   383                           
   384     0015                     __initialization:
   385                           
   386                           ; Initialize objects allocated to BANK1
   387     0015  1683               	bsf	3,5	;RP0=1, select bank1
   388     0016  1303               	bcf	3,6	;RP1=0, select bank1
   389     0017  120A  118A  27FA  120A  118A  	fcall	__pidataBANK1	;fetch initializer
   390     001C  00E0               	movwf	__pdataBANK1& (0+127)
   391     001D  120A  118A  27FB  120A  118A  	fcall	__pidataBANK1+1	;fetch initializer
   392     0022  00E1               	movwf	(__pdataBANK1+1)& (0+127)
   393     0023  120A  118A  27FC  120A  118A  	fcall	__pidataBANK1+2	;fetch initializer
   394     0028  00E2               	movwf	(__pdataBANK1+2)& (0+127)
   395                           
   396                           ; Clear objects allocated to BANK3
   397     0029  1683               	bsf	3,5	;RP0=1, select bank3
   398     002A  1703               	bsf	3,6	;RP1=1, select bank3
   399     002B  01E8               	clrf	__pbssBANK3& (0+127)
   400     002C  01E9               	clrf	(__pbssBANK3+1)& (0+127)
   401                           
   402                           ; Clear objects allocated to BANK1
   403     002D  1383               	bcf	3,7	;select IRP bank0
   404     002E  30C5               	movlw	low __pbssBANK1
   405     002F  0084               	movwf	4
   406     0030  30E0               	movlw	low (__pbssBANK1+27)
   407     0031  120A  118A  27F2  120A  118A  	fcall	clear_ram0
   408     0036                     end_of_initialization:	
   409                           ;End of C runtime variable initialization code
   410                           
   411     0036                     __end_of__initialization:
   412     0036  0183               	clrf	3
   413     0037  160A  118A  2AEE   	ljmp	_main	;jump to C main() function
   414                           
   415                           	psect	bssBANK1
   416     00C5                     __pbssBANK1:
   417     00C5                     _potMapeado:
   418     00C5                     	ds	4
   419     00C9                     _entero:
   420     00C9                     	ds	2
   421     00CB                     _flag:
   422     00CB                     	ds	2
   423     00CD                     _caracter:
   424     00CD                     	ds	2
   425     00CF                     _valor_entero:
   426     00CF                     	ds	2
   427     00D1                     _numero:
   428     00D1                     	ds	2
   429     00D3                     _periodoPot:
   430     00D3                     	ds	2
   431     00D5                     _dutyPot:
   432     00D5                     	ds	2
   433     00D7                     _valorPot2:
   434     00D7                     	ds	2
   435     00D9                     _valorPot1:
   436     00D9                     	ds	2
   437     00DB                     _modo:
   438     00DB                     	ds	2
   439     00DD                     _potenciometro:
   440     00DD                     	ds	1
   441     00DE                     _data:
   442     00DE                     	ds	1
   443     00DF                     _address:
   444     00DF                     	ds	1
   445                           
   446                           	psect	dataBANK1
   447     00E0                     __pdataBANK1:
   448     00E0                     _i:
   449     00E0                     	ds	2
   450     00E2                     _servo:
   451     00E2                     	ds	1
   452                           
   453                           	psect	bssBANK3
   454     01E8                     __pbssBANK3:
   455     01E8                     _contador:
   456     01E8                     	ds	2
   457                           
   458                           	psect	clrtext
   459     07F2                     clear_ram0:	
   460                           ;	Called with FSR containing the base address, and
   461                           ;	W with the last address+1
   462                           
   463     07F2  0064               	clrwdt	;clear the watchdog before getting into this loop
   464     07F3                     clrloop0:
   465     07F3  0180               	clrf	0	;clear RAM location pointed to by FSR
   466     07F4  0A84               	incf	4,f	;increment pointer
   467     07F5  0604               	xorwf	4,w	;XOR with final address
   468     07F6  1903               	btfsc	3,2	;have we reached the end yet?
   469     07F7  3400               	retlw	0	;all done for this memory range, return
   470     07F8  0604               	xorwf	4,w	;XOR again to restore value
   471     07F9  2FF3               	goto	clrloop0	;do the next byte
   472                           
   473                           	psect	cstackBANK3
   474     0190                     __pcstackBANK3:
   475     0190                     ??_initUART:
   476     0190                     ?__Umul8_16:	
   477                           ; 1 bytes @ 0x0
   478                           
   479     0190                     __Umul8_16@multiplicand:	
   480                           ; 2 bytes @ 0x0
   481                           
   482                           
   483                           ; 1 bytes @ 0x0
   484     0190                     	ds	2
   485     0192                     ??__Umul8_16:
   486                           
   487                           ; 1 bytes @ 0x2
   488     0192                     	ds	2
   489     0194                     __Umul8_16@product:
   490                           
   491                           ; 2 bytes @ 0x4
   492     0194                     	ds	2
   493     0196                     __Umul8_16@word_mpld:
   494                           
   495                           ; 2 bytes @ 0x6
   496     0196                     	ds	2
   497     0198                     __Umul8_16@multiplier:
   498                           
   499                           ; 1 bytes @ 0x8
   500     0198                     	ds	1
   501     0199                     ?___flmul:
   502     0199                     ___flmul@b:	
   503                           ; 4 bytes @ 0x9
   504                           
   505                           
   506                           ; 4 bytes @ 0x9
   507     0199                     	ds	4
   508     019D                     ___flmul@a:
   509                           
   510                           ; 4 bytes @ 0xD
   511     019D                     	ds	4
   512     01A1                     ??___flmul:
   513                           
   514                           ; 1 bytes @ 0x11
   515     01A1                     	ds	5
   516     01A6                     ___flmul@sign:
   517                           
   518                           ; 1 bytes @ 0x16
   519     01A6                     	ds	1
   520     01A7                     ___flmul@aexp:
   521                           
   522                           ; 1 bytes @ 0x17
   523     01A7                     	ds	1
   524     01A8                     ___flmul@grs:
   525                           
   526                           ; 4 bytes @ 0x18
   527     01A8                     	ds	4
   528     01AC                     ___flmul@bexp:
   529                           
   530                           ; 1 bytes @ 0x1C
   531     01AC                     	ds	1
   532     01AD                     ___flmul@prod:
   533                           
   534                           ; 4 bytes @ 0x1D
   535     01AD                     	ds	4
   536     01B1                     ___flmul@temp:
   537                           
   538                           ; 2 bytes @ 0x21
   539     01B1                     	ds	2
   540     01B3                     ?___fldiv:
   541     01B3                     ___fldiv@a:	
   542                           ; 4 bytes @ 0x23
   543                           
   544                           
   545                           ; 4 bytes @ 0x23
   546     01B3                     	ds	4
   547     01B7                     ___fldiv@b:
   548                           
   549                           ; 4 bytes @ 0x27
   550     01B7                     	ds	4
   551     01BB                     ??___fldiv:
   552                           
   553                           ; 1 bytes @ 0x2B
   554     01BB                     	ds	5
   555     01C0                     ___fldiv@rem:
   556                           
   557                           ; 4 bytes @ 0x30
   558     01C0                     	ds	4
   559     01C4                     ___fldiv@sign:
   560                           
   561                           ; 1 bytes @ 0x34
   562     01C4                     	ds	1
   563     01C5                     ___fldiv@new_exp:
   564                           
   565                           ; 2 bytes @ 0x35
   566     01C5                     	ds	2
   567     01C7                     ___fldiv@grs:
   568                           
   569                           ; 4 bytes @ 0x37
   570     01C7                     	ds	4
   571     01CB                     ___fldiv@bexp:
   572                           
   573                           ; 1 bytes @ 0x3B
   574     01CB                     	ds	1
   575     01CC                     ___fldiv@aexp:
   576                           
   577                           ; 1 bytes @ 0x3C
   578     01CC                     	ds	1
   579     01CD                     ?___fltol:
   580     01CD                     ___fltol@f1:	
   581                           ; 4 bytes @ 0x3D
   582                           
   583                           
   584                           ; 4 bytes @ 0x3D
   585     01CD                     	ds	4
   586     01D1                     ??___fltol:
   587                           
   588                           ; 1 bytes @ 0x41
   589     01D1                     	ds	4
   590     01D5                     ___fltol@sign1:
   591                           
   592                           ; 1 bytes @ 0x45
   593     01D5                     	ds	1
   594     01D6                     ___fltol@exp1:
   595                           
   596                           ; 1 bytes @ 0x46
   597     01D6                     	ds	1
   598     01D7                     ?_PWM_duty:
   599     01D7                     ?_PWM_config:	
   600                           ; 1 bytes @ 0x47
   601                           
   602     01D7                     PWM_config@periodo_ms:	
   603                           ; 1 bytes @ 0x47
   604                           
   605     01D7                     PWM_duty@duty:	
   606                           ; 4 bytes @ 0x47
   607                           
   608                           
   609                           ; 4 bytes @ 0x47
   610     01D7                     	ds	4
   611     01DB                     ??_PWM_duty:
   612     01DB                     ??_PWM_config:	
   613                           ; 1 bytes @ 0x4B
   614                           
   615     01DB                     PWM_config@canal:	
   616                           ; 1 bytes @ 0x4B
   617                           
   618                           
   619                           ; 1 bytes @ 0x4B
   620     01DB                     	ds	3
   621     01DE                     PWM_duty@canal:
   622                           
   623                           ; 1 bytes @ 0x4E
   624     01DE                     	ds	1
   625     01DF                     PWM_duty@particion1:
   626                           
   627                           ; 2 bytes @ 0x4F
   628     01DF                     	ds	2
   629     01E1                     PWM_duty@particion2:
   630                           
   631                           ; 2 bytes @ 0x51
   632     01E1                     	ds	2
   633     01E3                     ??_setup:
   634                           
   635                           ; 1 bytes @ 0x53
   636     01E3                     	ds	1
   637     01E4                     ??_main:
   638                           
   639                           ; 1 bytes @ 0x54
   640     01E4                     	ds	2
   641                           
   642                           	psect	cstackBANK2
   643     0110                     __pcstackBANK2:
   644     0110                     _main$524:
   645                           
   646                           ; 2 bytes @ 0x0
   647     0110                     	ds	2
   648     0112                     _main$525:
   649                           
   650                           ; 2 bytes @ 0x2
   651     0112                     	ds	2
   652     0114                     _main$526:
   653                           
   654                           ; 2 bytes @ 0x4
   655     0114                     	ds	2
   656     0116                     _main$527:
   657                           
   658                           ; 2 bytes @ 0x6
   659     0116                     	ds	2
   660     0118                     main@Lmax:
   661                           
   662                           ; 2 bytes @ 0x8
   663     0118                     	ds	2
   664     011A                     main@Lmin:
   665                           
   666                           ; 2 bytes @ 0xA
   667     011A                     	ds	2
   668                           
   669                           	psect	cstackBANK1
   670     00A0                     __pcstackBANK1:
   671     00A0                     i1___fltol@sign1:
   672                           
   673                           ; 1 bytes @ 0x0
   674     00A0                     	ds	1
   675     00A1                     i1___fltol@exp1:
   676                           
   677                           ; 1 bytes @ 0x1
   678     00A1                     	ds	1
   679     00A2                     ?i1_PWM_duty:
   680     00A2                     i1PWM_duty@duty:	
   681                           ; 1 bytes @ 0x2
   682                           
   683                           
   684                           ; 4 bytes @ 0x2
   685     00A2                     	ds	4
   686     00A6                     ??i1_PWM_duty:
   687                           
   688                           ; 1 bytes @ 0x6
   689     00A6                     	ds	3
   690     00A9                     i1PWM_duty@canal:
   691                           
   692                           ; 1 bytes @ 0x9
   693     00A9                     	ds	1
   694     00AA                     i1PWM_duty@particion1:
   695                           
   696                           ; 2 bytes @ 0xA
   697     00AA                     	ds	2
   698     00AC                     i1PWM_duty@particion2:
   699                           
   700                           ; 2 bytes @ 0xC
   701     00AC                     	ds	2
   702     00AE                     ?_servos:
   703     00AE                     servos@modo:	
   704                           ; 1 bytes @ 0xE
   705                           
   706                           
   707                           ; 2 bytes @ 0xE
   708     00AE                     	ds	2
   709     00B0                     ??_servos:
   710                           
   711                           ; 1 bytes @ 0x10
   712     00B0                     	ds	4
   713     00B4                     _servos$1407:
   714                           
   715                           ; 4 bytes @ 0x14
   716     00B4                     	ds	4
   717     00B8                     servos@dato:
   718                           
   719                           ; 1 bytes @ 0x18
   720     00B8                     	ds	1
   721     00B9                     ??_isr:
   722                           
   723                           ; 1 bytes @ 0x19
   724     00B9                     	ds	8
   725     00C1                     _isr$1406:
   726                           
   727                           ; 4 bytes @ 0x21
   728     00C1                     	ds	4
   729                           
   730                           	psect	cstackCOMMON
   731     0070                     __pcstackCOMMON:
   732     0070                     ?_pulse:
   733     0070                     ??_pulse:	
   734                           ; 1 bytes @ 0x0
   735                           
   736     0070                     ?_TXT:	
   737                           ; 1 bytes @ 0x0
   738                           
   739     0070                     ?_write_EEPROM:	
   740                           ; 1 bytes @ 0x0
   741                           
   742     0070                     ?_read_EEPROM:	
   743                           ; 1 bytes @ 0x0
   744                           
   745     0070                     ??_read_EEPROM:	
   746                           ; 1 bytes @ 0x0
   747                           
   748     0070                     ?_setup:	
   749                           ; 1 bytes @ 0x0
   750                           
   751     0070                     ?_initUART:	
   752                           ; 1 bytes @ 0x0
   753                           
   754     0070                     ?_isr:	
   755                           ; 1 bytes @ 0x0
   756                           
   757     0070                     ?_main:	
   758                           ; 1 bytes @ 0x0
   759                           
   760     0070                     ?___wmul:	
   761                           ; 1 bytes @ 0x0
   762                           
   763     0070                     ?i1__Umul8_16:	
   764                           ; 2 bytes @ 0x0
   765                           
   766     0070                     ?___xxtofl:	
   767                           ; 2 bytes @ 0x0
   768                           
   769     0070                     read_EEPROM@address:	
   770                           ; 4 bytes @ 0x0
   771                           
   772     0070                     write_EEPROM@data:	
   773                           ; 1 bytes @ 0x0
   774                           
   775     0070                     i1__Umul8_16@multiplicand:	
   776                           ; 1 bytes @ 0x0
   777                           
   778     0070                     ___wmul@multiplier:	
   779                           ; 1 bytes @ 0x0
   780                           
   781     0070                     ___xxtofl@val:	
   782                           ; 2 bytes @ 0x0
   783                           
   784                           
   785                           ; 4 bytes @ 0x0
   786     0070                     	ds	1
   787     0071                     ??_write_EEPROM:
   788     0071                     write_EEPROM@address:	
   789                           ; 1 bytes @ 0x1
   790                           
   791                           
   792                           ; 1 bytes @ 0x1
   793     0071                     	ds	1
   794     0072                     ??i1__Umul8_16:
   795     0072                     write_EEPROM@gieStatus:	
   796                           ; 1 bytes @ 0x2
   797                           
   798     0072                     ___wmul@multiplicand:	
   799                           ; 1 bytes @ 0x2
   800                           
   801                           
   802                           ; 2 bytes @ 0x2
   803     0072                     	ds	2
   804     0074                     ??___wmul:
   805     0074                     ??___xxtofl:	
   806                           ; 1 bytes @ 0x4
   807                           
   808     0074                     ___wmul@product:	
   809                           ; 1 bytes @ 0x4
   810                           
   811     0074                     i1__Umul8_16@product:	
   812                           ; 2 bytes @ 0x4
   813                           
   814                           
   815                           ; 2 bytes @ 0x4
   816     0074                     	ds	2
   817     0076                     ??_TXT:
   818     0076                     i1__Umul8_16@word_mpld:	
   819                           ; 1 bytes @ 0x6
   820                           
   821                           
   822                           ; 2 bytes @ 0x6
   823     0076                     	ds	2
   824     0078                     ___xxtofl@sign:
   825     0078                     i1__Umul8_16@multiplier:	
   826                           ; 1 bytes @ 0x8
   827                           
   828                           
   829                           ; 1 bytes @ 0x8
   830     0078                     	ds	1
   831     0079                     ___xxtofl@exp:
   832                           
   833                           ; 1 bytes @ 0x9
   834     0079                     	ds	1
   835     007A                     ___xxtofl@arg:
   836                           
   837                           ; 4 bytes @ 0xA
   838     007A                     	ds	4
   839                           
   840                           	psect	cstackBANK0
   841     0020                     __pcstackBANK0:
   842     0020                     ?i1___fldiv:
   843     0020                     i1___fldiv@a:	
   844                           ; 4 bytes @ 0x0
   845                           
   846                           
   847                           ; 4 bytes @ 0x0
   848     0020                     	ds	4
   849     0024                     i1___fldiv@b:
   850                           
   851                           ; 4 bytes @ 0x4
   852     0024                     	ds	4
   853     0028                     ??i1___fldiv:
   854                           
   855                           ; 1 bytes @ 0x8
   856     0028                     	ds	5
   857     002D                     i1___fldiv@rem:
   858                           
   859                           ; 4 bytes @ 0xD
   860     002D                     	ds	4
   861     0031                     i1___fldiv@sign:
   862                           
   863                           ; 1 bytes @ 0x11
   864     0031                     	ds	1
   865     0032                     i1___fldiv@new_exp:
   866                           
   867                           ; 2 bytes @ 0x12
   868     0032                     	ds	2
   869     0034                     i1___fldiv@grs:
   870                           
   871                           ; 4 bytes @ 0x14
   872     0034                     	ds	4
   873     0038                     i1___fldiv@bexp:
   874                           
   875                           ; 1 bytes @ 0x18
   876     0038                     	ds	1
   877     0039                     i1___fldiv@aexp:
   878                           
   879                           ; 1 bytes @ 0x19
   880     0039                     	ds	1
   881     003A                     ?i1___flmul:
   882     003A                     i1___flmul@b:	
   883                           ; 4 bytes @ 0x1A
   884                           
   885                           
   886                           ; 4 bytes @ 0x1A
   887     003A                     	ds	4
   888     003E                     i1___flmul@a:
   889                           
   890                           ; 4 bytes @ 0x1E
   891     003E                     	ds	4
   892     0042                     ??i1___flmul:
   893                           
   894                           ; 1 bytes @ 0x22
   895     0042                     	ds	5
   896     0047                     i1___flmul@sign:
   897                           
   898                           ; 1 bytes @ 0x27
   899     0047                     	ds	1
   900     0048                     i1___flmul@grs:
   901                           
   902                           ; 4 bytes @ 0x28
   903     0048                     	ds	4
   904     004C                     i1___flmul@aexp:
   905                           
   906                           ; 1 bytes @ 0x2C
   907     004C                     	ds	1
   908     004D                     i1___flmul@bexp:
   909                           
   910                           ; 1 bytes @ 0x2D
   911     004D                     	ds	1
   912     004E                     i1___flmul@prod:
   913                           
   914                           ; 4 bytes @ 0x2E
   915     004E                     	ds	4
   916     0052                     i1___flmul@temp:
   917                           
   918                           ; 2 bytes @ 0x32
   919     0052                     	ds	2
   920     0054                     ?___fladd:
   921     0054                     ___fladd@b:	
   922                           ; 4 bytes @ 0x34
   923                           
   924                           
   925                           ; 4 bytes @ 0x34
   926     0054                     	ds	4
   927     0058                     ___fladd@a:
   928                           
   929                           ; 4 bytes @ 0x38
   930     0058                     	ds	4
   931     005C                     ??___fladd:
   932                           
   933                           ; 1 bytes @ 0x3C
   934     005C                     	ds	8
   935     0064                     ___fladd@signs:
   936                           
   937                           ; 1 bytes @ 0x44
   938     0064                     	ds	1
   939     0065                     ___fladd@aexp:
   940                           
   941                           ; 1 bytes @ 0x45
   942     0065                     	ds	1
   943     0066                     ___fladd@bexp:
   944                           
   945                           ; 1 bytes @ 0x46
   946     0066                     	ds	1
   947     0067                     ___fladd@grs:
   948                           
   949                           ; 1 bytes @ 0x47
   950     0067                     	ds	1
   951     0068                     ?i1___fltol:
   952     0068                     i1___fltol@f1:	
   953                           ; 4 bytes @ 0x48
   954                           
   955                           
   956                           ; 4 bytes @ 0x48
   957     0068                     	ds	4
   958     006C                     ??i1___fltol:
   959                           
   960                           ; 1 bytes @ 0x4C
   961     006C                     	ds	4
   962                           
   963                           	psect	maintext
   964     12EE                     __pmaintext:	
   965 ;;
   966 ;;Main: autosize = 0, tempsize = 2, incstack = 0, save=0
   967 ;;
   968 ;; *************** function _main *****************
   969 ;; Defined at:
   970 ;;		line 222 in file "Progra_IRONMAN.c"
   971 ;; Parameters:    Size  Location     Type
   972 ;;		None
   973 ;; Auto vars:     Size  Location     Type
   974 ;;  Lmin            2   10[BANK2 ] int 
   975 ;;  Lmax            2    8[BANK2 ] int 
   976 ;; Return value:  Size  Location     Type
   977 ;;                  1    wreg      void 
   978 ;; Registers used:
   979 ;;		wreg, status,2, status,0, btemp+1, pclath, cstack
   980 ;; Tracked objects:
   981 ;;		On entry : B00/0
   982 ;;		On exit  : 0/0
   983 ;;		Unchanged: 0/0
   984 ;; Data sizes:     COMMON   BANK0   BANK1   BANK3   BANK2
   985 ;;      Params:         0       0       0       0       0
   986 ;;      Locals:         0       0       0       0      12
   987 ;;      Temps:          0       0       0       2       0
   988 ;;      Totals:         0       0       0       2      12
   989 ;;Total ram usage:       14 bytes
   990 ;; Hardware stack levels required when called: 9
   991 ;; This function calls:
   992 ;;		_initUART
   993 ;;		_setup
   994 ;; This function is called by:
   995 ;;		Startup code after reset
   996 ;; This function uses a non-reentrant model
   997 ;;
   998                           
   999     12EE                     _main:	
  1000                           ;psect for function _main
  1001                           
  1002     12EE                     l4008:	
  1003                           ;incstack = 0
  1004 ;; hardware stack exceeded
  1005                           ; Regs used in _main: [wreg+status,2+status,0+btemp+1+pclath+cstack]
  1006                           
  1007                           
  1008                           ;Progra_IRONMAN.c: 223:     int Lmin = 6, Lmax = 19;
  1009     12EE  3006               	movlw	6
  1010     12EF  1283               	bcf	3,5	;RP0=0, select bank2
  1011     12F0  1703               	bsf	3,6	;RP1=1, select bank2
  1012     12F1  009A               	movwf	main@Lmin^(0+256)
  1013     12F2  3000               	movlw	0
  1014     12F3  009B               	movwf	(main@Lmin^(0+256)+1)
  1015     12F4  3013               	movlw	19
  1016     12F5  0098               	movwf	main@Lmax^(0+256)
  1017     12F6  3000               	movlw	0
  1018     12F7  0099               	movwf	(main@Lmax^(0+256)+1)
  1019                           
  1020                           ;Progra_IRONMAN.c: 224:     ang1 = Lmin;
  1021     12F8  3006               	movlw	6
  1022     12F9  1683               	bsf	3,5	;RP0=1, select bank3
  1023     12FA  1703               	bsf	3,6	;RP1=1, select bank3
  1024     12FB  00E7               	movwf	_ang1^(0+384)
  1025                           
  1026                           ;Progra_IRONMAN.c: 225:     ang2 = Lmin;
  1027     12FC  3006               	movlw	6
  1028     12FD  00E6               	movwf	_ang2^(0+384)
  1029     12FE                     l4010:
  1030                           
  1031                           ;Progra_IRONMAN.c: 226:     setup ();
  1032     12FE  160A  118A  2157  160A  118A  	fcall	_setup
  1033     1303                     l4012:
  1034                           
  1035                           ;Progra_IRONMAN.c: 227:     initUART();
  1036     1303  160A  158A  26A6  160A  118A  	fcall	_initUART
  1037     1308                     l4014:
  1038                           
  1039                           ;Progra_IRONMAN.c: 228:     ADCON0bits.GO = 1;
  1040     1308  1283               	bcf	3,5	;RP0=0, select bank0
  1041     1309  1303               	bcf	3,6	;RP1=0, select bank0
  1042     130A  149F               	bsf	31,1	;volatile
  1043     130B                     l4016:
  1044                           
  1045                           ;Progra_IRONMAN.c: 230:         if(flag == 1){
  1046     130B  1683               	bsf	3,5	;RP0=1, select bank1
  1047     130C  1303               	bcf	3,6	;RP1=0, select bank1
  1048     130D  034B               	decf	_flag^(0+128),w
  1049     130E  044C               	iorwf	(_flag+1)^(0+128),w
  1050     130F  1D03               	btfss	3,2
  1051     1310  2B12               	goto	u6321
  1052     1311  2B13               	goto	u6320
  1053     1312                     u6321:
  1054     1312  2B19               	goto	l4022
  1055     1313                     u6320:
  1056     1313                     l4018:
  1057                           
  1058                           ;Progra_IRONMAN.c: 231:             flag = 0;
  1059     1313  01CB               	clrf	_flag^(0+128)
  1060     1314  01CC               	clrf	(_flag+1)^(0+128)
  1061     1315                     l4020:
  1062                           
  1063                           ;Progra_IRONMAN.c: 232:             PORTD = valor_entero;
  1064     1315  084F               	movf	_valor_entero^(0+128),w
  1065     1316  1283               	bcf	3,5	;RP0=0, select bank0
  1066     1317  1303               	bcf	3,6	;RP1=0, select bank0
  1067     1318  0088               	movwf	8	;volatile
  1068     1319                     l4022:
  1069                           
  1070                           ;Progra_IRONMAN.c: 235:         if (contador == 1){
  1071     1319  1683               	bsf	3,5	;RP0=1, select bank3
  1072     131A  1703               	bsf	3,6	;RP1=1, select bank3
  1073     131B  0368               	decf	_contador^(0+384),w
  1074     131C  0469               	iorwf	(_contador+1)^(0+384),w
  1075     131D  1D03               	btfss	3,2
  1076     131E  2B20               	goto	u6331
  1077     131F  2B21               	goto	u6330
  1078     1320                     u6331:
  1079     1320  2B22               	goto	l4026
  1080     1321                     u6330:
  1081     1321                     l4024:
  1082     1321  0063               	sleep	;# 
  1083     1322                     l4026:
  1084                           
  1085                           ;Progra_IRONMAN.c: 239:         PORTE = modo;
  1086     1322  1683               	bsf	3,5	;RP0=1, select bank1
  1087     1323  1303               	bcf	3,6	;RP1=0, select bank1
  1088     1324  085B               	movf	_modo^(0+128),w
  1089     1325  1283               	bcf	3,5	;RP0=0, select bank0
  1090     1326  1303               	bcf	3,6	;RP1=0, select bank0
  1091     1327  0089               	movwf	9	;volatile
  1092     1328                     l4028:
  1093                           
  1094                           ;Progra_IRONMAN.c: 241:         if(modo == 3){
  1095     1328  3003               	movlw	3
  1096     1329  1683               	bsf	3,5	;RP0=1, select bank1
  1097     132A  1303               	bcf	3,6	;RP1=0, select bank1
  1098     132B  065B               	xorwf	_modo^(0+128),w
  1099     132C  045C               	iorwf	(_modo+1)^(0+128),w
  1100     132D  1D03               	btfss	3,2
  1101     132E  2B30               	goto	u6341
  1102     132F  2B31               	goto	u6340
  1103     1330                     u6341:
  1104     1330  2B33               	goto	l4032
  1105     1331                     u6340:
  1106     1331                     l4030:
  1107                           
  1108                           ;Progra_IRONMAN.c: 242:             modo = 0;
  1109     1331  01DB               	clrf	_modo^(0+128)
  1110     1332  01DC               	clrf	(_modo+1)^(0+128)
  1111     1333                     l4032:
  1112                           
  1113                           ;Progra_IRONMAN.c: 245:         if(servo == 3){
  1114     1333  3003               	movlw	3
  1115     1334  0662               	xorwf	_servo^(0+128),w
  1116     1335  1D03               	btfss	3,2
  1117     1336  2B38               	goto	u6351
  1118     1337  2B39               	goto	u6350
  1119     1338                     u6351:
  1120     1338  2B3B               	goto	l4036
  1121     1339                     u6350:
  1122     1339                     l4034:
  1123                           
  1124                           ;Progra_IRONMAN.c: 246:             servo = 1;
  1125     1339  01E2               	clrf	_servo^(0+128)
  1126     133A  0AE2               	incf	_servo^(0+128),f
  1127     133B                     l4036:
  1128                           
  1129                           ;Progra_IRONMAN.c: 249:         ang1 = (ang1<Lmin) ? Lmin:ang1;
  1130     133B  1283               	bcf	3,5	;RP0=0, select bank2
  1131     133C  1703               	bsf	3,6	;RP1=1, select bank2
  1132     133D  081B               	movf	(main@Lmin+1)^(0+256),w
  1133     133E  3A80               	xorlw	128
  1134     133F  3C80               	sublw	128
  1135     1340  1D03               	skipz
  1136     1341  2B46               	goto	u6365
  1137     1342  081A               	movf	main@Lmin^(0+256),w
  1138     1343  1683               	bsf	3,5	;RP0=1, select bank3
  1139     1344  1703               	bsf	3,6	;RP1=1, select bank3
  1140     1345  0267               	subwf	_ang1^(0+384),w
  1141     1346                     u6365:
  1142     1346  1C03               	skipc
  1143     1347  2B49               	goto	u6361
  1144     1348  2B4A               	goto	u6360
  1145     1349                     u6361:
  1146     1349  2B5A               	goto	l4040
  1147     134A                     u6360:
  1148     134A                     l4038:
  1149     134A  1683               	bsf	3,5	;RP0=1, select bank3
  1150     134B  1703               	bsf	3,6	;RP1=1, select bank3
  1151     134C  0867               	movf	_ang1^(0+384),w
  1152     134D  00E4               	movwf	??_main^(0+384)
  1153     134E  01E5               	clrf	(??_main^(0+384)+1)
  1154     134F  0864               	movf	??_main^(0+384),w
  1155     1350  1283               	bcf	3,5	;RP0=0, select bank2
  1156     1351  1703               	bsf	3,6	;RP1=1, select bank2
  1157     1352  0090               	movwf	_main$524^(0+256)
  1158     1353  1683               	bsf	3,5	;RP0=1, select bank3
  1159     1354  1703               	bsf	3,6	;RP1=1, select bank3
  1160     1355  0865               	movf	(??_main+1)^(0+384),w
  1161     1356  1283               	bcf	3,5	;RP0=0, select bank2
  1162     1357  1703               	bsf	3,6	;RP1=1, select bank2
  1163     1358  0091               	movwf	(_main$524+1)^(0+256)
  1164     1359  2B60               	goto	l202
  1165     135A                     l4040:
  1166     135A  1283               	bcf	3,5	;RP0=0, select bank2
  1167     135B  1703               	bsf	3,6	;RP1=1, select bank2
  1168     135C  081B               	movf	(main@Lmin+1)^(0+256),w
  1169     135D  0091               	movwf	(_main$524+1)^(0+256)
  1170     135E  081A               	movf	main@Lmin^(0+256),w
  1171     135F  0090               	movwf	_main$524^(0+256)
  1172     1360                     l202:
  1173     1360  0810               	movf	_main$524^(0+256),w
  1174     1361  1683               	bsf	3,5	;RP0=1, select bank3
  1175     1362  1703               	bsf	3,6	;RP1=1, select bank3
  1176     1363  00E7               	movwf	_ang1^(0+384)
  1177                           
  1178                           ;Progra_IRONMAN.c: 250:         ang1 = (ang1>Lmax) ? Lmax:ang1;
  1179     1364  1283               	bcf	3,5	;RP0=0, select bank2
  1180     1365  1703               	bsf	3,6	;RP1=1, select bank2
  1181     1366  0819               	movf	(main@Lmax+1)^(0+256),w
  1182     1367  3A80               	xorlw	128
  1183     1368  1683               	bsf	3,5	;RP0=1, select bank3
  1184     1369  1703               	bsf	3,6	;RP1=1, select bank3
  1185     136A  00E4               	movwf	??_main^(0+384)
  1186     136B  3080               	movlw	128
  1187     136C  0264               	subwf	??_main^(0+384),w
  1188     136D  1D03               	skipz
  1189     136E  2B73               	goto	u6375
  1190     136F  0867               	movf	_ang1^(0+384),w
  1191     1370  1283               	bcf	3,5	;RP0=0, select bank2
  1192     1371  1703               	bsf	3,6	;RP1=1, select bank2
  1193     1372  0218               	subwf	main@Lmax^(0+256),w
  1194     1373                     u6375:
  1195     1373  1C03               	skipc
  1196     1374  2B76               	goto	u6371
  1197     1375  2B77               	goto	u6370
  1198     1376                     u6371:
  1199     1376  2B87               	goto	l4044
  1200     1377                     u6370:
  1201     1377                     l4042:
  1202     1377  1683               	bsf	3,5	;RP0=1, select bank3
  1203     1378  1703               	bsf	3,6	;RP1=1, select bank3
  1204     1379  0867               	movf	_ang1^(0+384),w
  1205     137A  00E4               	movwf	??_main^(0+384)
  1206     137B  01E5               	clrf	(??_main^(0+384)+1)
  1207     137C  0864               	movf	??_main^(0+384),w
  1208     137D  1283               	bcf	3,5	;RP0=0, select bank2
  1209     137E  1703               	bsf	3,6	;RP1=1, select bank2
  1210     137F  0092               	movwf	_main$525^(0+256)
  1211     1380  1683               	bsf	3,5	;RP0=1, select bank3
  1212     1381  1703               	bsf	3,6	;RP1=1, select bank3
  1213     1382  0865               	movf	(??_main+1)^(0+384),w
  1214     1383  1283               	bcf	3,5	;RP0=0, select bank2
  1215     1384  1703               	bsf	3,6	;RP1=1, select bank2
  1216     1385  0093               	movwf	(_main$525+1)^(0+256)
  1217     1386  2B8D               	goto	l206
  1218     1387                     l4044:
  1219     1387  1283               	bcf	3,5	;RP0=0, select bank2
  1220     1388  1703               	bsf	3,6	;RP1=1, select bank2
  1221     1389  0819               	movf	(main@Lmax+1)^(0+256),w
  1222     138A  0093               	movwf	(_main$525+1)^(0+256)
  1223     138B  0818               	movf	main@Lmax^(0+256),w
  1224     138C  0092               	movwf	_main$525^(0+256)
  1225     138D                     l206:
  1226     138D  0812               	movf	_main$525^(0+256),w
  1227     138E  1683               	bsf	3,5	;RP0=1, select bank3
  1228     138F  1703               	bsf	3,6	;RP1=1, select bank3
  1229     1390  00E7               	movwf	_ang1^(0+384)
  1230                           
  1231                           ;Progra_IRONMAN.c: 252:         ang2 = (ang2<Lmin) ? Lmin:ang2;
  1232     1391  1283               	bcf	3,5	;RP0=0, select bank2
  1233     1392  1703               	bsf	3,6	;RP1=1, select bank2
  1234     1393  081B               	movf	(main@Lmin+1)^(0+256),w
  1235     1394  3A80               	xorlw	128
  1236     1395  3C80               	sublw	128
  1237     1396  1D03               	skipz
  1238     1397  2B9C               	goto	u6385
  1239     1398  081A               	movf	main@Lmin^(0+256),w
  1240     1399  1683               	bsf	3,5	;RP0=1, select bank3
  1241     139A  1703               	bsf	3,6	;RP1=1, select bank3
  1242     139B  0266               	subwf	_ang2^(0+384),w
  1243     139C                     u6385:
  1244     139C  1C03               	skipc
  1245     139D  2B9F               	goto	u6381
  1246     139E  2BA0               	goto	u6380
  1247     139F                     u6381:
  1248     139F  2BB0               	goto	l4048
  1249     13A0                     u6380:
  1250     13A0                     l4046:
  1251     13A0  1683               	bsf	3,5	;RP0=1, select bank3
  1252     13A1  1703               	bsf	3,6	;RP1=1, select bank3
  1253     13A2  0866               	movf	_ang2^(0+384),w
  1254     13A3  00E4               	movwf	??_main^(0+384)
  1255     13A4  01E5               	clrf	(??_main^(0+384)+1)
  1256     13A5  0864               	movf	??_main^(0+384),w
  1257     13A6  1283               	bcf	3,5	;RP0=0, select bank2
  1258     13A7  1703               	bsf	3,6	;RP1=1, select bank2
  1259     13A8  0094               	movwf	_main$526^(0+256)
  1260     13A9  1683               	bsf	3,5	;RP0=1, select bank3
  1261     13AA  1703               	bsf	3,6	;RP1=1, select bank3
  1262     13AB  0865               	movf	(??_main+1)^(0+384),w
  1263     13AC  1283               	bcf	3,5	;RP0=0, select bank2
  1264     13AD  1703               	bsf	3,6	;RP1=1, select bank2
  1265     13AE  0095               	movwf	(_main$526+1)^(0+256)
  1266     13AF  2BB6               	goto	l210
  1267     13B0                     l4048:
  1268     13B0  1283               	bcf	3,5	;RP0=0, select bank2
  1269     13B1  1703               	bsf	3,6	;RP1=1, select bank2
  1270     13B2  081B               	movf	(main@Lmin+1)^(0+256),w
  1271     13B3  0095               	movwf	(_main$526+1)^(0+256)
  1272     13B4  081A               	movf	main@Lmin^(0+256),w
  1273     13B5  0094               	movwf	_main$526^(0+256)
  1274     13B6                     l210:
  1275     13B6  0814               	movf	_main$526^(0+256),w
  1276     13B7  1683               	bsf	3,5	;RP0=1, select bank3
  1277     13B8  1703               	bsf	3,6	;RP1=1, select bank3
  1278     13B9  00E6               	movwf	_ang2^(0+384)
  1279                           
  1280                           ;Progra_IRONMAN.c: 253:         ang2 = (ang2>Lmax) ? Lmax:ang2;
  1281     13BA  1283               	bcf	3,5	;RP0=0, select bank2
  1282     13BB  1703               	bsf	3,6	;RP1=1, select bank2
  1283     13BC  0819               	movf	(main@Lmax+1)^(0+256),w
  1284     13BD  3A80               	xorlw	128
  1285     13BE  1683               	bsf	3,5	;RP0=1, select bank3
  1286     13BF  1703               	bsf	3,6	;RP1=1, select bank3
  1287     13C0  00E4               	movwf	??_main^(0+384)
  1288     13C1  3080               	movlw	128
  1289     13C2  0264               	subwf	??_main^(0+384),w
  1290     13C3  1D03               	skipz
  1291     13C4  2BC9               	goto	u6395
  1292     13C5  0866               	movf	_ang2^(0+384),w
  1293     13C6  1283               	bcf	3,5	;RP0=0, select bank2
  1294     13C7  1703               	bsf	3,6	;RP1=1, select bank2
  1295     13C8  0218               	subwf	main@Lmax^(0+256),w
  1296     13C9                     u6395:
  1297     13C9  1C03               	skipc
  1298     13CA  2BCC               	goto	u6391
  1299     13CB  2BCD               	goto	u6390
  1300     13CC                     u6391:
  1301     13CC  2BDD               	goto	l4052
  1302     13CD                     u6390:
  1303     13CD                     l4050:
  1304     13CD  1683               	bsf	3,5	;RP0=1, select bank3
  1305     13CE  1703               	bsf	3,6	;RP1=1, select bank3
  1306     13CF  0866               	movf	_ang2^(0+384),w
  1307     13D0  00E4               	movwf	??_main^(0+384)
  1308     13D1  01E5               	clrf	(??_main^(0+384)+1)
  1309     13D2  0864               	movf	??_main^(0+384),w
  1310     13D3  1283               	bcf	3,5	;RP0=0, select bank2
  1311     13D4  1703               	bsf	3,6	;RP1=1, select bank2
  1312     13D5  0096               	movwf	_main$527^(0+256)
  1313     13D6  1683               	bsf	3,5	;RP0=1, select bank3
  1314     13D7  1703               	bsf	3,6	;RP1=1, select bank3
  1315     13D8  0865               	movf	(??_main+1)^(0+384),w
  1316     13D9  1283               	bcf	3,5	;RP0=0, select bank2
  1317     13DA  1703               	bsf	3,6	;RP1=1, select bank2
  1318     13DB  0097               	movwf	(_main$527+1)^(0+256)
  1319     13DC  2BE3               	goto	l214
  1320     13DD                     l4052:
  1321     13DD  1283               	bcf	3,5	;RP0=0, select bank2
  1322     13DE  1703               	bsf	3,6	;RP1=1, select bank2
  1323     13DF  0819               	movf	(main@Lmax+1)^(0+256),w
  1324     13E0  0097               	movwf	(_main$527+1)^(0+256)
  1325     13E1  0818               	movf	main@Lmax^(0+256),w
  1326     13E2  0096               	movwf	_main$527^(0+256)
  1327     13E3                     l214:
  1328     13E3  0816               	movf	_main$527^(0+256),w
  1329     13E4  1683               	bsf	3,5	;RP0=1, select bank3
  1330     13E5  1703               	bsf	3,6	;RP1=1, select bank3
  1331     13E6  00E6               	movwf	_ang2^(0+384)
  1332     13E7                     l4054:
  1333                           
  1334                           ;Progra_IRONMAN.c: 256:         if (ADCON0bits.GO == 0) {
  1335     13E7  1283               	bcf	3,5	;RP0=0, select bank0
  1336     13E8  1303               	bcf	3,6	;RP1=0, select bank0
  1337     13E9  189F               	btfsc	31,1	;volatile
  1338     13EA  2BEC               	goto	u6401
  1339     13EB  2BED               	goto	u6400
  1340     13EC                     u6401:
  1341     13EC  2B0B               	goto	l4016
  1342     13ED                     u6400:
  1343     13ED                     l4056:
  1344                           
  1345                           ;Progra_IRONMAN.c: 257:             if(ADCON0bits.CHS == 0b0000)
  1346     13ED  0C1F               	rrf	31,w	;volatile
  1347     13EE  1683               	bsf	3,5	;RP0=1, select bank3
  1348     13EF  1703               	bsf	3,6	;RP1=1, select bank3
  1349     13F0  00E4               	movwf	??_main^(0+384)
  1350     13F1  0C64               	rrf	??_main^(0+384),w
  1351     13F2  390F               	andlw	15
  1352     13F3  3A00               	xorlw	0
  1353     13F4  1D03               	skipz
  1354     13F5  2BF7               	goto	u6411
  1355     13F6  2BF8               	goto	u6410
  1356     13F7                     u6411:
  1357     13F7  2BFF               	goto	l4060
  1358     13F8                     u6410:
  1359     13F8                     l4058:
  1360                           
  1361                           ;Progra_IRONMAN.c: 258:             {;Progra_IRONMAN.c: 259:                 ADCON0bits.
      +                          CHS = 0b0100;
  1362     13F8  1283               	bcf	3,5	;RP0=0, select bank0
  1363     13F9  1303               	bcf	3,6	;RP1=0, select bank0
  1364     13FA  081F               	movf	31,w	;volatile
  1365     13FB  39C3               	andlw	-61
  1366     13FC  3810               	iorlw	16
  1367     13FD  009F               	movwf	31	;volatile
  1368                           
  1369                           ;Progra_IRONMAN.c: 260:             }
  1370     13FE  2C4D               	goto	l4076
  1371     13FF                     l4060:
  1372     13FF  1283               	bcf	3,5	;RP0=0, select bank0
  1373     1400  1303               	bcf	3,6	;RP1=0, select bank0
  1374     1401  0C1F               	rrf	31,w	;volatile
  1375     1402  1683               	bsf	3,5	;RP0=1, select bank3
  1376     1403  1703               	bsf	3,6	;RP1=1, select bank3
  1377     1404  00E4               	movwf	??_main^(0+384)
  1378     1405  0C64               	rrf	??_main^(0+384),w
  1379     1406  390F               	andlw	15
  1380     1407  3A04               	xorlw	4
  1381     1408  1D03               	skipz
  1382     1409  2C0B               	goto	u6421
  1383     140A  2C0C               	goto	u6420
  1384     140B                     u6421:
  1385     140B  2C13               	goto	l4064
  1386     140C                     u6420:
  1387     140C                     l4062:
  1388                           
  1389                           ;Progra_IRONMAN.c: 262:             {;Progra_IRONMAN.c: 263:                 ADCON0bits.
      +                          CHS = 0b0011;
  1390     140C  1283               	bcf	3,5	;RP0=0, select bank0
  1391     140D  1303               	bcf	3,6	;RP1=0, select bank0
  1392     140E  081F               	movf	31,w	;volatile
  1393     140F  39C3               	andlw	-61
  1394     1410  380C               	iorlw	12
  1395     1411  009F               	movwf	31	;volatile
  1396                           
  1397                           ;Progra_IRONMAN.c: 264:             }
  1398     1412  2C4D               	goto	l4076
  1399     1413                     l4064:
  1400     1413  1283               	bcf	3,5	;RP0=0, select bank0
  1401     1414  1303               	bcf	3,6	;RP1=0, select bank0
  1402     1415  0C1F               	rrf	31,w	;volatile
  1403     1416  1683               	bsf	3,5	;RP0=1, select bank3
  1404     1417  1703               	bsf	3,6	;RP1=1, select bank3
  1405     1418  00E4               	movwf	??_main^(0+384)
  1406     1419  0C64               	rrf	??_main^(0+384),w
  1407     141A  390F               	andlw	15
  1408     141B  3A03               	xorlw	3
  1409     141C  1D03               	skipz
  1410     141D  2C1F               	goto	u6431
  1411     141E  2C20               	goto	u6430
  1412     141F                     u6431:
  1413     141F  2C27               	goto	l4068
  1414     1420                     u6430:
  1415     1420                     l4066:
  1416                           
  1417                           ;Progra_IRONMAN.c: 266:             {;Progra_IRONMAN.c: 267:                 ADCON0bits.
      +                          CHS = 0b0010;
  1418     1420  1283               	bcf	3,5	;RP0=0, select bank0
  1419     1421  1303               	bcf	3,6	;RP1=0, select bank0
  1420     1422  081F               	movf	31,w	;volatile
  1421     1423  39C3               	andlw	-61
  1422     1424  3808               	iorlw	8
  1423     1425  009F               	movwf	31	;volatile
  1424                           
  1425                           ;Progra_IRONMAN.c: 268:             }
  1426     1426  2C4D               	goto	l4076
  1427     1427                     l4068:
  1428     1427  1283               	bcf	3,5	;RP0=0, select bank0
  1429     1428  1303               	bcf	3,6	;RP1=0, select bank0
  1430     1429  0C1F               	rrf	31,w	;volatile
  1431     142A  1683               	bsf	3,5	;RP0=1, select bank3
  1432     142B  1703               	bsf	3,6	;RP1=1, select bank3
  1433     142C  00E4               	movwf	??_main^(0+384)
  1434     142D  0C64               	rrf	??_main^(0+384),w
  1435     142E  390F               	andlw	15
  1436     142F  3A02               	xorlw	2
  1437     1430  1D03               	skipz
  1438     1431  2C33               	goto	u6441
  1439     1432  2C34               	goto	u6440
  1440     1433                     u6441:
  1441     1433  2C3B               	goto	l4072
  1442     1434                     u6440:
  1443     1434                     l4070:
  1444                           
  1445                           ;Progra_IRONMAN.c: 270:             {;Progra_IRONMAN.c: 271:                 ADCON0bits.
      +                          CHS = 0b0001;
  1446     1434  1283               	bcf	3,5	;RP0=0, select bank0
  1447     1435  1303               	bcf	3,6	;RP1=0, select bank0
  1448     1436  081F               	movf	31,w	;volatile
  1449     1437  39C3               	andlw	-61
  1450     1438  3804               	iorlw	4
  1451     1439  009F               	movwf	31	;volatile
  1452                           
  1453                           ;Progra_IRONMAN.c: 272:             }
  1454     143A  2C4D               	goto	l4076
  1455     143B                     l4072:
  1456     143B  1283               	bcf	3,5	;RP0=0, select bank0
  1457     143C  1303               	bcf	3,6	;RP1=0, select bank0
  1458     143D  0C1F               	rrf	31,w	;volatile
  1459     143E  1683               	bsf	3,5	;RP0=1, select bank3
  1460     143F  1703               	bsf	3,6	;RP1=1, select bank3
  1461     1440  00E4               	movwf	??_main^(0+384)
  1462     1441  0C64               	rrf	??_main^(0+384),w
  1463     1442  390F               	andlw	15
  1464     1443  3A01               	xorlw	1
  1465     1444  1D03               	skipz
  1466     1445  2C47               	goto	u6451
  1467     1446  2C48               	goto	u6450
  1468     1447                     u6451:
  1469     1447  2C4D               	goto	l219
  1470     1448                     u6450:
  1471     1448                     l4074:
  1472                           
  1473                           ;Progra_IRONMAN.c: 274:             {;Progra_IRONMAN.c: 275:                 ADCON0bits.
      +                          CHS = 0b0000;
  1474     1448  30C3               	movlw	-61
  1475     1449  1283               	bcf	3,5	;RP0=0, select bank0
  1476     144A  1303               	bcf	3,6	;RP1=0, select bank0
  1477     144B  059F               	andwf	31,f	;volatile
  1478     144C  2C4D               	goto	l4076
  1479     144D                     l219:
  1480     144D                     l4076:
  1481                           
  1482                           ;Progra_IRONMAN.c: 277:             _delay((unsigned long)((1000)*(4000000/4000000.0)));
  1483     144D  30C7               	movlw	199
  1484     144E  1683               	bsf	3,5	;RP0=1, select bank3
  1485     144F  1703               	bsf	3,6	;RP1=1, select bank3
  1486     1450  00E4               	movwf	??_main^(0+384)
  1487     1451                     u6467:
  1488     1451  2C52               	nop2
  1489     1452  0BE4               	decfsz	??_main^(0+384),f
  1490     1453  2C51               	goto	u6467
  1491     1454  2C55               	nop2
  1492     1455                     l4078:
  1493                           
  1494                           ;Progra_IRONMAN.c: 278:             ADCON0bits.GO = 1;
  1495     1455  1283               	bcf	3,5	;RP0=0, select bank0
  1496     1456  1303               	bcf	3,6	;RP1=0, select bank0
  1497     1457  149F               	bsf	31,1	;volatile
  1498     1458  2B0B               	goto	l4016
  1499     1459  120A  118A  2812   	ljmp	start
  1500     145C                     __end_of_main:
  1501                           
  1502                           	psect	text1
  1503     1157                     __ptext1:	
  1504 ;; *************** function _setup *****************
  1505 ;; Defined at:
  1506 ;;		line 284 in file "Progra_IRONMAN.c"
  1507 ;; Parameters:    Size  Location     Type
  1508 ;;		None
  1509 ;; Auto vars:     Size  Location     Type
  1510 ;;		None
  1511 ;; Return value:  Size  Location     Type
  1512 ;;                  1    wreg      void 
  1513 ;; Registers used:
  1514 ;;		wreg, status,2, status,0, btemp+1, pclath, cstack
  1515 ;; Tracked objects:
  1516 ;;		On entry : 0/0
  1517 ;;		On exit  : 0/0
  1518 ;;		Unchanged: 0/0
  1519 ;; Data sizes:     COMMON   BANK0   BANK1   BANK3   BANK2
  1520 ;;      Params:         0       0       0       0       0
  1521 ;;      Locals:         0       0       0       0       0
  1522 ;;      Temps:          0       0       0       1       0
  1523 ;;      Totals:         0       0       0       1       0
  1524 ;;Total ram usage:        1 bytes
  1525 ;; Hardware stack levels used: 1
  1526 ;; Hardware stack levels required when called: 8
  1527 ;; This function calls:
  1528 ;;		_PWM_config
  1529 ;;		_PWM_duty
  1530 ;; This function is called by:
  1531 ;;		_main
  1532 ;; This function uses a non-reentrant model
  1533 ;;
  1534                           
  1535     1157                     _setup:	
  1536                           ;psect for function _setup
  1537                           
  1538     1157                     l3912:	
  1539                           ;incstack = 0
  1540 ;; hardware stack exceeded
  1541                           ; Regs used in _setup: [wreg+status,2+status,0+btemp+1+pclath+cstack]
  1542                           
  1543                           
  1544                           ;Progra_IRONMAN.c: 286:     ANSELbits.ANS0 = 1;
  1545     1157  1683               	bsf	3,5	;RP0=1, select bank3
  1546     1158  1703               	bsf	3,6	;RP1=1, select bank3
  1547     1159  1408               	bsf	8,0	;volatile
  1548                           
  1549                           ;Progra_IRONMAN.c: 287:     ANSELbits.ANS1 = 1;
  1550     115A  1488               	bsf	8,1	;volatile
  1551                           
  1552                           ;Progra_IRONMAN.c: 288:     ANSELbits.ANS2 = 1;
  1553     115B  1508               	bsf	8,2	;volatile
  1554                           
  1555                           ;Progra_IRONMAN.c: 289:     ANSELbits.ANS3 = 1;
  1556     115C  1588               	bsf	8,3	;volatile
  1557                           
  1558                           ;Progra_IRONMAN.c: 290:     ANSELbits.ANS4 = 1;
  1559     115D  1608               	bsf	8,4	;volatile
  1560     115E                     l3914:
  1561                           
  1562                           ;Progra_IRONMAN.c: 291:     ANSELH = 0;
  1563     115E  0189               	clrf	9	;volatile
  1564     115F                     l3916:
  1565                           
  1566                           ;Progra_IRONMAN.c: 294:     TRISB = 0b11111111;
  1567     115F  30FF               	movlw	255
  1568     1160  1683               	bsf	3,5	;RP0=1, select bank1
  1569     1161  1303               	bcf	3,6	;RP1=0, select bank1
  1570     1162  0086               	movwf	6	;volatile
  1571     1163                     l3918:
  1572                           
  1573                           ;Progra_IRONMAN.c: 295:     TRISA = 0b11111111;
  1574     1163  30FF               	movlw	255
  1575     1164  0085               	movwf	5	;volatile
  1576                           
  1577                           ;Progra_IRONMAN.c: 297:     TRISD = 0;
  1578     1165  0188               	clrf	8	;volatile
  1579                           
  1580                           ;Progra_IRONMAN.c: 298:     TRISE = 0;
  1581     1166  0189               	clrf	9	;volatile
  1582                           
  1583                           ;Progra_IRONMAN.c: 301:     PORTA = 0;
  1584     1167  1283               	bcf	3,5	;RP0=0, select bank0
  1585     1168  1303               	bcf	3,6	;RP1=0, select bank0
  1586     1169  0185               	clrf	5	;volatile
  1587                           
  1588                           ;Progra_IRONMAN.c: 302:     PORTB = 0;
  1589     116A  0186               	clrf	6	;volatile
  1590                           
  1591                           ;Progra_IRONMAN.c: 303:     PORTC = 0;
  1592     116B  0187               	clrf	7	;volatile
  1593                           
  1594                           ;Progra_IRONMAN.c: 304:     PORTD = 0;
  1595     116C  0188               	clrf	8	;volatile
  1596                           
  1597                           ;Progra_IRONMAN.c: 305:     PORTE = 0;
  1598     116D  0189               	clrf	9	;volatile
  1599     116E                     l3920:
  1600                           
  1601                           ;Progra_IRONMAN.c: 307:     OPTION_REGbits.nRBPU = 0;
  1602     116E  1683               	bsf	3,5	;RP0=1, select bank1
  1603     116F  1303               	bcf	3,6	;RP1=0, select bank1
  1604     1170  1381               	bcf	1,7	;volatile
  1605     1171                     l3922:
  1606                           
  1607                           ;Progra_IRONMAN.c: 308:     IOCB = 0b11111111;
  1608     1171  30FF               	movlw	255
  1609     1172  0096               	movwf	22	;volatile
  1610     1173                     l3924:
  1611                           
  1612                           ;Progra_IRONMAN.c: 310:     OSCCONbits.IRCF = 0b110 ;
  1613     1173  080F               	movf	15,w	;volatile
  1614     1174  398F               	andlw	-113
  1615     1175  3860               	iorlw	96
  1616     1176  008F               	movwf	15	;volatile
  1617     1177                     l3926:
  1618                           
  1619                           ;Progra_IRONMAN.c: 311:     OSCCONbits.SCS = 1;
  1620     1177  140F               	bsf	15,0	;volatile
  1621     1178                     l3928:
  1622                           
  1623                           ;Progra_IRONMAN.c: 316:     OPTION_REGbits.T0CS = 0;
  1624     1178  1281               	bcf	1,5	;volatile
  1625     1179                     l3930:
  1626                           
  1627                           ;Progra_IRONMAN.c: 317:     OPTION_REGbits.PSA = 0;
  1628     1179  1181               	bcf	1,3	;volatile
  1629     117A                     l3932:
  1630                           
  1631                           ;Progra_IRONMAN.c: 318:     OPTION_REGbits.PS2 = 1;
  1632     117A  1501               	bsf	1,2	;volatile
  1633     117B                     l3934:
  1634                           
  1635                           ;Progra_IRONMAN.c: 319:     OPTION_REGbits.PS1 = 0;
  1636     117B  1081               	bcf	1,1	;volatile
  1637     117C                     l3936:
  1638                           
  1639                           ;Progra_IRONMAN.c: 320:     OPTION_REGbits.PS0 = 1;
  1640     117C  1401               	bsf	1,0	;volatile
  1641     117D                     l3938:
  1642                           
  1643                           ;Progra_IRONMAN.c: 321:     TMR0 = 0;
  1644     117D  1283               	bcf	3,5	;RP0=0, select bank0
  1645     117E  1303               	bcf	3,6	;RP1=0, select bank0
  1646     117F  0181               	clrf	1	;volatile
  1647     1180                     l3940:
  1648                           
  1649                           ;Progra_IRONMAN.c: 324:     INTCONbits.RBIF = 0;
  1650     1180  100B               	bcf	11,0	;volatile
  1651     1181                     l3942:
  1652                           
  1653                           ;Progra_IRONMAN.c: 325:     INTCONbits.RBIE = 1;
  1654     1181  158B               	bsf	11,3	;volatile
  1655     1182                     l3944:
  1656                           
  1657                           ;Progra_IRONMAN.c: 326:     INTCONbits.T0IF = 0;
  1658     1182  110B               	bcf	11,2	;volatile
  1659     1183                     l3946:
  1660                           
  1661                           ;Progra_IRONMAN.c: 327:     INTCONbits.T0IE = 1;
  1662     1183  168B               	bsf	11,5	;volatile
  1663     1184                     l3948:
  1664                           
  1665                           ;Progra_IRONMAN.c: 328:     PIR1bits.ADIF = 0;
  1666     1184  130C               	bcf	12,6	;volatile
  1667     1185                     l3950:
  1668                           
  1669                           ;Progra_IRONMAN.c: 329:     INTCONbits.PEIE = 1;
  1670     1185  170B               	bsf	11,6	;volatile
  1671     1186                     l3952:
  1672                           
  1673                           ;Progra_IRONMAN.c: 330:     PIE1bits.ADIE = 1;
  1674     1186  1683               	bsf	3,5	;RP0=1, select bank1
  1675     1187  1303               	bcf	3,6	;RP1=0, select bank1
  1676     1188  170C               	bsf	12,6	;volatile
  1677     1189                     l3954:
  1678                           
  1679                           ;Progra_IRONMAN.c: 331:     INTCONbits.GIE = 1;
  1680     1189  178B               	bsf	11,7	;volatile
  1681     118A                     l3956:
  1682                           
  1683                           ;Progra_IRONMAN.c: 332:     ADCON0bits.GO = 1;
  1684     118A  1283               	bcf	3,5	;RP0=0, select bank0
  1685     118B  1303               	bcf	3,6	;RP1=0, select bank0
  1686     118C  149F               	bsf	31,1	;volatile
  1687     118D                     l3958:
  1688                           
  1689                           ;Progra_IRONMAN.c: 335:     ADCON0bits.CHS = 0b0000;
  1690     118D  30C3               	movlw	-61
  1691     118E  059F               	andwf	31,f	;volatile
  1692     118F                     l3960:
  1693                           
  1694                           ;Progra_IRONMAN.c: 336:     ADCON1bits.VCFG0 = 0;
  1695     118F  1683               	bsf	3,5	;RP0=1, select bank1
  1696     1190  1303               	bcf	3,6	;RP1=0, select bank1
  1697     1191  121F               	bcf	31,4	;volatile
  1698     1192                     l3962:
  1699                           
  1700                           ;Progra_IRONMAN.c: 337:     ADCON1bits.VCFG1 = 0;
  1701     1192  129F               	bcf	31,5	;volatile
  1702     1193                     l3964:
  1703                           
  1704                           ;Progra_IRONMAN.c: 338:     ADCON0bits.ADCS = 0b10;
  1705     1193  1283               	bcf	3,5	;RP0=0, select bank0
  1706     1194  1303               	bcf	3,6	;RP1=0, select bank0
  1707     1195  081F               	movf	31,w	;volatile
  1708     1196  393F               	andlw	-193
  1709     1197  3880               	iorlw	128
  1710     1198  009F               	movwf	31	;volatile
  1711     1199                     l3966:
  1712                           
  1713                           ;Progra_IRONMAN.c: 340:     ADCON1bits.ADFM = 0;
  1714     1199  1683               	bsf	3,5	;RP0=1, select bank1
  1715     119A  1303               	bcf	3,6	;RP1=0, select bank1
  1716     119B  139F               	bcf	31,7	;volatile
  1717     119C                     l3968:
  1718                           
  1719                           ;Progra_IRONMAN.c: 341:     ADCON0bits.ADON = 1;
  1720     119C  1283               	bcf	3,5	;RP0=0, select bank0
  1721     119D  1303               	bcf	3,6	;RP1=0, select bank0
  1722     119E  141F               	bsf	31,0	;volatile
  1723     119F                     l3970:
  1724                           
  1725                           ;Progra_IRONMAN.c: 342:      _delay((unsigned long)((1)*(4000000/4000.0)));
  1726     119F  30C7               	movlw	199
  1727     11A0  1683               	bsf	3,5	;RP0=1, select bank3
  1728     11A1  1703               	bsf	3,6	;RP1=1, select bank3
  1729     11A2  00E3               	movwf	??_setup^(0+384)
  1730     11A3                     u6477:
  1731     11A3  29A4               	nop2
  1732     11A4  0BE3               	decfsz	??_setup^(0+384),f
  1733     11A5  29A3               	goto	u6477
  1734     11A6  29A7               	nop2
  1735     11A7                     l3972:
  1736                           
  1737                           ;Progra_IRONMAN.c: 345:     PWM_config(1, 0.020f);
  1738     11A7  303C               	movlw	60
  1739     11A8  1683               	bsf	3,5	;RP0=1, select bank3
  1740     11A9  1703               	bsf	3,6	;RP1=1, select bank3
  1741     11AA  00DA               	movwf	(PWM_config@periodo_ms+3)^(0+384)
  1742     11AB  30A3               	movlw	163
  1743     11AC  00D9               	movwf	(PWM_config@periodo_ms+2)^(0+384)
  1744     11AD  30D7               	movlw	215
  1745     11AE  00D8               	movwf	(PWM_config@periodo_ms+1)^(0+384)
  1746     11AF  300A               	movlw	10
  1747     11B0  00D7               	movwf	PWM_config@periodo_ms^(0+384)
  1748     11B1  3001               	movlw	1
  1749     11B2  160A  158A  271B  160A  118A  	fcall	_PWM_config
  1750     11B7                     l3974:
  1751                           
  1752                           ;Progra_IRONMAN.c: 346:     PWM_duty(1, 0.00025f);
  1753     11B7  3039               	movlw	57
  1754     11B8  1683               	bsf	3,5	;RP0=1, select bank3
  1755     11B9  1703               	bsf	3,6	;RP1=1, select bank3
  1756     11BA  00DA               	movwf	(PWM_duty@duty+3)^(0+384)
  1757     11BB  3083               	movlw	131
  1758     11BC  00D9               	movwf	(PWM_duty@duty+2)^(0+384)
  1759     11BD  3012               	movlw	18
  1760     11BE  00D8               	movwf	(PWM_duty@duty+1)^(0+384)
  1761     11BF  306F               	movlw	111
  1762     11C0  00D7               	movwf	PWM_duty@duty^(0+384)
  1763     11C1  3001               	movlw	1
  1764     11C2  160A  118A  21E8  160A  118A  	fcall	_PWM_duty
  1765     11C7                     l3976:
  1766                           
  1767                           ;Progra_IRONMAN.c: 347:     PWM_config(2, 0.020f);
  1768     11C7  303C               	movlw	60
  1769     11C8  1683               	bsf	3,5	;RP0=1, select bank3
  1770     11C9  1703               	bsf	3,6	;RP1=1, select bank3
  1771     11CA  00DA               	movwf	(PWM_config@periodo_ms+3)^(0+384)
  1772     11CB  30A3               	movlw	163
  1773     11CC  00D9               	movwf	(PWM_config@periodo_ms+2)^(0+384)
  1774     11CD  30D7               	movlw	215
  1775     11CE  00D8               	movwf	(PWM_config@periodo_ms+1)^(0+384)
  1776     11CF  300A               	movlw	10
  1777     11D0  00D7               	movwf	PWM_config@periodo_ms^(0+384)
  1778     11D1  3002               	movlw	2
  1779     11D2  160A  158A  271B  160A  118A  	fcall	_PWM_config
  1780     11D7                     l3978:
  1781                           
  1782                           ;Progra_IRONMAN.c: 348:     PWM_duty(2, 0.00025f);
  1783     11D7  3039               	movlw	57
  1784     11D8  1683               	bsf	3,5	;RP0=1, select bank3
  1785     11D9  1703               	bsf	3,6	;RP1=1, select bank3
  1786     11DA  00DA               	movwf	(PWM_duty@duty+3)^(0+384)
  1787     11DB  3083               	movlw	131
  1788     11DC  00D9               	movwf	(PWM_duty@duty+2)^(0+384)
  1789     11DD  3012               	movlw	18
  1790     11DE  00D8               	movwf	(PWM_duty@duty+1)^(0+384)
  1791     11DF  306F               	movlw	111
  1792     11E0  00D7               	movwf	PWM_duty@duty^(0+384)
  1793     11E1  3002               	movlw	2
  1794     11E2  160A  118A  21E8  160A  118A  	fcall	_PWM_duty
  1795     11E7                     l230:
  1796     11E7  0008               	return
  1797     11E8                     __end_of_setup:
  1798                           
  1799                           	psect	text2
  1800     11E8                     __ptext2:	
  1801 ;; *************** function _PWM_duty *****************
  1802 ;; Defined at:
  1803 ;;		line 34 in file "PWM_SERVO1.c"
  1804 ;; Parameters:    Size  Location     Type
  1805 ;;  canal           1    wreg     unsigned char 
  1806 ;;  duty            4   71[BANK3 ] float 
  1807 ;; Auto vars:     Size  Location     Type
  1808 ;;  canal           1   78[BANK3 ] unsigned char 
  1809 ;;  particion2      2   81[BANK3 ] int 
  1810 ;;  particion1      2   79[BANK3 ] int 
  1811 ;; Return value:  Size  Location     Type
  1812 ;;                  1    wreg      void 
  1813 ;; Registers used:
  1814 ;;		wreg, status,2, status,0, btemp+1, pclath, cstack
  1815 ;; Tracked objects:
  1816 ;;		On entry : 0/0
  1817 ;;		On exit  : 0/0
  1818 ;;		Unchanged: 0/0
  1819 ;; Data sizes:     COMMON   BANK0   BANK1   BANK3   BANK2
  1820 ;;      Params:         0       0       0       4       0
  1821 ;;      Locals:         0       0       0       5       0
  1822 ;;      Temps:          0       0       0       3       0
  1823 ;;      Totals:         0       0       0      12       0
  1824 ;;Total ram usage:       12 bytes
  1825 ;; Hardware stack levels used: 1
  1826 ;; Hardware stack levels required when called: 7
  1827 ;; This function calls:
  1828 ;;		___fldiv
  1829 ;;		___flmul
  1830 ;;		___fltol
  1831 ;; This function is called by:
  1832 ;;		_setup
  1833 ;; This function uses a non-reentrant model
  1834 ;;
  1835                           
  1836     11E8                     _PWM_duty:	
  1837                           ;psect for function _PWM_duty
  1838                           
  1839                           
  1840                           ;incstack = 0
  1841 ;; hardware stack exceeded
  1842                           ; Regs used in _PWM_duty: [wreg+status,2+status,0+btemp+1+pclath+cstack]
  1843                           ;PWM_duty@canal stored from wreg
  1844     11E8  1683               	bsf	3,5	;RP0=1, select bank3
  1845     11E9  1703               	bsf	3,6	;RP1=1, select bank3
  1846     11EA  00DE               	movwf	PWM_duty@canal^(0+384)
  1847     11EB                     l3854:
  1848                           
  1849                           ;PWM_SERVO1.c: 35:     if (canal == 1){
  1850     11EB  035E               	decf	PWM_duty@canal^(0+384),w
  1851     11EC  1D03               	btfss	3,2
  1852     11ED  29EF               	goto	u6261
  1853     11EE  29F0               	goto	u6260
  1854     11EF                     u6261:
  1855     11EF  2A6D               	goto	l3864
  1856     11F0                     u6260:
  1857     11F0                     l3856:
  1858                           
  1859                           ;PWM_SERVO1.c: 36:         int particion1 = (int)(4*duty/((1.0f/4000000)*16));
  1860     11F0  085A               	movf	(PWM_duty@duty+3)^(0+384),w
  1861     11F1  00A0               	movwf	(___flmul@a+3)^(0+384)
  1862     11F2  0859               	movf	(PWM_duty@duty+2)^(0+384),w
  1863     11F3  009F               	movwf	(___flmul@a+2)^(0+384)
  1864     11F4  0858               	movf	(PWM_duty@duty+1)^(0+384),w
  1865     11F5  009E               	movwf	(___flmul@a+1)^(0+384)
  1866     11F6  0857               	movf	PWM_duty@duty^(0+384),w
  1867     11F7  009D               	movwf	___flmul@a^(0+384)
  1868     11F8  3040               	movlw	64
  1869     11F9  009C               	movwf	(___flmul@b+3)^(0+384)
  1870     11FA  3080               	movlw	128
  1871     11FB  009B               	movwf	(___flmul@b+2)^(0+384)
  1872     11FC  3000               	movlw	0
  1873     11FD  009A               	movwf	(___flmul@b+1)^(0+384)
  1874     11FE  3000               	movlw	0
  1875     11FF  0099               	movwf	___flmul@b^(0+384)
  1876     1200  120A  118A  203A  160A  118A  	fcall	___flmul
  1877     1205  1683               	bsf	3,5	;RP0=1, select bank3
  1878     1206  1703               	bsf	3,6	;RP1=1, select bank3
  1879     1207  081C               	movf	(?___flmul+3)^(0+384),w
  1880     1208  00BA               	movwf	(___fldiv@b+3)^(0+384)
  1881     1209  081B               	movf	(?___flmul+2)^(0+384),w
  1882     120A  00B9               	movwf	(___fldiv@b+2)^(0+384)
  1883     120B  081A               	movf	(?___flmul+1)^(0+384),w
  1884     120C  00B8               	movwf	(___fldiv@b+1)^(0+384)
  1885     120D  0819               	movf	?___flmul^(0+384),w
  1886     120E  00B7               	movwf	___fldiv@b^(0+384)
  1887     120F  3036               	movlw	54
  1888     1210  00B6               	movwf	(___fldiv@a+3)^(0+384)
  1889     1211  3086               	movlw	134
  1890     1212  00B5               	movwf	(___fldiv@a+2)^(0+384)
  1891     1213  3037               	movlw	55
  1892     1214  00B4               	movwf	(___fldiv@a+1)^(0+384)
  1893     1215  30BD               	movlw	189
  1894     1216  00B3               	movwf	___fldiv@a^(0+384)
  1895     1217  120A  158A  20C2  160A  118A  	fcall	___fldiv
  1896     121C  1683               	bsf	3,5	;RP0=1, select bank3
  1897     121D  1703               	bsf	3,6	;RP1=1, select bank3
  1898     121E  0836               	movf	(?___fldiv+3)^(0+384),w
  1899     121F  00D0               	movwf	(___fltol@f1+3)^(0+384)
  1900     1220  0835               	movf	(?___fldiv+2)^(0+384),w
  1901     1221  00CF               	movwf	(___fltol@f1+2)^(0+384)
  1902     1222  0834               	movf	(?___fldiv+1)^(0+384),w
  1903     1223  00CE               	movwf	(___fltol@f1+1)^(0+384)
  1904     1224  0833               	movf	?___fldiv^(0+384),w
  1905     1225  00CD               	movwf	___fltol@f1^(0+384)
  1906     1226  160A  118A  2051  160A  118A  	fcall	___fltol
  1907     122B  1683               	bsf	3,5	;RP0=1, select bank3
  1908     122C  1703               	bsf	3,6	;RP1=1, select bank3
  1909     122D  084E               	movf	(?___fltol+1)^(0+384),w
  1910     122E  00E0               	movwf	(PWM_duty@particion1+1)^(0+384)
  1911     122F  084D               	movf	?___fltol^(0+384),w
  1912     1230  00DF               	movwf	PWM_duty@particion1^(0+384)
  1913     1231                     l3858:
  1914                           
  1915                           ;PWM_SERVO1.c: 37:         CCPR1L = (char)(-((particion1 >> 2)-69));
  1916     1231  0860               	movf	(PWM_duty@particion1+1)^(0+384),w
  1917     1232  00DC               	movwf	(??_PWM_duty^(0+384)+1)
  1918     1233  085F               	movf	PWM_duty@particion1^(0+384),w
  1919     1234  00DB               	movwf	??_PWM_duty^(0+384)
  1920     1235  0D5C               	rlf	(??_PWM_duty^(0+384)+1),w
  1921     1236  0CDC               	rrf	(??_PWM_duty^(0+384)+1),f
  1922     1237  0CDB               	rrf	??_PWM_duty^(0+384),f
  1923     1238  0D5C               	rlf	(??_PWM_duty^(0+384)+1),w
  1924     1239  0CDC               	rrf	(??_PWM_duty^(0+384)+1),f
  1925     123A  0CDB               	rrf	??_PWM_duty^(0+384),f
  1926     123B  085B               	movf	??_PWM_duty^(0+384),w
  1927     123C  3EBB               	addlw	187
  1928     123D  3AFF               	xorlw	255
  1929     123E  3E01               	addlw	1
  1930     123F  1283               	bcf	3,5	;RP0=0, select bank0
  1931     1240  1303               	bcf	3,6	;RP1=0, select bank0
  1932     1241  0095               	movwf	21	;volatile
  1933     1242                     l3860:
  1934                           
  1935                           ;PWM_SERVO1.c: 41:         CCP1CONbits.DC1B0 = (particion1&(0b1));
  1936     1242  1683               	bsf	3,5	;RP0=1, select bank3
  1937     1243  1703               	bsf	3,6	;RP1=1, select bank3
  1938     1244  085F               	movf	PWM_duty@particion1^(0+384),w
  1939     1245  3901               	andlw	1
  1940     1246  00DB               	movwf	??_PWM_duty^(0+384)
  1941     1247  0EDB               	swapf	??_PWM_duty^(0+384),f
  1942     1248  1283               	bcf	3,5	;RP0=0, select bank0
  1943     1249  1303               	bcf	3,6	;RP1=0, select bank0
  1944     124A  0817               	movf	23,w	;volatile
  1945     124B  1683               	bsf	3,5	;RP0=1, select bank3
  1946     124C  1703               	bsf	3,6	;RP1=1, select bank3
  1947     124D  065B               	xorwf	??_PWM_duty^(0+384),w
  1948     124E  39EF               	andlw	-17
  1949     124F  065B               	xorwf	??_PWM_duty^(0+384),w
  1950     1250  1283               	bcf	3,5	;RP0=0, select bank0
  1951     1251  1303               	bcf	3,6	;RP1=0, select bank0
  1952     1252  0097               	movwf	23	;volatile
  1953     1253                     l3862:
  1954                           
  1955                           ;PWM_SERVO1.c: 42:         CCP1CONbits.DC1B1 = ((particion1>>1) &(0b1));
  1956     1253  1683               	bsf	3,5	;RP0=1, select bank3
  1957     1254  1703               	bsf	3,6	;RP1=1, select bank3
  1958     1255  0860               	movf	(PWM_duty@particion1+1)^(0+384),w
  1959     1256  00DC               	movwf	(??_PWM_duty^(0+384)+1)
  1960     1257  085F               	movf	PWM_duty@particion1^(0+384),w
  1961     1258  00DB               	movwf	??_PWM_duty^(0+384)
  1962     1259  0D5C               	rlf	(??_PWM_duty^(0+384)+1),w
  1963     125A  0CDC               	rrf	(??_PWM_duty^(0+384)+1),f
  1964     125B  0CDB               	rrf	??_PWM_duty^(0+384),f
  1965     125C  085B               	movf	??_PWM_duty^(0+384),w
  1966     125D  3901               	andlw	1
  1967     125E  00DD               	movwf	(??_PWM_duty+2)^(0+384)
  1968     125F  0EDD               	swapf	(??_PWM_duty+2)^(0+384),f
  1969     1260  0DDD               	rlf	(??_PWM_duty+2)^(0+384),f
  1970     1261  1283               	bcf	3,5	;RP0=0, select bank0
  1971     1262  1303               	bcf	3,6	;RP1=0, select bank0
  1972     1263  0817               	movf	23,w	;volatile
  1973     1264  1683               	bsf	3,5	;RP0=1, select bank3
  1974     1265  1703               	bsf	3,6	;RP1=1, select bank3
  1975     1266  065D               	xorwf	(??_PWM_duty+2)^(0+384),w
  1976     1267  39DF               	andlw	-33
  1977     1268  065D               	xorwf	(??_PWM_duty+2)^(0+384),w
  1978     1269  1283               	bcf	3,5	;RP0=0, select bank0
  1979     126A  1303               	bcf	3,6	;RP1=0, select bank0
  1980     126B  0097               	movwf	23	;volatile
  1981                           
  1982                           ;PWM_SERVO1.c: 43:     }
  1983     126C  2AED               	goto	l286
  1984     126D                     l3864:
  1985     126D  3002               	movlw	2
  1986     126E  065E               	xorwf	PWM_duty@canal^(0+384),w
  1987     126F  1D03               	btfss	3,2
  1988     1270  2A72               	goto	u6271
  1989     1271  2A73               	goto	u6270
  1990     1272                     u6271:
  1991     1272  2AED               	goto	l286
  1992     1273                     u6270:
  1993     1273                     l3866:
  1994                           
  1995                           ;PWM_SERVO1.c: 45:         int particion2 = (int)(4*duty/((1.0f/4000000)*16));
  1996     1273  085A               	movf	(PWM_duty@duty+3)^(0+384),w
  1997     1274  00A0               	movwf	(___flmul@a+3)^(0+384)
  1998     1275  0859               	movf	(PWM_duty@duty+2)^(0+384),w
  1999     1276  009F               	movwf	(___flmul@a+2)^(0+384)
  2000     1277  0858               	movf	(PWM_duty@duty+1)^(0+384),w
  2001     1278  009E               	movwf	(___flmul@a+1)^(0+384)
  2002     1279  0857               	movf	PWM_duty@duty^(0+384),w
  2003     127A  009D               	movwf	___flmul@a^(0+384)
  2004     127B  3040               	movlw	64
  2005     127C  009C               	movwf	(___flmul@b+3)^(0+384)
  2006     127D  3080               	movlw	128
  2007     127E  009B               	movwf	(___flmul@b+2)^(0+384)
  2008     127F  3000               	movlw	0
  2009     1280  009A               	movwf	(___flmul@b+1)^(0+384)
  2010     1281  3000               	movlw	0
  2011     1282  0099               	movwf	___flmul@b^(0+384)
  2012     1283  120A  118A  203A  160A  118A  	fcall	___flmul
  2013     1288  1683               	bsf	3,5	;RP0=1, select bank3
  2014     1289  1703               	bsf	3,6	;RP1=1, select bank3
  2015     128A  081C               	movf	(?___flmul+3)^(0+384),w
  2016     128B  00BA               	movwf	(___fldiv@b+3)^(0+384)
  2017     128C  081B               	movf	(?___flmul+2)^(0+384),w
  2018     128D  00B9               	movwf	(___fldiv@b+2)^(0+384)
  2019     128E  081A               	movf	(?___flmul+1)^(0+384),w
  2020     128F  00B8               	movwf	(___fldiv@b+1)^(0+384)
  2021     1290  0819               	movf	?___flmul^(0+384),w
  2022     1291  00B7               	movwf	___fldiv@b^(0+384)
  2023     1292  3036               	movlw	54
  2024     1293  00B6               	movwf	(___fldiv@a+3)^(0+384)
  2025     1294  3086               	movlw	134
  2026     1295  00B5               	movwf	(___fldiv@a+2)^(0+384)
  2027     1296  3037               	movlw	55
  2028     1297  00B4               	movwf	(___fldiv@a+1)^(0+384)
  2029     1298  30BD               	movlw	189
  2030     1299  00B3               	movwf	___fldiv@a^(0+384)
  2031     129A  120A  158A  20C2  160A  118A  	fcall	___fldiv
  2032     129F  1683               	bsf	3,5	;RP0=1, select bank3
  2033     12A0  1703               	bsf	3,6	;RP1=1, select bank3
  2034     12A1  0836               	movf	(?___fldiv+3)^(0+384),w
  2035     12A2  00D0               	movwf	(___fltol@f1+3)^(0+384)
  2036     12A3  0835               	movf	(?___fldiv+2)^(0+384),w
  2037     12A4  00CF               	movwf	(___fltol@f1+2)^(0+384)
  2038     12A5  0834               	movf	(?___fldiv+1)^(0+384),w
  2039     12A6  00CE               	movwf	(___fltol@f1+1)^(0+384)
  2040     12A7  0833               	movf	?___fldiv^(0+384),w
  2041     12A8  00CD               	movwf	___fltol@f1^(0+384)
  2042     12A9  160A  118A  2051  160A  118A  	fcall	___fltol
  2043     12AE  1683               	bsf	3,5	;RP0=1, select bank3
  2044     12AF  1703               	bsf	3,6	;RP1=1, select bank3
  2045     12B0  084E               	movf	(?___fltol+1)^(0+384),w
  2046     12B1  00E2               	movwf	(PWM_duty@particion2+1)^(0+384)
  2047     12B2  084D               	movf	?___fltol^(0+384),w
  2048     12B3  00E1               	movwf	PWM_duty@particion2^(0+384)
  2049     12B4                     l3868:
  2050                           
  2051                           ;PWM_SERVO1.c: 46:         CCPR2L = (char)(((particion2 >> 2)+60));
  2052     12B4  0862               	movf	(PWM_duty@particion2+1)^(0+384),w
  2053     12B5  00DC               	movwf	(??_PWM_duty^(0+384)+1)
  2054     12B6  0861               	movf	PWM_duty@particion2^(0+384),w
  2055     12B7  00DB               	movwf	??_PWM_duty^(0+384)
  2056     12B8  0D5C               	rlf	(??_PWM_duty^(0+384)+1),w
  2057     12B9  0CDC               	rrf	(??_PWM_duty^(0+384)+1),f
  2058     12BA  0CDB               	rrf	??_PWM_duty^(0+384),f
  2059     12BB  0D5C               	rlf	(??_PWM_duty^(0+384)+1),w
  2060     12BC  0CDC               	rrf	(??_PWM_duty^(0+384)+1),f
  2061     12BD  0CDB               	rrf	??_PWM_duty^(0+384),f
  2062     12BE  085B               	movf	??_PWM_duty^(0+384),w
  2063     12BF  3E3C               	addlw	60
  2064     12C0  1283               	bcf	3,5	;RP0=0, select bank0
  2065     12C1  1303               	bcf	3,6	;RP1=0, select bank0
  2066     12C2  009B               	movwf	27	;volatile
  2067     12C3                     l3870:
  2068                           
  2069                           ;PWM_SERVO1.c: 50:         CCP2CONbits.DC2B0 = (particion2&(0b1));
  2070     12C3  1683               	bsf	3,5	;RP0=1, select bank3
  2071     12C4  1703               	bsf	3,6	;RP1=1, select bank3
  2072     12C5  0861               	movf	PWM_duty@particion2^(0+384),w
  2073     12C6  3901               	andlw	1
  2074     12C7  00DB               	movwf	??_PWM_duty^(0+384)
  2075     12C8  0EDB               	swapf	??_PWM_duty^(0+384),f
  2076     12C9  1283               	bcf	3,5	;RP0=0, select bank0
  2077     12CA  1303               	bcf	3,6	;RP1=0, select bank0
  2078     12CB  081D               	movf	29,w	;volatile
  2079     12CC  1683               	bsf	3,5	;RP0=1, select bank3
  2080     12CD  1703               	bsf	3,6	;RP1=1, select bank3
  2081     12CE  065B               	xorwf	??_PWM_duty^(0+384),w
  2082     12CF  39EF               	andlw	-17
  2083     12D0  065B               	xorwf	??_PWM_duty^(0+384),w
  2084     12D1  1283               	bcf	3,5	;RP0=0, select bank0
  2085     12D2  1303               	bcf	3,6	;RP1=0, select bank0
  2086     12D3  009D               	movwf	29	;volatile
  2087     12D4                     l3872:
  2088                           
  2089                           ;PWM_SERVO1.c: 51:         CCP2CONbits.DC2B1 = ((particion2>>1) &(0b1));
  2090     12D4  1683               	bsf	3,5	;RP0=1, select bank3
  2091     12D5  1703               	bsf	3,6	;RP1=1, select bank3
  2092     12D6  0862               	movf	(PWM_duty@particion2+1)^(0+384),w
  2093     12D7  00DC               	movwf	(??_PWM_duty^(0+384)+1)
  2094     12D8  0861               	movf	PWM_duty@particion2^(0+384),w
  2095     12D9  00DB               	movwf	??_PWM_duty^(0+384)
  2096     12DA  0D5C               	rlf	(??_PWM_duty^(0+384)+1),w
  2097     12DB  0CDC               	rrf	(??_PWM_duty^(0+384)+1),f
  2098     12DC  0CDB               	rrf	??_PWM_duty^(0+384),f
  2099     12DD  085B               	movf	??_PWM_duty^(0+384),w
  2100     12DE  3901               	andlw	1
  2101     12DF  00DD               	movwf	(??_PWM_duty+2)^(0+384)
  2102     12E0  0EDD               	swapf	(??_PWM_duty+2)^(0+384),f
  2103     12E1  0DDD               	rlf	(??_PWM_duty+2)^(0+384),f
  2104     12E2  1283               	bcf	3,5	;RP0=0, select bank0
  2105     12E3  1303               	bcf	3,6	;RP1=0, select bank0
  2106     12E4  081D               	movf	29,w	;volatile
  2107     12E5  1683               	bsf	3,5	;RP0=1, select bank3
  2108     12E6  1703               	bsf	3,6	;RP1=1, select bank3
  2109     12E7  065D               	xorwf	(??_PWM_duty+2)^(0+384),w
  2110     12E8  39DF               	andlw	-33
  2111     12E9  065D               	xorwf	(??_PWM_duty+2)^(0+384),w
  2112     12EA  1283               	bcf	3,5	;RP0=0, select bank0
  2113     12EB  1303               	bcf	3,6	;RP1=0, select bank0
  2114     12EC  009D               	movwf	29	;volatile
  2115     12ED                     l286:
  2116     12ED  0008               	return
  2117     12EE                     __end_of_PWM_duty:
  2118                           
  2119                           	psect	text3
  2120     003A                     __ptext3:	
  2121 ;; *************** function ___flmul *****************
  2122 ;; Defined at:
  2123 ;;		line 8 in file "C:\Program Files\Microchip\xc8\v2.40\pic\sources\c90\common\sprcmul.c"
  2124 ;; Parameters:    Size  Location     Type
  2125 ;;  b               4    9[BANK3 ] void 
  2126 ;;  a               4   13[BANK3 ] void 
  2127 ;; Auto vars:     Size  Location     Type
  2128 ;;  prod            4   29[BANK3 ] struct .
  2129 ;;  grs             4   24[BANK3 ] unsigned long 
  2130 ;;  temp            2   33[BANK3 ] struct .
  2131 ;;  bexp            1   28[BANK3 ] unsigned char 
  2132 ;;  aexp            1   23[BANK3 ] unsigned char 
  2133 ;;  sign            1   22[BANK3 ] unsigned char 
  2134 ;; Return value:  Size  Location     Type
  2135 ;;                  4    9[BANK3 ] unsigned char 
  2136 ;; Registers used:
  2137 ;;		wreg, status,2, status,0, btemp+1, pclath, cstack
  2138 ;; Tracked objects:
  2139 ;;		On entry : 0/0
  2140 ;;		On exit  : 0/0
  2141 ;;		Unchanged: 0/0
  2142 ;; Data sizes:     COMMON   BANK0   BANK1   BANK3   BANK2
  2143 ;;      Params:         0       0       0       8       0
  2144 ;;      Locals:         0       0       0      13       0
  2145 ;;      Temps:          0       0       0       5       0
  2146 ;;      Totals:         0       0       0      26       0
  2147 ;;Total ram usage:       26 bytes
  2148 ;; Hardware stack levels used: 1
  2149 ;; Hardware stack levels required when called: 6
  2150 ;; This function calls:
  2151 ;;		__Umul8_16
  2152 ;; This function is called by:
  2153 ;;		_PWM_duty
  2154 ;; This function uses a non-reentrant model
  2155 ;;
  2156                           
  2157     003A                     ___flmul:	
  2158                           ;psect for function ___flmul
  2159                           
  2160     003A                     l3714:	
  2161                           ;incstack = 0
  2162 ;; hardware stack exceeded
  2163                           ; Regs used in ___flmul: [wreg+status,2+status,0+btemp+1+pclath+cstack]
  2164                           
  2165     003A  1683               	bsf	3,5	;RP0=1, select bank3
  2166     003B  1703               	bsf	3,6	;RP1=1, select bank3
  2167     003C  081C               	movf	(___flmul@b^(0+384)+3),w
  2168     003D  3980               	andlw	128
  2169     003E  00A6               	movwf	___flmul@sign^(0+384)
  2170     003F                     l3716:
  2171     003F  081C               	movf	(___flmul@b^(0+384)+3),w
  2172     0040  00A1               	movwf	??___flmul^(0+384)
  2173     0041  0721               	addwf	??___flmul^(0+384),w
  2174     0042  00AC               	movwf	___flmul@bexp^(0+384)
  2175     0043                     l3718:
  2176     0043  1F9B               	btfss	(___flmul@b^(0+384)+2),7
  2177     0044  2846               	goto	u5891
  2178     0045  2847               	goto	u5890
  2179     0046                     u5891:
  2180     0046  2848               	goto	l3722
  2181     0047                     u5890:
  2182     0047                     l3720:
  2183     0047  142C               	bsf	___flmul@bexp^(0+384),0
  2184     0048                     l3722:
  2185     0048  082C               	movf	___flmul@bexp^(0+384),w
  2186     0049  1903               	btfsc	3,2
  2187     004A  284C               	goto	u5901
  2188     004B  284D               	goto	u5900
  2189     004C                     u5901:
  2190     004C  285C               	goto	l3730
  2191     004D                     u5900:
  2192     004D                     l3724:
  2193     004D  0A2C               	incf	___flmul@bexp^(0+384),w
  2194     004E  1D03               	btfss	3,2
  2195     004F  2851               	goto	u5911
  2196     0050  2852               	goto	u5910
  2197     0051                     u5911:
  2198     0051  285A               	goto	l3728
  2199     0052                     u5910:
  2200     0052                     l3726:
  2201     0052  3000               	movlw	0
  2202     0053  009C               	movwf	(___flmul@b+3)^(0+384)
  2203     0054  3000               	movlw	0
  2204     0055  009B               	movwf	(___flmul@b+2)^(0+384)
  2205     0056  3000               	movlw	0
  2206     0057  009A               	movwf	(___flmul@b+1)^(0+384)
  2207     0058  3000               	movlw	0
  2208     0059  0099               	movwf	___flmul@b^(0+384)
  2209     005A                     l3728:
  2210     005A  179B               	bsf	(___flmul@b^(0+384)+2),7
  2211     005B  2864               	goto	l3732
  2212     005C                     l3730:
  2213     005C  3000               	movlw	0
  2214     005D  009C               	movwf	(___flmul@b+3)^(0+384)
  2215     005E  3000               	movlw	0
  2216     005F  009B               	movwf	(___flmul@b+2)^(0+384)
  2217     0060  3000               	movlw	0
  2218     0061  009A               	movwf	(___flmul@b+1)^(0+384)
  2219     0062  3000               	movlw	0
  2220     0063  0099               	movwf	___flmul@b^(0+384)
  2221     0064                     l3732:
  2222     0064  0820               	movf	(___flmul@a^(0+384)+3),w
  2223     0065  3980               	andlw	128
  2224     0066  00A1               	movwf	??___flmul^(0+384)
  2225     0067  0821               	movf	??___flmul^(0+384),w
  2226     0068  06A6               	xorwf	___flmul@sign^(0+384),f
  2227     0069                     l3734:
  2228     0069  0820               	movf	(___flmul@a^(0+384)+3),w
  2229     006A  00A1               	movwf	??___flmul^(0+384)
  2230     006B  0721               	addwf	??___flmul^(0+384),w
  2231     006C  00A7               	movwf	___flmul@aexp^(0+384)
  2232     006D                     l3736:
  2233     006D  1F9F               	btfss	(___flmul@a^(0+384)+2),7
  2234     006E  2870               	goto	u5921
  2235     006F  2871               	goto	u5920
  2236     0070                     u5921:
  2237     0070  2872               	goto	l3740
  2238     0071                     u5920:
  2239     0071                     l3738:
  2240     0071  1427               	bsf	___flmul@aexp^(0+384),0
  2241     0072                     l3740:
  2242     0072  0827               	movf	___flmul@aexp^(0+384),w
  2243     0073  1903               	btfsc	3,2
  2244     0074  2876               	goto	u5931
  2245     0075  2877               	goto	u5930
  2246     0076                     u5931:
  2247     0076  2886               	goto	l3748
  2248     0077                     u5930:
  2249     0077                     l3742:
  2250     0077  0A27               	incf	___flmul@aexp^(0+384),w
  2251     0078  1D03               	btfss	3,2
  2252     0079  287B               	goto	u5941
  2253     007A  287C               	goto	u5940
  2254     007B                     u5941:
  2255     007B  2884               	goto	l3746
  2256     007C                     u5940:
  2257     007C                     l3744:
  2258     007C  3000               	movlw	0
  2259     007D  00A0               	movwf	(___flmul@a+3)^(0+384)
  2260     007E  3000               	movlw	0
  2261     007F  009F               	movwf	(___flmul@a+2)^(0+384)
  2262     0080  3000               	movlw	0
  2263     0081  009E               	movwf	(___flmul@a+1)^(0+384)
  2264     0082  3000               	movlw	0
  2265     0083  009D               	movwf	___flmul@a^(0+384)
  2266     0084                     l3746:
  2267     0084  179F               	bsf	(___flmul@a^(0+384)+2),7
  2268     0085  288E               	goto	l3750
  2269     0086                     l3748:
  2270     0086  3000               	movlw	0
  2271     0087  00A0               	movwf	(___flmul@a+3)^(0+384)
  2272     0088  3000               	movlw	0
  2273     0089  009F               	movwf	(___flmul@a+2)^(0+384)
  2274     008A  3000               	movlw	0
  2275     008B  009E               	movwf	(___flmul@a+1)^(0+384)
  2276     008C  3000               	movlw	0
  2277     008D  009D               	movwf	___flmul@a^(0+384)
  2278     008E                     l3750:
  2279     008E  0827               	movf	___flmul@aexp^(0+384),w
  2280     008F  1903               	btfsc	3,2
  2281     0090  2892               	goto	u5951
  2282     0091  2893               	goto	u5950
  2283     0092                     u5951:
  2284     0092  2898               	goto	l3754
  2285     0093                     u5950:
  2286     0093                     l3752:
  2287     0093  082C               	movf	___flmul@bexp^(0+384),w
  2288     0094  1D03               	btfss	3,2
  2289     0095  2897               	goto	u5961
  2290     0096  2898               	goto	u5960
  2291     0097                     u5961:
  2292     0097  28A1               	goto	l3758
  2293     0098                     u5960:
  2294     0098                     l3754:
  2295     0098  3000               	movlw	0
  2296     0099  009C               	movwf	(?___flmul+3)^(0+384)
  2297     009A  3000               	movlw	0
  2298     009B  009B               	movwf	(?___flmul+2)^(0+384)
  2299     009C  3000               	movlw	0
  2300     009D  009A               	movwf	(?___flmul+1)^(0+384)
  2301     009E  3000               	movlw	0
  2302     009F  0099               	movwf	?___flmul^(0+384)
  2303     00A0  2B7E               	goto	l761
  2304     00A1                     l3758:
  2305     00A1  0819               	movf	___flmul@b^(0+384),w
  2306     00A2  0090               	movwf	__Umul8_16@multiplicand^(0+384)
  2307     00A3  081F               	movf	(___flmul@a^(0+384)+2),w
  2308     00A4  160A  158A  26F2  120A  118A  	fcall	__Umul8_16
  2309     00A9  1683               	bsf	3,5	;RP0=1, select bank3
  2310     00AA  1703               	bsf	3,6	;RP1=1, select bank3
  2311     00AB  0811               	movf	(?__Umul8_16+1)^(0+384),w
  2312     00AC  00B2               	movwf	(___flmul@temp+1)^(0+384)
  2313     00AD  0810               	movf	?__Umul8_16^(0+384),w
  2314     00AE  00B1               	movwf	___flmul@temp^(0+384)
  2315     00AF                     l3760:
  2316     00AF  0831               	movf	___flmul@temp^(0+384),w
  2317     00B0  00A1               	movwf	??___flmul^(0+384)
  2318     00B1  01A2               	clrf	(??___flmul^(0+384)+1)
  2319     00B2  01A3               	clrf	(??___flmul^(0+384)+2)
  2320     00B3  01A4               	clrf	(??___flmul^(0+384)+3)
  2321     00B4  0824               	movf	(??___flmul+3)^(0+384),w
  2322     00B5  00AB               	movwf	(___flmul@grs+3)^(0+384)
  2323     00B6  0823               	movf	(??___flmul+2)^(0+384),w
  2324     00B7  00AA               	movwf	(___flmul@grs+2)^(0+384)
  2325     00B8  0822               	movf	(??___flmul+1)^(0+384),w
  2326     00B9  00A9               	movwf	(___flmul@grs+1)^(0+384)
  2327     00BA  0821               	movf	??___flmul^(0+384),w
  2328     00BB  00A8               	movwf	___flmul@grs^(0+384)
  2329     00BC                     l3762:
  2330     00BC  0832               	movf	(___flmul@temp^(0+384)+1),w
  2331     00BD  00A1               	movwf	??___flmul^(0+384)
  2332     00BE  01A2               	clrf	(??___flmul^(0+384)+1)
  2333     00BF  01A3               	clrf	(??___flmul^(0+384)+2)
  2334     00C0  01A4               	clrf	(??___flmul^(0+384)+3)
  2335     00C1  0824               	movf	(??___flmul+3)^(0+384),w
  2336     00C2  00B0               	movwf	(___flmul@prod+3)^(0+384)
  2337     00C3  0823               	movf	(??___flmul+2)^(0+384),w
  2338     00C4  00AF               	movwf	(___flmul@prod+2)^(0+384)
  2339     00C5  0822               	movf	(??___flmul+1)^(0+384),w
  2340     00C6  00AE               	movwf	(___flmul@prod+1)^(0+384)
  2341     00C7  0821               	movf	??___flmul^(0+384),w
  2342     00C8  00AD               	movwf	___flmul@prod^(0+384)
  2343     00C9  081A               	movf	(___flmul@b^(0+384)+1),w
  2344     00CA  0090               	movwf	__Umul8_16@multiplicand^(0+384)
  2345     00CB  081E               	movf	(___flmul@a^(0+384)+1),w
  2346     00CC  160A  158A  26F2  120A  118A  	fcall	__Umul8_16
  2347     00D1  1683               	bsf	3,5	;RP0=1, select bank3
  2348     00D2  1703               	bsf	3,6	;RP1=1, select bank3
  2349     00D3  0811               	movf	(?__Umul8_16+1)^(0+384),w
  2350     00D4  00B2               	movwf	(___flmul@temp+1)^(0+384)
  2351     00D5  0810               	movf	?__Umul8_16^(0+384),w
  2352     00D6  00B1               	movwf	___flmul@temp^(0+384)
  2353     00D7                     l3764:
  2354     00D7  0831               	movf	___flmul@temp^(0+384),w
  2355     00D8  00A1               	movwf	??___flmul^(0+384)
  2356     00D9  01A2               	clrf	(??___flmul^(0+384)+1)
  2357     00DA  01A3               	clrf	(??___flmul^(0+384)+2)
  2358     00DB  01A4               	clrf	(??___flmul^(0+384)+3)
  2359     00DC  0821               	movf	??___flmul^(0+384),w
  2360     00DD  07A8               	addwf	___flmul@grs^(0+384),f
  2361     00DE  0822               	movf	(??___flmul+1)^(0+384),w
  2362     00DF  1103               	clrz
  2363     00E0  1803               	skipnc
  2364     00E1  3E01               	addlw	1
  2365     00E2  1903               	skipnz
  2366     00E3  28E5               	goto	u5971
  2367     00E4  07A9               	addwf	(___flmul@grs+1)^(0+384),f
  2368     00E5                     u5971:
  2369     00E5  0823               	movf	(??___flmul+2)^(0+384),w
  2370     00E6  1103               	clrz
  2371     00E7  1803               	skipnc
  2372     00E8  3E01               	addlw	1
  2373     00E9  1903               	skipnz
  2374     00EA  28EC               	goto	u5972
  2375     00EB  07AA               	addwf	(___flmul@grs+2)^(0+384),f
  2376     00EC                     u5972:
  2377     00EC  0824               	movf	(??___flmul+3)^(0+384),w
  2378     00ED  1103               	clrz
  2379     00EE  1803               	skipnc
  2380     00EF  3E01               	addlw	1
  2381     00F0  1903               	skipnz
  2382     00F1  28F3               	goto	u5973
  2383     00F2  07AB               	addwf	(___flmul@grs+3)^(0+384),f
  2384     00F3                     u5973:
  2385     00F3                     l3766:
  2386     00F3  0832               	movf	(___flmul@temp^(0+384)+1),w
  2387     00F4  00A1               	movwf	??___flmul^(0+384)
  2388     00F5  01A2               	clrf	(??___flmul^(0+384)+1)
  2389     00F6  01A3               	clrf	(??___flmul^(0+384)+2)
  2390     00F7  01A4               	clrf	(??___flmul^(0+384)+3)
  2391     00F8  0821               	movf	??___flmul^(0+384),w
  2392     00F9  07AD               	addwf	___flmul@prod^(0+384),f
  2393     00FA  0822               	movf	(??___flmul+1)^(0+384),w
  2394     00FB  1103               	clrz
  2395     00FC  1803               	skipnc
  2396     00FD  3E01               	addlw	1
  2397     00FE  1903               	skipnz
  2398     00FF  2901               	goto	u5981
  2399     0100  07AE               	addwf	(___flmul@prod+1)^(0+384),f
  2400     0101                     u5981:
  2401     0101  0823               	movf	(??___flmul+2)^(0+384),w
  2402     0102  1103               	clrz
  2403     0103  1803               	skipnc
  2404     0104  3E01               	addlw	1
  2405     0105  1903               	skipnz
  2406     0106  2908               	goto	u5982
  2407     0107  07AF               	addwf	(___flmul@prod+2)^(0+384),f
  2408     0108                     u5982:
  2409     0108  0824               	movf	(??___flmul+3)^(0+384),w
  2410     0109  1103               	clrz
  2411     010A  1803               	skipnc
  2412     010B  3E01               	addlw	1
  2413     010C  1903               	skipnz
  2414     010D  290F               	goto	u5983
  2415     010E  07B0               	addwf	(___flmul@prod+3)^(0+384),f
  2416     010F                     u5983:
  2417     010F  081B               	movf	(___flmul@b^(0+384)+2),w
  2418     0110  0090               	movwf	__Umul8_16@multiplicand^(0+384)
  2419     0111  081D               	movf	___flmul@a^(0+384),w
  2420     0112  160A  158A  26F2  120A  118A  	fcall	__Umul8_16
  2421     0117  1683               	bsf	3,5	;RP0=1, select bank3
  2422     0118  1703               	bsf	3,6	;RP1=1, select bank3
  2423     0119  0811               	movf	(?__Umul8_16+1)^(0+384),w
  2424     011A  00B2               	movwf	(___flmul@temp+1)^(0+384)
  2425     011B  0810               	movf	?__Umul8_16^(0+384),w
  2426     011C  00B1               	movwf	___flmul@temp^(0+384)
  2427     011D                     l3768:
  2428     011D  0831               	movf	___flmul@temp^(0+384),w
  2429     011E  00A1               	movwf	??___flmul^(0+384)
  2430     011F  01A2               	clrf	(??___flmul^(0+384)+1)
  2431     0120  01A3               	clrf	(??___flmul^(0+384)+2)
  2432     0121  01A4               	clrf	(??___flmul^(0+384)+3)
  2433     0122  0821               	movf	??___flmul^(0+384),w
  2434     0123  07A8               	addwf	___flmul@grs^(0+384),f
  2435     0124  0822               	movf	(??___flmul+1)^(0+384),w
  2436     0125  1103               	clrz
  2437     0126  1803               	skipnc
  2438     0127  3E01               	addlw	1
  2439     0128  1903               	skipnz
  2440     0129  292B               	goto	u5991
  2441     012A  07A9               	addwf	(___flmul@grs+1)^(0+384),f
  2442     012B                     u5991:
  2443     012B  0823               	movf	(??___flmul+2)^(0+384),w
  2444     012C  1103               	clrz
  2445     012D  1803               	skipnc
  2446     012E  3E01               	addlw	1
  2447     012F  1903               	skipnz
  2448     0130  2932               	goto	u5992
  2449     0131  07AA               	addwf	(___flmul@grs+2)^(0+384),f
  2450     0132                     u5992:
  2451     0132  0824               	movf	(??___flmul+3)^(0+384),w
  2452     0133  1103               	clrz
  2453     0134  1803               	skipnc
  2454     0135  3E01               	addlw	1
  2455     0136  1903               	skipnz
  2456     0137  2939               	goto	u5993
  2457     0138  07AB               	addwf	(___flmul@grs+3)^(0+384),f
  2458     0139                     u5993:
  2459     0139                     l3770:
  2460     0139  0832               	movf	(___flmul@temp^(0+384)+1),w
  2461     013A  00A1               	movwf	??___flmul^(0+384)
  2462     013B  01A2               	clrf	(??___flmul^(0+384)+1)
  2463     013C  01A3               	clrf	(??___flmul^(0+384)+2)
  2464     013D  01A4               	clrf	(??___flmul^(0+384)+3)
  2465     013E  0821               	movf	??___flmul^(0+384),w
  2466     013F  07AD               	addwf	___flmul@prod^(0+384),f
  2467     0140  0822               	movf	(??___flmul+1)^(0+384),w
  2468     0141  1103               	clrz
  2469     0142  1803               	skipnc
  2470     0143  3E01               	addlw	1
  2471     0144  1903               	skipnz
  2472     0145  2947               	goto	u6001
  2473     0146  07AE               	addwf	(___flmul@prod+1)^(0+384),f
  2474     0147                     u6001:
  2475     0147  0823               	movf	(??___flmul+2)^(0+384),w
  2476     0148  1103               	clrz
  2477     0149  1803               	skipnc
  2478     014A  3E01               	addlw	1
  2479     014B  1903               	skipnz
  2480     014C  294E               	goto	u6002
  2481     014D  07AF               	addwf	(___flmul@prod+2)^(0+384),f
  2482     014E                     u6002:
  2483     014E  0824               	movf	(??___flmul+3)^(0+384),w
  2484     014F  1103               	clrz
  2485     0150  1803               	skipnc
  2486     0151  3E01               	addlw	1
  2487     0152  1903               	skipnz
  2488     0153  2955               	goto	u6003
  2489     0154  07B0               	addwf	(___flmul@prod+3)^(0+384),f
  2490     0155                     u6003:
  2491     0155                     l3772:
  2492     0155  3008               	movlw	8
  2493     0156  00A1               	movwf	??___flmul^(0+384)
  2494     0157                     u6015:
  2495     0157  1003               	clrc
  2496     0158  0DA8               	rlf	___flmul@grs^(0+384),f
  2497     0159  0DA9               	rlf	(___flmul@grs+1)^(0+384),f
  2498     015A  0DAA               	rlf	(___flmul@grs+2)^(0+384),f
  2499     015B  0DAB               	rlf	(___flmul@grs+3)^(0+384),f
  2500     015C  0BA1               	decfsz	??___flmul^(0+384),f
  2501     015D  2957               	goto	u6015
  2502     015E                     l3774:
  2503     015E  081A               	movf	(___flmul@b^(0+384)+1),w
  2504     015F  0090               	movwf	__Umul8_16@multiplicand^(0+384)
  2505     0160  081D               	movf	___flmul@a^(0+384),w
  2506     0161  160A  158A  26F2  120A  118A  	fcall	__Umul8_16
  2507     0166  1683               	bsf	3,5	;RP0=1, select bank3
  2508     0167  1703               	bsf	3,6	;RP1=1, select bank3
  2509     0168  0811               	movf	(?__Umul8_16+1)^(0+384),w
  2510     0169  00B2               	movwf	(___flmul@temp+1)^(0+384)
  2511     016A  0810               	movf	?__Umul8_16^(0+384),w
  2512     016B  00B1               	movwf	___flmul@temp^(0+384)
  2513     016C                     l3776:
  2514     016C  0831               	movf	___flmul@temp^(0+384),w
  2515     016D  00A1               	movwf	??___flmul^(0+384)
  2516     016E  0832               	movf	(___flmul@temp+1)^(0+384),w
  2517     016F  00A2               	movwf	(??___flmul^(0+384)+1)
  2518     0170  01A3               	clrf	(??___flmul^(0+384)+2)
  2519     0171  01A4               	clrf	(??___flmul^(0+384)+3)
  2520     0172  0821               	movf	??___flmul^(0+384),w
  2521     0173  07A8               	addwf	___flmul@grs^(0+384),f
  2522     0174  0822               	movf	(??___flmul+1)^(0+384),w
  2523     0175  1103               	clrz
  2524     0176  1803               	skipnc
  2525     0177  3E01               	addlw	1
  2526     0178  1903               	skipnz
  2527     0179  297B               	goto	u6021
  2528     017A  07A9               	addwf	(___flmul@grs+1)^(0+384),f
  2529     017B                     u6021:
  2530     017B  0823               	movf	(??___flmul+2)^(0+384),w
  2531     017C  1103               	clrz
  2532     017D  1803               	skipnc
  2533     017E  3E01               	addlw	1
  2534     017F  1903               	skipnz
  2535     0180  2982               	goto	u6022
  2536     0181  07AA               	addwf	(___flmul@grs+2)^(0+384),f
  2537     0182                     u6022:
  2538     0182  0824               	movf	(??___flmul+3)^(0+384),w
  2539     0183  1103               	clrz
  2540     0184  1803               	skipnc
  2541     0185  3E01               	addlw	1
  2542     0186  1903               	skipnz
  2543     0187  2989               	goto	u6023
  2544     0188  07AB               	addwf	(___flmul@grs+3)^(0+384),f
  2545     0189                     u6023:
  2546     0189                     l3778:
  2547     0189  0819               	movf	___flmul@b^(0+384),w
  2548     018A  0090               	movwf	__Umul8_16@multiplicand^(0+384)
  2549     018B  081E               	movf	(___flmul@a^(0+384)+1),w
  2550     018C  160A  158A  26F2  120A  118A  	fcall	__Umul8_16
  2551     0191  1683               	bsf	3,5	;RP0=1, select bank3
  2552     0192  1703               	bsf	3,6	;RP1=1, select bank3
  2553     0193  0811               	movf	(?__Umul8_16+1)^(0+384),w
  2554     0194  00B2               	movwf	(___flmul@temp+1)^(0+384)
  2555     0195  0810               	movf	?__Umul8_16^(0+384),w
  2556     0196  00B1               	movwf	___flmul@temp^(0+384)
  2557     0197                     l3780:
  2558     0197  0831               	movf	___flmul@temp^(0+384),w
  2559     0198  00A1               	movwf	??___flmul^(0+384)
  2560     0199  0832               	movf	(___flmul@temp+1)^(0+384),w
  2561     019A  00A2               	movwf	(??___flmul^(0+384)+1)
  2562     019B  01A3               	clrf	(??___flmul^(0+384)+2)
  2563     019C  01A4               	clrf	(??___flmul^(0+384)+3)
  2564     019D  0821               	movf	??___flmul^(0+384),w
  2565     019E  07A8               	addwf	___flmul@grs^(0+384),f
  2566     019F  0822               	movf	(??___flmul+1)^(0+384),w
  2567     01A0  1103               	clrz
  2568     01A1  1803               	skipnc
  2569     01A2  3E01               	addlw	1
  2570     01A3  1903               	skipnz
  2571     01A4  29A6               	goto	u6031
  2572     01A5  07A9               	addwf	(___flmul@grs+1)^(0+384),f
  2573     01A6                     u6031:
  2574     01A6  0823               	movf	(??___flmul+2)^(0+384),w
  2575     01A7  1103               	clrz
  2576     01A8  1803               	skipnc
  2577     01A9  3E01               	addlw	1
  2578     01AA  1903               	skipnz
  2579     01AB  29AD               	goto	u6032
  2580     01AC  07AA               	addwf	(___flmul@grs+2)^(0+384),f
  2581     01AD                     u6032:
  2582     01AD  0824               	movf	(??___flmul+3)^(0+384),w
  2583     01AE  1103               	clrz
  2584     01AF  1803               	skipnc
  2585     01B0  3E01               	addlw	1
  2586     01B1  1903               	skipnz
  2587     01B2  29B4               	goto	u6033
  2588     01B3  07AB               	addwf	(___flmul@grs+3)^(0+384),f
  2589     01B4                     u6033:
  2590     01B4                     l3782:
  2591     01B4  3008               	movlw	8
  2592     01B5  00A1               	movwf	??___flmul^(0+384)
  2593     01B6                     u6045:
  2594     01B6  1003               	clrc
  2595     01B7  0DA8               	rlf	___flmul@grs^(0+384),f
  2596     01B8  0DA9               	rlf	(___flmul@grs+1)^(0+384),f
  2597     01B9  0DAA               	rlf	(___flmul@grs+2)^(0+384),f
  2598     01BA  0DAB               	rlf	(___flmul@grs+3)^(0+384),f
  2599     01BB  0BA1               	decfsz	??___flmul^(0+384),f
  2600     01BC  29B6               	goto	u6045
  2601     01BD  0819               	movf	___flmul@b^(0+384),w
  2602     01BE  0090               	movwf	__Umul8_16@multiplicand^(0+384)
  2603     01BF  081D               	movf	___flmul@a^(0+384),w
  2604     01C0  160A  158A  26F2  120A  118A  	fcall	__Umul8_16
  2605     01C5  1683               	bsf	3,5	;RP0=1, select bank3
  2606     01C6  1703               	bsf	3,6	;RP1=1, select bank3
  2607     01C7  0811               	movf	(?__Umul8_16+1)^(0+384),w
  2608     01C8  00B2               	movwf	(___flmul@temp+1)^(0+384)
  2609     01C9  0810               	movf	?__Umul8_16^(0+384),w
  2610     01CA  00B1               	movwf	___flmul@temp^(0+384)
  2611     01CB                     l3784:
  2612     01CB  0831               	movf	___flmul@temp^(0+384),w
  2613     01CC  00A1               	movwf	??___flmul^(0+384)
  2614     01CD  0832               	movf	(___flmul@temp+1)^(0+384),w
  2615     01CE  00A2               	movwf	(??___flmul^(0+384)+1)
  2616     01CF  01A3               	clrf	(??___flmul^(0+384)+2)
  2617     01D0  01A4               	clrf	(??___flmul^(0+384)+3)
  2618     01D1  0821               	movf	??___flmul^(0+384),w
  2619     01D2  07A8               	addwf	___flmul@grs^(0+384),f
  2620     01D3  0822               	movf	(??___flmul+1)^(0+384),w
  2621     01D4  1103               	clrz
  2622     01D5  1803               	skipnc
  2623     01D6  3E01               	addlw	1
  2624     01D7  1903               	skipnz
  2625     01D8  29DA               	goto	u6051
  2626     01D9  07A9               	addwf	(___flmul@grs+1)^(0+384),f
  2627     01DA                     u6051:
  2628     01DA  0823               	movf	(??___flmul+2)^(0+384),w
  2629     01DB  1103               	clrz
  2630     01DC  1803               	skipnc
  2631     01DD  3E01               	addlw	1
  2632     01DE  1903               	skipnz
  2633     01DF  29E1               	goto	u6052
  2634     01E0  07AA               	addwf	(___flmul@grs+2)^(0+384),f
  2635     01E1                     u6052:
  2636     01E1  0824               	movf	(??___flmul+3)^(0+384),w
  2637     01E2  1103               	clrz
  2638     01E3  1803               	skipnc
  2639     01E4  3E01               	addlw	1
  2640     01E5  1903               	skipnz
  2641     01E6  29E8               	goto	u6053
  2642     01E7  07AB               	addwf	(___flmul@grs+3)^(0+384),f
  2643     01E8                     u6053:
  2644     01E8                     l3786:
  2645     01E8  081A               	movf	(___flmul@b^(0+384)+1),w
  2646     01E9  0090               	movwf	__Umul8_16@multiplicand^(0+384)
  2647     01EA  081F               	movf	(___flmul@a^(0+384)+2),w
  2648     01EB  160A  158A  26F2  120A  118A  	fcall	__Umul8_16
  2649     01F0  1683               	bsf	3,5	;RP0=1, select bank3
  2650     01F1  1703               	bsf	3,6	;RP1=1, select bank3
  2651     01F2  0811               	movf	(?__Umul8_16+1)^(0+384),w
  2652     01F3  00B2               	movwf	(___flmul@temp+1)^(0+384)
  2653     01F4  0810               	movf	?__Umul8_16^(0+384),w
  2654     01F5  00B1               	movwf	___flmul@temp^(0+384)
  2655     01F6  0831               	movf	___flmul@temp^(0+384),w
  2656     01F7  00A1               	movwf	??___flmul^(0+384)
  2657     01F8  0832               	movf	(___flmul@temp+1)^(0+384),w
  2658     01F9  00A2               	movwf	(??___flmul^(0+384)+1)
  2659     01FA  01A3               	clrf	(??___flmul^(0+384)+2)
  2660     01FB  01A4               	clrf	(??___flmul^(0+384)+3)
  2661     01FC  0821               	movf	??___flmul^(0+384),w
  2662     01FD  07AD               	addwf	___flmul@prod^(0+384),f
  2663     01FE  0822               	movf	(??___flmul+1)^(0+384),w
  2664     01FF  1103               	clrz
  2665     0200  1803               	skipnc
  2666     0201  3E01               	addlw	1
  2667     0202  1903               	skipnz
  2668     0203  2A05               	goto	u6061
  2669     0204  07AE               	addwf	(___flmul@prod+1)^(0+384),f
  2670     0205                     u6061:
  2671     0205  0823               	movf	(??___flmul+2)^(0+384),w
  2672     0206  1103               	clrz
  2673     0207  1803               	skipnc
  2674     0208  3E01               	addlw	1
  2675     0209  1903               	skipnz
  2676     020A  2A0C               	goto	u6062
  2677     020B  07AF               	addwf	(___flmul@prod+2)^(0+384),f
  2678     020C                     u6062:
  2679     020C  0824               	movf	(??___flmul+3)^(0+384),w
  2680     020D  1103               	clrz
  2681     020E  1803               	skipnc
  2682     020F  3E01               	addlw	1
  2683     0210  1903               	skipnz
  2684     0211  2A13               	goto	u6063
  2685     0212  07B0               	addwf	(___flmul@prod+3)^(0+384),f
  2686     0213                     u6063:
  2687     0213                     l3788:
  2688     0213  081B               	movf	(___flmul@b^(0+384)+2),w
  2689     0214  0090               	movwf	__Umul8_16@multiplicand^(0+384)
  2690     0215  081E               	movf	(___flmul@a^(0+384)+1),w
  2691     0216  160A  158A  26F2  120A  118A  	fcall	__Umul8_16
  2692     021B  1683               	bsf	3,5	;RP0=1, select bank3
  2693     021C  1703               	bsf	3,6	;RP1=1, select bank3
  2694     021D  0811               	movf	(?__Umul8_16+1)^(0+384),w
  2695     021E  00B2               	movwf	(___flmul@temp+1)^(0+384)
  2696     021F  0810               	movf	?__Umul8_16^(0+384),w
  2697     0220  00B1               	movwf	___flmul@temp^(0+384)
  2698     0221                     l3790:
  2699     0221  0831               	movf	___flmul@temp^(0+384),w
  2700     0222  00A1               	movwf	??___flmul^(0+384)
  2701     0223  0832               	movf	(___flmul@temp+1)^(0+384),w
  2702     0224  00A2               	movwf	(??___flmul^(0+384)+1)
  2703     0225  01A3               	clrf	(??___flmul^(0+384)+2)
  2704     0226  01A4               	clrf	(??___flmul^(0+384)+3)
  2705     0227  0821               	movf	??___flmul^(0+384),w
  2706     0228  07AD               	addwf	___flmul@prod^(0+384),f
  2707     0229  0822               	movf	(??___flmul+1)^(0+384),w
  2708     022A  1103               	clrz
  2709     022B  1803               	skipnc
  2710     022C  3E01               	addlw	1
  2711     022D  1903               	skipnz
  2712     022E  2A30               	goto	u6071
  2713     022F  07AE               	addwf	(___flmul@prod+1)^(0+384),f
  2714     0230                     u6071:
  2715     0230  0823               	movf	(??___flmul+2)^(0+384),w
  2716     0231  1103               	clrz
  2717     0232  1803               	skipnc
  2718     0233  3E01               	addlw	1
  2719     0234  1903               	skipnz
  2720     0235  2A37               	goto	u6072
  2721     0236  07AF               	addwf	(___flmul@prod+2)^(0+384),f
  2722     0237                     u6072:
  2723     0237  0824               	movf	(??___flmul+3)^(0+384),w
  2724     0238  1103               	clrz
  2725     0239  1803               	skipnc
  2726     023A  3E01               	addlw	1
  2727     023B  1903               	skipnz
  2728     023C  2A3E               	goto	u6073
  2729     023D  07B0               	addwf	(___flmul@prod+3)^(0+384),f
  2730     023E                     u6073:
  2731     023E  081B               	movf	(___flmul@b^(0+384)+2),w
  2732     023F  0090               	movwf	__Umul8_16@multiplicand^(0+384)
  2733     0240  081F               	movf	(___flmul@a^(0+384)+2),w
  2734     0241  160A  158A  26F2  120A  118A  	fcall	__Umul8_16
  2735     0246  1683               	bsf	3,5	;RP0=1, select bank3
  2736     0247  1703               	bsf	3,6	;RP1=1, select bank3
  2737     0248  0811               	movf	(?__Umul8_16+1)^(0+384),w
  2738     0249  00B2               	movwf	(___flmul@temp+1)^(0+384)
  2739     024A  0810               	movf	?__Umul8_16^(0+384),w
  2740     024B  00B1               	movwf	___flmul@temp^(0+384)
  2741     024C                     l3792:
  2742     024C  0831               	movf	___flmul@temp^(0+384),w
  2743     024D  00A1               	movwf	??___flmul^(0+384)
  2744     024E  0832               	movf	(___flmul@temp+1)^(0+384),w
  2745     024F  00A2               	movwf	(??___flmul^(0+384)+1)
  2746     0250  01A3               	clrf	(??___flmul^(0+384)+2)
  2747     0251  01A4               	clrf	(??___flmul^(0+384)+3)
  2748     0252  3008               	movlw	8
  2749     0253                     u6085:
  2750     0253  1003               	clrc
  2751     0254  0DA1               	rlf	??___flmul^(0+384),f
  2752     0255  0DA2               	rlf	(??___flmul^(0+384)+1),f
  2753     0256  0DA3               	rlf	(??___flmul^(0+384)+2),f
  2754     0257  0DA4               	rlf	(??___flmul^(0+384)+3),f
  2755     0258                     u6080:
  2756     0258  3EFF               	addlw	-1
  2757     0259  1D03               	skipz
  2758     025A  2A53               	goto	u6085
  2759     025B  0821               	movf	??___flmul^(0+384),w
  2760     025C  07AD               	addwf	___flmul@prod^(0+384),f
  2761     025D  0822               	movf	(??___flmul+1)^(0+384),w
  2762     025E  1103               	clrz
  2763     025F  1803               	skipnc
  2764     0260  3E01               	addlw	1
  2765     0261  1903               	skipnz
  2766     0262  2A64               	goto	u6091
  2767     0263  07AE               	addwf	(___flmul@prod+1)^(0+384),f
  2768     0264                     u6091:
  2769     0264  0823               	movf	(??___flmul+2)^(0+384),w
  2770     0265  1103               	clrz
  2771     0266  1803               	skipnc
  2772     0267  3E01               	addlw	1
  2773     0268  1903               	skipnz
  2774     0269  2A6B               	goto	u6092
  2775     026A  07AF               	addwf	(___flmul@prod+2)^(0+384),f
  2776     026B                     u6092:
  2777     026B  0824               	movf	(??___flmul+3)^(0+384),w
  2778     026C  1103               	clrz
  2779     026D  1803               	skipnc
  2780     026E  3E01               	addlw	1
  2781     026F  1903               	skipnz
  2782     0270  2A72               	goto	u6093
  2783     0271  07B0               	addwf	(___flmul@prod+3)^(0+384),f
  2784     0272                     u6093:
  2785     0272                     l3794:
  2786     0272  0828               	movf	___flmul@grs^(0+384),w
  2787     0273  00A1               	movwf	??___flmul^(0+384)
  2788     0274  0829               	movf	(___flmul@grs+1)^(0+384),w
  2789     0275  00A2               	movwf	(??___flmul^(0+384)+1)
  2790     0276  082A               	movf	(___flmul@grs+2)^(0+384),w
  2791     0277  00A3               	movwf	(??___flmul^(0+384)+2)
  2792     0278  082B               	movf	(___flmul@grs+3)^(0+384),w
  2793     0279  00A4               	movwf	(??___flmul^(0+384)+3)
  2794     027A  3018               	movlw	24
  2795     027B                     u6105:
  2796     027B  1003               	clrc
  2797     027C  0CA4               	rrf	(??___flmul^(0+384)+3),f
  2798     027D  0CA3               	rrf	(??___flmul^(0+384)+2),f
  2799     027E  0CA2               	rrf	(??___flmul^(0+384)+1),f
  2800     027F  0CA1               	rrf	??___flmul^(0+384),f
  2801     0280                     u6100:
  2802     0280  3EFF               	addlw	-1
  2803     0281  1D03               	skipz
  2804     0282  2A7B               	goto	u6105
  2805     0283  0821               	movf	??___flmul^(0+384),w
  2806     0284  07AD               	addwf	___flmul@prod^(0+384),f
  2807     0285  0822               	movf	(??___flmul+1)^(0+384),w
  2808     0286  1103               	clrz
  2809     0287  1803               	skipnc
  2810     0288  3E01               	addlw	1
  2811     0289  1903               	skipnz
  2812     028A  2A8C               	goto	u6111
  2813     028B  07AE               	addwf	(___flmul@prod+1)^(0+384),f
  2814     028C                     u6111:
  2815     028C  0823               	movf	(??___flmul+2)^(0+384),w
  2816     028D  1103               	clrz
  2817     028E  1803               	skipnc
  2818     028F  3E01               	addlw	1
  2819     0290  1903               	skipnz
  2820     0291  2A93               	goto	u6112
  2821     0292  07AF               	addwf	(___flmul@prod+2)^(0+384),f
  2822     0293                     u6112:
  2823     0293  0824               	movf	(??___flmul+3)^(0+384),w
  2824     0294  1103               	clrz
  2825     0295  1803               	skipnc
  2826     0296  3E01               	addlw	1
  2827     0297  1903               	skipnz
  2828     0298  2A9A               	goto	u6113
  2829     0299  07B0               	addwf	(___flmul@prod+3)^(0+384),f
  2830     029A                     u6113:
  2831     029A                     l3796:
  2832     029A  3008               	movlw	8
  2833     029B  00A1               	movwf	??___flmul^(0+384)
  2834     029C                     u6125:
  2835     029C  1003               	clrc
  2836     029D  0DA8               	rlf	___flmul@grs^(0+384),f
  2837     029E  0DA9               	rlf	(___flmul@grs+1)^(0+384),f
  2838     029F  0DAA               	rlf	(___flmul@grs+2)^(0+384),f
  2839     02A0  0DAB               	rlf	(___flmul@grs+3)^(0+384),f
  2840     02A1  0BA1               	decfsz	??___flmul^(0+384),f
  2841     02A2  2A9C               	goto	u6125
  2842     02A3                     l3798:
  2843     02A3  082C               	movf	___flmul@bexp^(0+384),w
  2844     02A4  0727               	addwf	___flmul@aexp^(0+384),w
  2845     02A5  00A1               	movwf	??___flmul^(0+384)
  2846     02A6  01A2               	clrf	(??___flmul^(0+384)+1)
  2847     02A7  0DA2               	rlf	(??___flmul+1)^(0+384),f
  2848     02A8  0821               	movf	??___flmul^(0+384),w
  2849     02A9  3E82               	addlw	130
  2850     02AA  00B1               	movwf	___flmul@temp^(0+384)
  2851     02AB  0822               	movf	(??___flmul+1)^(0+384),w
  2852     02AC  1803               	skipnc
  2853     02AD  3E01               	addlw	1
  2854     02AE  3EFF               	addlw	255
  2855     02AF  00B2               	movwf	(___flmul@temp+1)^(0+384)
  2856     02B0  2ACE               	goto	l3810
  2857     02B1                     l3800:
  2858     02B1  3001               	movlw	1
  2859     02B2  00A1               	movwf	??___flmul^(0+384)
  2860     02B3                     u6135:
  2861     02B3  1003               	clrc
  2862     02B4  0DAD               	rlf	___flmul@prod^(0+384),f
  2863     02B5  0DAE               	rlf	(___flmul@prod+1)^(0+384),f
  2864     02B6  0DAF               	rlf	(___flmul@prod+2)^(0+384),f
  2865     02B7  0DB0               	rlf	(___flmul@prod+3)^(0+384),f
  2866     02B8  0BA1               	decfsz	??___flmul^(0+384),f
  2867     02B9  2AB3               	goto	u6135
  2868     02BA                     l3802:
  2869     02BA  1FAB               	btfss	(___flmul@grs+3)^(0+384),7
  2870     02BB  2ABD               	goto	u6141
  2871     02BC  2ABE               	goto	u6140
  2872     02BD                     u6141:
  2873     02BD  2ABF               	goto	l3806
  2874     02BE                     u6140:
  2875     02BE                     l3804:
  2876     02BE  142D               	bsf	___flmul@prod^(0+384),0
  2877     02BF                     l3806:
  2878     02BF  3001               	movlw	1
  2879     02C0  00A1               	movwf	??___flmul^(0+384)
  2880     02C1                     u6155:
  2881     02C1  1003               	clrc
  2882     02C2  0DA8               	rlf	___flmul@grs^(0+384),f
  2883     02C3  0DA9               	rlf	(___flmul@grs+1)^(0+384),f
  2884     02C4  0DAA               	rlf	(___flmul@grs+2)^(0+384),f
  2885     02C5  0DAB               	rlf	(___flmul@grs+3)^(0+384),f
  2886     02C6  0BA1               	decfsz	??___flmul^(0+384),f
  2887     02C7  2AC1               	goto	u6155
  2888     02C8                     l3808:
  2889     02C8  30FF               	movlw	255
  2890     02C9  07B1               	addwf	___flmul@temp^(0+384),f
  2891     02CA  1803               	skipnc
  2892     02CB  0AB2               	incf	(___flmul@temp+1)^(0+384),f
  2893     02CC  30FF               	movlw	255
  2894     02CD  07B2               	addwf	(___flmul@temp+1)^(0+384),f
  2895     02CE                     l3810:
  2896     02CE  1FAF               	btfss	(___flmul@prod+2)^(0+384),7
  2897     02CF  2AD1               	goto	u6161
  2898     02D0  2AD2               	goto	u6160
  2899     02D1                     u6161:
  2900     02D1  2AB1               	goto	l3800
  2901     02D2                     u6160:
  2902     02D2                     l3812:
  2903     02D2  01A7               	clrf	___flmul@aexp^(0+384)
  2904     02D3                     l3814:
  2905     02D3  1FAB               	btfss	(___flmul@grs+3)^(0+384),7
  2906     02D4  2AD6               	goto	u6171
  2907     02D5  2AD7               	goto	u6170
  2908     02D6                     u6171:
  2909     02D6  2AF3               	goto	l3822
  2910     02D7                     u6170:
  2911     02D7                     l3816:
  2912     02D7  30FF               	movlw	255
  2913     02D8  0528               	andwf	___flmul@grs^(0+384),w
  2914     02D9  00A1               	movwf	??___flmul^(0+384)
  2915     02DA  30FF               	movlw	255
  2916     02DB  0529               	andwf	(___flmul@grs+1)^(0+384),w
  2917     02DC  00A2               	movwf	(??___flmul^(0+384)+1)
  2918     02DD  30FF               	movlw	255
  2919     02DE  052A               	andwf	(___flmul@grs+2)^(0+384),w
  2920     02DF  00A3               	movwf	(??___flmul^(0+384)+2)
  2921     02E0  307F               	movlw	127
  2922     02E1  052B               	andwf	(___flmul@grs+3)^(0+384),w
  2923     02E2  00A4               	movwf	(??___flmul^(0+384)+3)
  2924     02E3  0824               	movf	(??___flmul+3)^(0+384),w
  2925     02E4  0423               	iorwf	(??___flmul+2)^(0+384),w
  2926     02E5  0422               	iorwf	(??___flmul+1)^(0+384),w
  2927     02E6  0421               	iorwf	??___flmul^(0+384),w
  2928     02E7  1903               	skipnz
  2929     02E8  2AEA               	goto	u6181
  2930     02E9  2AEB               	goto	u6180
  2931     02EA                     u6181:
  2932     02EA  2AEE               	goto	l767
  2933     02EB                     u6180:
  2934     02EB                     l3818:
  2935     02EB  01A7               	clrf	___flmul@aexp^(0+384)
  2936     02EC  0AA7               	incf	___flmul@aexp^(0+384),f
  2937     02ED  2AF3               	goto	l3822
  2938     02EE                     l767:
  2939     02EE  1C2D               	btfss	___flmul@prod^(0+384),0
  2940     02EF  2AF1               	goto	u6191
  2941     02F0  2AF2               	goto	u6190
  2942     02F1                     u6191:
  2943     02F1  2AF3               	goto	l3822
  2944     02F2                     u6190:
  2945     02F2  2AEB               	goto	l3818
  2946     02F3                     l3822:
  2947     02F3  0827               	movf	___flmul@aexp^(0+384),w
  2948     02F4  1903               	btfsc	3,2
  2949     02F5  2AF7               	goto	u6201
  2950     02F6  2AF8               	goto	u6200
  2951     02F7                     u6201:
  2952     02F7  2B29               	goto	l3832
  2953     02F8                     u6200:
  2954     02F8                     l3824:
  2955     02F8  3001               	movlw	1
  2956     02F9  07AD               	addwf	___flmul@prod^(0+384),f
  2957     02FA  3000               	movlw	0
  2958     02FB  1803               	skipnc
  2959     02FC  3001               	movlw	1
  2960     02FD  07AE               	addwf	(___flmul@prod+1)^(0+384),f
  2961     02FE  3000               	movlw	0
  2962     02FF  1803               	skipnc
  2963     0300  3001               	movlw	1
  2964     0301  07AF               	addwf	(___flmul@prod+2)^(0+384),f
  2965     0302  3000               	movlw	0
  2966     0303  1803               	skipnc
  2967     0304  3001               	movlw	1
  2968     0305  07B0               	addwf	(___flmul@prod+3)^(0+384),f
  2969     0306                     l3826:
  2970     0306  1C30               	btfss	(___flmul@prod+3)^(0+384),0
  2971     0307  2B09               	goto	u6211
  2972     0308  2B0A               	goto	u6210
  2973     0309                     u6211:
  2974     0309  2B29               	goto	l3832
  2975     030A                     u6210:
  2976     030A                     l3828:
  2977     030A  082D               	movf	___flmul@prod^(0+384),w
  2978     030B  00A1               	movwf	??___flmul^(0+384)
  2979     030C  082E               	movf	(___flmul@prod+1)^(0+384),w
  2980     030D  00A2               	movwf	(??___flmul^(0+384)+1)
  2981     030E  082F               	movf	(___flmul@prod+2)^(0+384),w
  2982     030F  00A3               	movwf	(??___flmul^(0+384)+2)
  2983     0310  0830               	movf	(___flmul@prod+3)^(0+384),w
  2984     0311  00A4               	movwf	(??___flmul^(0+384)+3)
  2985     0312  3001               	movlw	1
  2986     0313  00A5               	movwf	(??___flmul+4)^(0+384)
  2987     0314                     u6225:
  2988     0314  0D24               	rlf	(??___flmul^(0+384)+3),w
  2989     0315  0CA4               	rrf	(??___flmul^(0+384)+3),f
  2990     0316  0CA3               	rrf	(??___flmul^(0+384)+2),f
  2991     0317  0CA2               	rrf	(??___flmul^(0+384)+1),f
  2992     0318  0CA1               	rrf	??___flmul^(0+384),f
  2993     0319                     u6220:
  2994     0319  0BA5               	decfsz	(??___flmul+4)^(0+384),f
  2995     031A  2B14               	goto	u6225
  2996     031B  0824               	movf	(??___flmul+3)^(0+384),w
  2997     031C  00B0               	movwf	(___flmul@prod+3)^(0+384)
  2998     031D  0823               	movf	(??___flmul+2)^(0+384),w
  2999     031E  00AF               	movwf	(___flmul@prod+2)^(0+384)
  3000     031F  0822               	movf	(??___flmul+1)^(0+384),w
  3001     0320  00AE               	movwf	(___flmul@prod+1)^(0+384)
  3002     0321  0821               	movf	??___flmul^(0+384),w
  3003     0322  00AD               	movwf	___flmul@prod^(0+384)
  3004     0323                     l3830:
  3005     0323  3001               	movlw	1
  3006     0324  07B1               	addwf	___flmul@temp^(0+384),f
  3007     0325  1803               	skipnc
  3008     0326  0AB2               	incf	(___flmul@temp+1)^(0+384),f
  3009     0327  3000               	movlw	0
  3010     0328  07B2               	addwf	(___flmul@temp+1)^(0+384),f
  3011     0329                     l3832:
  3012     0329  0832               	movf	(___flmul@temp+1)^(0+384),w
  3013     032A  3A80               	xorlw	128
  3014     032B  00FF               	movwf	btemp+1
  3015     032C  3080               	movlw	128
  3016     032D  027F               	subwf	btemp+1,w
  3017     032E  1D03               	skipz
  3018     032F  2B32               	goto	u6235
  3019     0330  30FF               	movlw	255
  3020     0331  0231               	subwf	___flmul@temp^(0+384),w
  3021     0332                     u6235:
  3022     0332  1C03               	skipc
  3023     0333  2B35               	goto	u6231
  3024     0334  2B36               	goto	u6230
  3025     0335                     u6231:
  3026     0335  2B41               	goto	l3836
  3027     0336                     u6230:
  3028     0336                     l3834:
  3029     0336  307F               	movlw	127
  3030     0337  1683               	bsf	3,5	;RP0=1, select bank3
  3031     0338  1703               	bsf	3,6	;RP1=1, select bank3
  3032     0339  00B0               	movwf	(___flmul@prod+3)^(0+384)
  3033     033A  3080               	movlw	128
  3034     033B  00AF               	movwf	(___flmul@prod+2)^(0+384)
  3035     033C  3000               	movlw	0
  3036     033D  00AE               	movwf	(___flmul@prod+1)^(0+384)
  3037     033E  3000               	movlw	0
  3038     033F  00AD               	movwf	___flmul@prod^(0+384)
  3039     0340  2B72               	goto	l773
  3040     0341                     l3836:
  3041     0341  1683               	bsf	3,5	;RP0=1, select bank3
  3042     0342  1703               	bsf	3,6	;RP1=1, select bank3
  3043     0343  0832               	movf	(___flmul@temp+1)^(0+384),w
  3044     0344  3A80               	xorlw	128
  3045     0345  00FF               	movwf	btemp+1
  3046     0346  3080               	movlw	128
  3047     0347  027F               	subwf	btemp+1,w
  3048     0348  1D03               	skipz
  3049     0349  2B4C               	goto	u6245
  3050     034A  3001               	movlw	1
  3051     034B  0231               	subwf	___flmul@temp^(0+384),w
  3052     034C                     u6245:
  3053     034C  1803               	skipnc
  3054     034D  2B4F               	goto	u6241
  3055     034E  2B50               	goto	u6240
  3056     034F                     u6241:
  3057     034F  2B5C               	goto	l3842
  3058     0350                     u6240:
  3059     0350                     l3838:
  3060     0350  3000               	movlw	0
  3061     0351  1683               	bsf	3,5	;RP0=1, select bank3
  3062     0352  1703               	bsf	3,6	;RP1=1, select bank3
  3063     0353  00B0               	movwf	(___flmul@prod+3)^(0+384)
  3064     0354  3000               	movlw	0
  3065     0355  00AF               	movwf	(___flmul@prod+2)^(0+384)
  3066     0356  3000               	movlw	0
  3067     0357  00AE               	movwf	(___flmul@prod+1)^(0+384)
  3068     0358  3000               	movlw	0
  3069     0359  00AD               	movwf	___flmul@prod^(0+384)
  3070     035A                     l3840:
  3071     035A  01A6               	clrf	___flmul@sign^(0+384)
  3072     035B  2B72               	goto	l773
  3073     035C                     l3842:
  3074     035C  1683               	bsf	3,5	;RP0=1, select bank3
  3075     035D  1703               	bsf	3,6	;RP1=1, select bank3
  3076     035E  0831               	movf	___flmul@temp^(0+384),w
  3077     035F  00AC               	movwf	___flmul@bexp^(0+384)
  3078     0360  30FF               	movlw	255
  3079     0361  05AD               	andwf	___flmul@prod^(0+384),f
  3080     0362  30FF               	movlw	255
  3081     0363  05AE               	andwf	(___flmul@prod+1)^(0+384),f
  3082     0364  307F               	movlw	127
  3083     0365  05AF               	andwf	(___flmul@prod+2)^(0+384),f
  3084     0366  3000               	movlw	0
  3085     0367  05B0               	andwf	(___flmul@prod+3)^(0+384),f
  3086     0368                     l3844:
  3087     0368  1C2C               	btfss	___flmul@bexp^(0+384),0
  3088     0369  2B6B               	goto	u6251
  3089     036A  2B6C               	goto	u6250
  3090     036B                     u6251:
  3091     036B  2B6D               	goto	l3848
  3092     036C                     u6250:
  3093     036C                     l3846:
  3094     036C  17AF               	bsf	(___flmul@prod^(0+384)+2),7
  3095     036D                     l3848:
  3096     036D  082C               	movf	___flmul@bexp^(0+384),w
  3097     036E  00A1               	movwf	??___flmul^(0+384)
  3098     036F  1003               	clrc
  3099     0370  0C21               	rrf	??___flmul^(0+384),w
  3100     0371  00B0               	movwf	(___flmul@prod^(0+384)+3)
  3101     0372                     l773:
  3102     0372  0826               	movf	___flmul@sign^(0+384),w
  3103     0373  00A1               	movwf	??___flmul^(0+384)
  3104     0374  0821               	movf	??___flmul^(0+384),w
  3105     0375  04B0               	iorwf	(___flmul@prod^(0+384)+3),f
  3106     0376                     l3850:
  3107     0376  0830               	movf	(___flmul@prod+3)^(0+384),w
  3108     0377  009C               	movwf	(?___flmul+3)^(0+384)
  3109     0378  082F               	movf	(___flmul@prod+2)^(0+384),w
  3110     0379  009B               	movwf	(?___flmul+2)^(0+384)
  3111     037A  082E               	movf	(___flmul@prod+1)^(0+384),w
  3112     037B  009A               	movwf	(?___flmul+1)^(0+384)
  3113     037C  082D               	movf	___flmul@prod^(0+384),w
  3114     037D  0099               	movwf	?___flmul^(0+384)
  3115     037E                     l761:
  3116     037E  0008               	return
  3117     037F                     __end_of___flmul:
  3118                           
  3119                           	psect	text4
  3120     1EF2                     __ptext4:	
  3121 ;; *************** function __Umul8_16 *****************
  3122 ;; Defined at:
  3123 ;;		line 4 in file "C:\Program Files\Microchip\xc8\v2.40\pic\sources\c90\common\Umul8_16.c"
  3124 ;; Parameters:    Size  Location     Type
  3125 ;;  multiplier      1    wreg     unsigned char 
  3126 ;;  multiplicand    1    0[BANK3 ] unsigned char 
  3127 ;; Auto vars:     Size  Location     Type
  3128 ;;  multiplier      1    8[BANK3 ] unsigned char 
  3129 ;;  word_mpld       2    6[BANK3 ] unsigned int 
  3130 ;;  product         2    4[BANK3 ] unsigned int 
  3131 ;; Return value:  Size  Location     Type
  3132 ;;                  2    0[BANK3 ] unsigned int 
  3133 ;; Registers used:
  3134 ;;		wreg, status,2, status,0
  3135 ;; Tracked objects:
  3136 ;;		On entry : 0/0
  3137 ;;		On exit  : 0/0
  3138 ;;		Unchanged: 0/0
  3139 ;; Data sizes:     COMMON   BANK0   BANK1   BANK3   BANK2
  3140 ;;      Params:         0       0       0       2       0
  3141 ;;      Locals:         0       0       0       5       0
  3142 ;;      Temps:          0       0       0       2       0
  3143 ;;      Totals:         0       0       0       9       0
  3144 ;;Total ram usage:        9 bytes
  3145 ;; Hardware stack levels used: 1
  3146 ;; Hardware stack levels required when called: 5
  3147 ;; This function calls:
  3148 ;;		Nothing
  3149 ;; This function is called by:
  3150 ;;		___flmul
  3151 ;; This function uses a non-reentrant model
  3152 ;;
  3153                           
  3154     1EF2                     __Umul8_16:	
  3155                           ;psect for function __Umul8_16
  3156                           
  3157                           
  3158                           ;incstack = 0
  3159 ;; hardware stack exceeded
  3160                           ; Regs used in __Umul8_16: [wreg+status,2+status,0]
  3161                           ;__Umul8_16@multiplier stored from wreg
  3162     1EF2  1683               	bsf	3,5	;RP0=1, select bank3
  3163     1EF3  1703               	bsf	3,6	;RP1=1, select bank3
  3164     1EF4  0098               	movwf	__Umul8_16@multiplier^(0+384)
  3165     1EF5                     l3522:
  3166     1EF5  0194               	clrf	__Umul8_16@product^(0+384)
  3167     1EF6  0195               	clrf	(__Umul8_16@product+1)^(0+384)
  3168     1EF7                     l3524:
  3169     1EF7  0810               	movf	__Umul8_16@multiplicand^(0+384),w
  3170     1EF8  0092               	movwf	??__Umul8_16^(0+384)
  3171     1EF9  0193               	clrf	(??__Umul8_16^(0+384)+1)
  3172     1EFA  0812               	movf	??__Umul8_16^(0+384),w
  3173     1EFB  0096               	movwf	__Umul8_16@word_mpld^(0+384)
  3174     1EFC  0813               	movf	(??__Umul8_16+1)^(0+384),w
  3175     1EFD  0097               	movwf	(__Umul8_16@word_mpld+1)^(0+384)
  3176     1EFE                     l3526:
  3177     1EFE  1C18               	btfss	__Umul8_16@multiplier^(0+384),0
  3178     1EFF  2F01               	goto	u5471
  3179     1F00  2F02               	goto	u5470
  3180     1F01                     u5471:
  3181     1F01  2F08               	goto	l780
  3182     1F02                     u5470:
  3183     1F02                     l3528:
  3184     1F02  0816               	movf	__Umul8_16@word_mpld^(0+384),w
  3185     1F03  0794               	addwf	__Umul8_16@product^(0+384),f
  3186     1F04  1803               	skipnc
  3187     1F05  0A95               	incf	(__Umul8_16@product+1)^(0+384),f
  3188     1F06  0817               	movf	(__Umul8_16@word_mpld+1)^(0+384),w
  3189     1F07  0795               	addwf	(__Umul8_16@product+1)^(0+384),f
  3190     1F08                     l780:
  3191     1F08  3001               	movlw	1
  3192     1F09                     u5485:
  3193     1F09  1003               	clrc
  3194     1F0A  0D96               	rlf	__Umul8_16@word_mpld^(0+384),f
  3195     1F0B  0D97               	rlf	(__Umul8_16@word_mpld+1)^(0+384),f
  3196     1F0C  3EFF               	addlw	-1
  3197     1F0D  1D03               	skipz
  3198     1F0E  2F09               	goto	u5485
  3199     1F0F  1003               	clrc
  3200     1F10  0C98               	rrf	__Umul8_16@multiplier^(0+384),f
  3201     1F11                     l3530:
  3202     1F11  0818               	movf	__Umul8_16@multiplier^(0+384),w
  3203     1F12  1D03               	btfss	3,2
  3204     1F13  2F15               	goto	u5491
  3205     1F14  2F16               	goto	u5490
  3206     1F15                     u5491:
  3207     1F15  2EFE               	goto	l3526
  3208     1F16                     u5490:
  3209     1F16                     l3532:
  3210     1F16  0815               	movf	(__Umul8_16@product+1)^(0+384),w
  3211     1F17  0091               	movwf	(?__Umul8_16+1)^(0+384)
  3212     1F18  0814               	movf	__Umul8_16@product^(0+384),w
  3213     1F19  0090               	movwf	?__Umul8_16^(0+384)
  3214     1F1A                     l782:
  3215     1F1A  0008               	return
  3216     1F1B                     __end_of__Umul8_16:
  3217                           
  3218                           	psect	text5
  3219     1F1B                     __ptext5:	
  3220 ;; *************** function _PWM_config *****************
  3221 ;; Defined at:
  3222 ;;		line 5 in file "PWM_SERVO1.c"
  3223 ;; Parameters:    Size  Location     Type
  3224 ;;  canal           1    wreg     unsigned char 
  3225 ;;  periodo_ms      4   71[BANK3 ] float 
  3226 ;; Auto vars:     Size  Location     Type
  3227 ;;  canal           1   75[BANK3 ] unsigned char 
  3228 ;; Return value:  Size  Location     Type
  3229 ;;                  1    wreg      void 
  3230 ;; Registers used:
  3231 ;;		wreg, status,2, status,0, btemp+1, pclath, cstack
  3232 ;; Tracked objects:
  3233 ;;		On entry : 0/0
  3234 ;;		On exit  : 0/0
  3235 ;;		Unchanged: 0/0
  3236 ;; Data sizes:     COMMON   BANK0   BANK1   BANK3   BANK2
  3237 ;;      Params:         0       0       0       4       0
  3238 ;;      Locals:         0       0       0       1       0
  3239 ;;      Temps:          0       0       0       0       0
  3240 ;;      Totals:         0       0       0       5       0
  3241 ;;Total ram usage:        5 bytes
  3242 ;; Hardware stack levels used: 1
  3243 ;; Hardware stack levels required when called: 6
  3244 ;; This function calls:
  3245 ;;		___fldiv
  3246 ;;		___fltol
  3247 ;; This function is called by:
  3248 ;;		_setup
  3249 ;; This function uses a non-reentrant model
  3250 ;;
  3251                           
  3252     1F1B                     _PWM_config:	
  3253                           ;psect for function _PWM_config
  3254                           
  3255                           
  3256                           ;incstack = 0
  3257                           ; Regs used in _PWM_config: [wreg+status,2+status,0+btemp+1+pclath+cstack]
  3258                           ;PWM_config@canal stored from wreg
  3259     1F1B  1683               	bsf	3,5	;RP0=1, select bank3
  3260     1F1C  1703               	bsf	3,6	;RP1=1, select bank3
  3261     1F1D  00DB               	movwf	PWM_config@canal^(0+384)
  3262     1F1E                     l3876:
  3263                           
  3264                           ;PWM_SERVO1.c: 6:     PR2 = (char) (periodo_ms/(4*(1.0f/4000000)*16));
  3265     1F1E  085A               	movf	(PWM_config@periodo_ms+3)^(0+384),w
  3266     1F1F  00BA               	movwf	(___fldiv@b+3)^(0+384)
  3267     1F20  0859               	movf	(PWM_config@periodo_ms+2)^(0+384),w
  3268     1F21  00B9               	movwf	(___fldiv@b+2)^(0+384)
  3269     1F22  0858               	movf	(PWM_config@periodo_ms+1)^(0+384),w
  3270     1F23  00B8               	movwf	(___fldiv@b+1)^(0+384)
  3271     1F24  0857               	movf	PWM_config@periodo_ms^(0+384),w
  3272     1F25  00B7               	movwf	___fldiv@b^(0+384)
  3273     1F26  3037               	movlw	55
  3274     1F27  00B6               	movwf	(___fldiv@a+3)^(0+384)
  3275     1F28  3086               	movlw	134
  3276     1F29  00B5               	movwf	(___fldiv@a+2)^(0+384)
  3277     1F2A  3037               	movlw	55
  3278     1F2B  00B4               	movwf	(___fldiv@a+1)^(0+384)
  3279     1F2C  30BD               	movlw	189
  3280     1F2D  00B3               	movwf	___fldiv@a^(0+384)
  3281     1F2E  120A  158A  20C2  160A  158A  	fcall	___fldiv
  3282     1F33  1683               	bsf	3,5	;RP0=1, select bank3
  3283     1F34  1703               	bsf	3,6	;RP1=1, select bank3
  3284     1F35  0836               	movf	(?___fldiv+3)^(0+384),w
  3285     1F36  00D0               	movwf	(___fltol@f1+3)^(0+384)
  3286     1F37  0835               	movf	(?___fldiv+2)^(0+384),w
  3287     1F38  00CF               	movwf	(___fltol@f1+2)^(0+384)
  3288     1F39  0834               	movf	(?___fldiv+1)^(0+384),w
  3289     1F3A  00CE               	movwf	(___fltol@f1+1)^(0+384)
  3290     1F3B  0833               	movf	?___fldiv^(0+384),w
  3291     1F3C  00CD               	movwf	___fltol@f1^(0+384)
  3292     1F3D  160A  118A  2051  160A  158A  	fcall	___fltol
  3293     1F42  1683               	bsf	3,5	;RP0=1, select bank3
  3294     1F43  1703               	bsf	3,6	;RP1=1, select bank3
  3295     1F44  084D               	movf	?___fltol^(0+384),w
  3296     1F45  1683               	bsf	3,5	;RP0=1, select bank1
  3297     1F46  1303               	bcf	3,6	;RP1=0, select bank1
  3298     1F47  0092               	movwf	18	;volatile
  3299     1F48                     l3878:
  3300                           
  3301                           ;PWM_SERVO1.c: 7:     if (canal == 1){
  3302     1F48  1683               	bsf	3,5	;RP0=1, select bank3
  3303     1F49  1703               	bsf	3,6	;RP1=1, select bank3
  3304     1F4A  035B               	decf	PWM_config@canal^(0+384),w
  3305     1F4B  1D03               	btfss	3,2
  3306     1F4C  2F4E               	goto	u6281
  3307     1F4D  2F4F               	goto	u6280
  3308     1F4E                     u6281:
  3309     1F4E  2F5F               	goto	l3890
  3310     1F4F                     u6280:
  3311     1F4F                     l3880:
  3312                           
  3313                           ;PWM_SERVO1.c: 8:         TRISCbits.TRISC2 = 1;
  3314     1F4F  1683               	bsf	3,5	;RP0=1, select bank1
  3315     1F50  1303               	bcf	3,6	;RP1=0, select bank1
  3316     1F51  1507               	bsf	7,2	;volatile
  3317     1F52                     l3882:
  3318                           
  3319                           ;PWM_SERVO1.c: 9:         CCP1CONbits.P1M = 0;
  3320     1F52  303F               	movlw	-193
  3321     1F53  1283               	bcf	3,5	;RP0=0, select bank0
  3322     1F54  1303               	bcf	3,6	;RP1=0, select bank0
  3323     1F55  0597               	andwf	23,f	;volatile
  3324                           
  3325                           ;PWM_SERVO1.c: 10:         CCP1CONbits.CCP1M = 0b1101;
  3326     1F56  0817               	movf	23,w	;volatile
  3327     1F57  39F0               	andlw	-16
  3328     1F58  380D               	iorlw	13
  3329     1F59  0097               	movwf	23	;volatile
  3330     1F5A                     l3884:
  3331                           
  3332                           ;PWM_SERVO1.c: 11:         CCPR1L = 255;
  3333     1F5A  30FF               	movlw	255
  3334     1F5B  0095               	movwf	21	;volatile
  3335     1F5C                     l3886:
  3336                           
  3337                           ;PWM_SERVO1.c: 12:         CCP1CONbits.DC1B0 = 0;
  3338     1F5C  1217               	bcf	23,4	;volatile
  3339     1F5D                     l3888:
  3340                           
  3341                           ;PWM_SERVO1.c: 13:         CCP1CONbits.DC1B1 = 0;
  3342     1F5D  1297               	bcf	23,5	;volatile
  3343                           
  3344                           ;PWM_SERVO1.c: 14:     }
  3345     1F5E  2F6F               	goto	l3902
  3346     1F5F                     l3890:
  3347     1F5F  3002               	movlw	2
  3348     1F60  065B               	xorwf	PWM_config@canal^(0+384),w
  3349     1F61  1D03               	btfss	3,2
  3350     1F62  2F64               	goto	u6291
  3351     1F63  2F65               	goto	u6290
  3352     1F64                     u6291:
  3353     1F64  2F6F               	goto	l3902
  3354     1F65                     u6290:
  3355     1F65                     l3892:
  3356                           
  3357                           ;PWM_SERVO1.c: 16:         TRISCbits.TRISC1 = 1;
  3358     1F65  1683               	bsf	3,5	;RP0=1, select bank1
  3359     1F66  1303               	bcf	3,6	;RP1=0, select bank1
  3360     1F67  1487               	bsf	7,1	;volatile
  3361     1F68                     l3894:
  3362                           
  3363                           ;PWM_SERVO1.c: 18:         CCP2CONbits.CCP2M = 0b1111;
  3364     1F68  300F               	movlw	15
  3365     1F69  1283               	bcf	3,5	;RP0=0, select bank0
  3366     1F6A  1303               	bcf	3,6	;RP1=0, select bank0
  3367     1F6B  049D               	iorwf	29,f	;volatile
  3368     1F6C                     l3896:
  3369                           
  3370                           ;PWM_SERVO1.c: 19:         CCPR2L = 0;
  3371     1F6C  019B               	clrf	27	;volatile
  3372     1F6D                     l3898:
  3373                           
  3374                           ;PWM_SERVO1.c: 20:         CCP2CONbits.DC2B0 = 0;
  3375     1F6D  121D               	bcf	29,4	;volatile
  3376     1F6E                     l3900:
  3377                           
  3378                           ;PWM_SERVO1.c: 21:         CCP2CONbits.DC2B1 = 0;
  3379     1F6E  129D               	bcf	29,5	;volatile
  3380     1F6F                     l3902:
  3381                           
  3382                           ;PWM_SERVO1.c: 23:     PIR1bits.TMR2IF = 0;
  3383     1F6F  1283               	bcf	3,5	;RP0=0, select bank0
  3384     1F70  1303               	bcf	3,6	;RP1=0, select bank0
  3385     1F71  108C               	bcf	12,1	;volatile
  3386     1F72                     l3904:
  3387                           
  3388                           ;PWM_SERVO1.c: 24:     T2CONbits.T2CKPS = 0b11;
  3389     1F72  3003               	movlw	3
  3390     1F73  0492               	iorwf	18,f	;volatile
  3391     1F74                     l3906:
  3392                           
  3393                           ;PWM_SERVO1.c: 25:     T2CONbits.TMR2ON = 1;
  3394     1F74  1512               	bsf	18,2	;volatile
  3395     1F75                     l275:	
  3396                           ;PWM_SERVO1.c: 26:     while(PIR1bits.TMR2IF == 0);
  3397                           
  3398     1F75  1C8C               	btfss	12,1	;volatile
  3399     1F76  2F78               	goto	u6301
  3400     1F77  2F79               	goto	u6300
  3401     1F78                     u6301:
  3402     1F78  2F75               	goto	l275
  3403     1F79                     u6300:
  3404     1F79                     l277:
  3405                           
  3406                           ;PWM_SERVO1.c: 27:     PIR1bits.TMR2IF = 0;
  3407     1F79  108C               	bcf	12,1	;volatile
  3408     1F7A                     l3908:
  3409                           
  3410                           ;PWM_SERVO1.c: 28:     if (canal == 1)
  3411     1F7A  1683               	bsf	3,5	;RP0=1, select bank3
  3412     1F7B  1703               	bsf	3,6	;RP1=1, select bank3
  3413     1F7C  035B               	decf	PWM_config@canal^(0+384),w
  3414     1F7D  1D03               	btfss	3,2
  3415     1F7E  2F80               	goto	u6311
  3416     1F7F  2F81               	goto	u6310
  3417     1F80                     u6311:
  3418     1F80  2F85               	goto	l278
  3419     1F81                     u6310:
  3420     1F81                     l3910:
  3421                           
  3422                           ;PWM_SERVO1.c: 29:         TRISCbits.TRISC2 = 0;
  3423     1F81  1683               	bsf	3,5	;RP0=1, select bank1
  3424     1F82  1303               	bcf	3,6	;RP1=0, select bank1
  3425     1F83  1107               	bcf	7,2	;volatile
  3426     1F84  2F88               	goto	l280
  3427     1F85                     l278:	
  3428                           ;PWM_SERVO1.c: 30:     else
  3429                           
  3430                           
  3431                           ;PWM_SERVO1.c: 31:         TRISCbits.TRISC1 = 0;
  3432     1F85  1683               	bsf	3,5	;RP0=1, select bank1
  3433     1F86  1303               	bcf	3,6	;RP1=0, select bank1
  3434     1F87  1087               	bcf	7,1	;volatile
  3435     1F88                     l280:
  3436     1F88  0008               	return
  3437     1F89                     __end_of_PWM_config:
  3438                           
  3439                           	psect	text6
  3440     1051                     __ptext6:	
  3441 ;; *************** function ___fltol *****************
  3442 ;; Defined at:
  3443 ;;		line 43 in file "C:\Program Files\Microchip\xc8\v2.40\pic\sources\c90\common\fltol.c"
  3444 ;; Parameters:    Size  Location     Type
  3445 ;;  f1              4   61[BANK3 ] void 
  3446 ;; Auto vars:     Size  Location     Type
  3447 ;;  exp1            1   70[BANK3 ] unsigned char 
  3448 ;;  sign1           1   69[BANK3 ] unsigned char 
  3449 ;; Return value:  Size  Location     Type
  3450 ;;                  4   61[BANK3 ] long 
  3451 ;; Registers used:
  3452 ;;		wreg, status,2, status,0
  3453 ;; Tracked objects:
  3454 ;;		On entry : 0/0
  3455 ;;		On exit  : 0/0
  3456 ;;		Unchanged: 0/0
  3457 ;; Data sizes:     COMMON   BANK0   BANK1   BANK3   BANK2
  3458 ;;      Params:         0       0       0       4       0
  3459 ;;      Locals:         0       0       0       2       0
  3460 ;;      Temps:          0       0       0       4       0
  3461 ;;      Totals:         0       0       0      10       0
  3462 ;;Total ram usage:       10 bytes
  3463 ;; Hardware stack levels used: 1
  3464 ;; Hardware stack levels required when called: 5
  3465 ;; This function calls:
  3466 ;;		Nothing
  3467 ;; This function is called by:
  3468 ;;		_PWM_config
  3469 ;;		_PWM_duty
  3470 ;; This function uses a non-reentrant model
  3471 ;;
  3472                           
  3473     1051                     ___fltol:	
  3474                           ;psect for function ___fltol
  3475                           
  3476     1051                     l3536:	
  3477                           ;incstack = 0
  3478                           ; Regs used in ___fltol: [wreg+status,2+status,0]
  3479                           
  3480     1051  1003               	clrc
  3481     1052  1683               	bsf	3,5	;RP0=1, select bank3
  3482     1053  1703               	bsf	3,6	;RP1=1, select bank3
  3483     1054  0D4F               	rlf	(___fltol@f1+2)^(0+384),w
  3484     1055  0D50               	rlf	(___fltol@f1+3)^(0+384),w
  3485     1056  00D6               	movwf	___fltol@exp1^(0+384)
  3486     1057  0856               	movf	___fltol@exp1^(0+384),w
  3487     1058  1D03               	btfss	3,2
  3488     1059  285B               	goto	u5501
  3489     105A  285C               	goto	u5500
  3490     105B                     u5501:
  3491     105B  2865               	goto	l3542
  3492     105C                     u5500:
  3493     105C                     l3538:
  3494     105C  3000               	movlw	0
  3495     105D  00D0               	movwf	(?___fltol+3)^(0+384)
  3496     105E  3000               	movlw	0
  3497     105F  00CF               	movwf	(?___fltol+2)^(0+384)
  3498     1060  3000               	movlw	0
  3499     1061  00CE               	movwf	(?___fltol+1)^(0+384)
  3500     1062  3000               	movlw	0
  3501     1063  00CD               	movwf	?___fltol^(0+384)
  3502     1064  28C8               	goto	l558
  3503     1065                     l3542:
  3504     1065  084D               	movf	___fltol@f1^(0+384),w
  3505     1066  00D1               	movwf	??___fltol^(0+384)
  3506     1067  084E               	movf	(___fltol@f1+1)^(0+384),w
  3507     1068  00D2               	movwf	(??___fltol^(0+384)+1)
  3508     1069  084F               	movf	(___fltol@f1+2)^(0+384),w
  3509     106A  00D3               	movwf	(??___fltol^(0+384)+2)
  3510     106B  0850               	movf	(___fltol@f1+3)^(0+384),w
  3511     106C  00D4               	movwf	(??___fltol^(0+384)+3)
  3512     106D  301F               	movlw	31
  3513     106E                     u5515:
  3514     106E  1003               	clrc
  3515     106F  0CD4               	rrf	(??___fltol^(0+384)+3),f
  3516     1070  0CD3               	rrf	(??___fltol^(0+384)+2),f
  3517     1071  0CD2               	rrf	(??___fltol^(0+384)+1),f
  3518     1072  0CD1               	rrf	??___fltol^(0+384),f
  3519     1073                     u5510:
  3520     1073  3EFF               	addlw	-1
  3521     1074  1D03               	skipz
  3522     1075  286E               	goto	u5515
  3523     1076  0851               	movf	??___fltol^(0+384),w
  3524     1077  00D5               	movwf	___fltol@sign1^(0+384)
  3525     1078                     l3544:
  3526     1078  17CF               	bsf	(___fltol@f1^(0+384)+2),7
  3527     1079                     l3546:
  3528     1079  30FF               	movlw	255
  3529     107A  05CD               	andwf	___fltol@f1^(0+384),f
  3530     107B  30FF               	movlw	255
  3531     107C  05CE               	andwf	(___fltol@f1+1)^(0+384),f
  3532     107D  30FF               	movlw	255
  3533     107E  05CF               	andwf	(___fltol@f1+2)^(0+384),f
  3534     107F  3000               	movlw	0
  3535     1080  05D0               	andwf	(___fltol@f1+3)^(0+384),f
  3536     1081                     l3548:
  3537     1081  3096               	movlw	150
  3538     1082  02D6               	subwf	___fltol@exp1^(0+384),f
  3539     1083                     l3550:
  3540     1083  1FD6               	btfss	___fltol@exp1^(0+384),7
  3541     1084  2886               	goto	u5521
  3542     1085  2887               	goto	u5520
  3543     1086                     u5521:
  3544     1086  28A1               	goto	l3560
  3545     1087                     u5520:
  3546     1087                     l3552:
  3547     1087  0856               	movf	___fltol@exp1^(0+384),w
  3548     1088  3A80               	xorlw	128
  3549     1089  3E97               	addlw	151
  3550     108A  1803               	skipnc
  3551     108B  288D               	goto	u5531
  3552     108C  288E               	goto	u5530
  3553     108D                     u5531:
  3554     108D  288F               	goto	l3558
  3555     108E                     u5530:
  3556     108E  285C               	goto	l3538
  3557     108F                     l3558:
  3558     108F  3001               	movlw	1
  3559     1090                     u5545:
  3560     1090  1003               	clrc
  3561     1091  0CD0               	rrf	(___fltol@f1+3)^(0+384),f
  3562     1092  0CCF               	rrf	(___fltol@f1+2)^(0+384),f
  3563     1093  0CCE               	rrf	(___fltol@f1+1)^(0+384),f
  3564     1094  0CCD               	rrf	___fltol@f1^(0+384),f
  3565     1095  3EFF               	addlw	-1
  3566     1096  1D03               	skipz
  3567     1097  2890               	goto	u5545
  3568     1098  3001               	movlw	1
  3569     1099  00D1               	movwf	??___fltol^(0+384)
  3570     109A  0851               	movf	??___fltol^(0+384),w
  3571     109B  07D6               	addwf	___fltol@exp1^(0+384),f
  3572     109C  1D03               	btfss	3,2
  3573     109D  289F               	goto	u5551
  3574     109E  28A0               	goto	u5550
  3575     109F                     u5551:
  3576     109F  288F               	goto	l3558
  3577     10A0                     u5550:
  3578     10A0  28B8               	goto	l3568
  3579     10A1                     l3560:
  3580     10A1  3020               	movlw	32
  3581     10A2  0256               	subwf	___fltol@exp1^(0+384),w
  3582     10A3  1C03               	skipc
  3583     10A4  28A6               	goto	u5561
  3584     10A5  28A7               	goto	u5560
  3585     10A6                     u5561:
  3586     10A6  28B3               	goto	l565
  3587     10A7                     u5560:
  3588     10A7  285C               	goto	l3538
  3589     10A8                     l3566:
  3590     10A8  3001               	movlw	1
  3591     10A9  00D1               	movwf	??___fltol^(0+384)
  3592     10AA                     u5575:
  3593     10AA  1003               	clrc
  3594     10AB  0DCD               	rlf	___fltol@f1^(0+384),f
  3595     10AC  0DCE               	rlf	(___fltol@f1+1)^(0+384),f
  3596     10AD  0DCF               	rlf	(___fltol@f1+2)^(0+384),f
  3597     10AE  0DD0               	rlf	(___fltol@f1+3)^(0+384),f
  3598     10AF  0BD1               	decfsz	??___fltol^(0+384),f
  3599     10B0  28AA               	goto	u5575
  3600     10B1  3001               	movlw	1
  3601     10B2  02D6               	subwf	___fltol@exp1^(0+384),f
  3602     10B3                     l565:
  3603     10B3  0856               	movf	___fltol@exp1^(0+384),w
  3604     10B4  1D03               	btfss	3,2
  3605     10B5  28B7               	goto	u5581
  3606     10B6  28B8               	goto	u5580
  3607     10B7                     u5581:
  3608     10B7  28A8               	goto	l3566
  3609     10B8                     u5580:
  3610     10B8                     l3568:
  3611     10B8  0855               	movf	___fltol@sign1^(0+384),w
  3612     10B9  1903               	btfsc	3,2
  3613     10BA  28BC               	goto	u5591
  3614     10BB  28BD               	goto	u5590
  3615     10BC                     u5591:
  3616     10BC  28C8               	goto	l568
  3617     10BD                     u5590:
  3618     10BD                     l3570:
  3619     10BD  09CD               	comf	___fltol@f1^(0+384),f
  3620     10BE  09CE               	comf	(___fltol@f1+1)^(0+384),f
  3621     10BF  09CF               	comf	(___fltol@f1+2)^(0+384),f
  3622     10C0  09D0               	comf	(___fltol@f1+3)^(0+384),f
  3623     10C1  0ACD               	incf	___fltol@f1^(0+384),f
  3624     10C2  1903               	skipnz
  3625     10C3  0ACE               	incf	(___fltol@f1+1)^(0+384),f
  3626     10C4  1903               	skipnz
  3627     10C5  0ACF               	incf	(___fltol@f1+2)^(0+384),f
  3628     10C6  1903               	skipnz
  3629     10C7  0AD0               	incf	(___fltol@f1+3)^(0+384),f
  3630     10C8                     l568:
  3631     10C8                     l558:
  3632     10C8  0008               	return
  3633     10C9                     __end_of___fltol:
  3634                           
  3635                           	psect	text7
  3636     08C2                     __ptext7:	
  3637 ;; *************** function ___fldiv *****************
  3638 ;; Defined at:
  3639 ;;		line 8 in file "C:\Program Files\Microchip\xc8\v2.40\pic\sources\c90\common\sprcdiv.c"
  3640 ;; Parameters:    Size  Location     Type
  3641 ;;  a               4   35[BANK3 ] long 
  3642 ;;  b               4   39[BANK3 ] long 
  3643 ;; Auto vars:     Size  Location     Type
  3644 ;;  grs             4   55[BANK3 ] unsigned long 
  3645 ;;  rem             4   48[BANK3 ] unsigned long 
  3646 ;;  new_exp         2   53[BANK3 ] int 
  3647 ;;  aexp            1   60[BANK3 ] unsigned char 
  3648 ;;  bexp            1   59[BANK3 ] unsigned char 
  3649 ;;  sign            1   52[BANK3 ] unsigned char 
  3650 ;; Return value:  Size  Location     Type
  3651 ;;                  4   35[BANK3 ] unsigned char 
  3652 ;; Registers used:
  3653 ;;		wreg, status,2, status,0, btemp+1
  3654 ;; Tracked objects:
  3655 ;;		On entry : 0/0
  3656 ;;		On exit  : 0/0
  3657 ;;		Unchanged: 0/0
  3658 ;; Data sizes:     COMMON   BANK0   BANK1   BANK3   BANK2
  3659 ;;      Params:         0       0       0       8       0
  3660 ;;      Locals:         0       0       0      13       0
  3661 ;;      Temps:          0       0       0       5       0
  3662 ;;      Totals:         0       0       0      26       0
  3663 ;;Total ram usage:       26 bytes
  3664 ;; Hardware stack levels used: 1
  3665 ;; Hardware stack levels required when called: 5
  3666 ;; This function calls:
  3667 ;;		Nothing
  3668 ;; This function is called by:
  3669 ;;		_PWM_config
  3670 ;;		_PWM_duty
  3671 ;; This function uses a non-reentrant model
  3672 ;;
  3673                           
  3674     08C2                     ___fldiv:	
  3675                           ;psect for function ___fldiv
  3676                           
  3677     08C2                     l3572:	
  3678                           ;incstack = 0
  3679                           ; Regs used in ___fldiv: [wreg+status,2+status,0+btemp+1]
  3680                           
  3681     08C2  1683               	bsf	3,5	;RP0=1, select bank3
  3682     08C3  1703               	bsf	3,6	;RP1=1, select bank3
  3683     08C4  083A               	movf	(___fldiv@b^(0+384)+3),w
  3684     08C5  3980               	andlw	128
  3685     08C6  00C4               	movwf	___fldiv@sign^(0+384)
  3686     08C7                     l3574:
  3687     08C7  083A               	movf	(___fldiv@b^(0+384)+3),w
  3688     08C8  00BB               	movwf	??___fldiv^(0+384)
  3689     08C9  073B               	addwf	??___fldiv^(0+384),w
  3690     08CA  00CB               	movwf	___fldiv@bexp^(0+384)
  3691     08CB                     l3576:
  3692     08CB  1FB9               	btfss	(___fldiv@b^(0+384)+2),7
  3693     08CC  28CE               	goto	u5601
  3694     08CD  28CF               	goto	u5600
  3695     08CE                     u5601:
  3696     08CE  28D0               	goto	l3580
  3697     08CF                     u5600:
  3698     08CF                     l3578:
  3699     08CF  144B               	bsf	___fldiv@bexp^(0+384),0
  3700     08D0                     l3580:
  3701     08D0  084B               	movf	___fldiv@bexp^(0+384),w
  3702     08D1  1903               	btfsc	3,2
  3703     08D2  28D4               	goto	u5611
  3704     08D3  28D5               	goto	u5610
  3705     08D4                     u5611:
  3706     08D4  28E5               	goto	l3590
  3707     08D5                     u5610:
  3708     08D5                     l3582:
  3709     08D5  0A4B               	incf	___fldiv@bexp^(0+384),w
  3710     08D6  1D03               	btfss	3,2
  3711     08D7  28D9               	goto	u5621
  3712     08D8  28DA               	goto	u5620
  3713     08D9                     u5621:
  3714     08D9  28E2               	goto	l3586
  3715     08DA                     u5620:
  3716     08DA                     l3584:
  3717     08DA  3000               	movlw	0
  3718     08DB  00BA               	movwf	(___fldiv@b+3)^(0+384)
  3719     08DC  3000               	movlw	0
  3720     08DD  00B9               	movwf	(___fldiv@b+2)^(0+384)
  3721     08DE  3000               	movlw	0
  3722     08DF  00B8               	movwf	(___fldiv@b+1)^(0+384)
  3723     08E0  3000               	movlw	0
  3724     08E1  00B7               	movwf	___fldiv@b^(0+384)
  3725     08E2                     l3586:
  3726     08E2  17B9               	bsf	(___fldiv@b^(0+384)+2),7
  3727     08E3                     l3588:
  3728     08E3  01BA               	clrf	(___fldiv@b^(0+384)+3)
  3729     08E4  28ED               	goto	l3592
  3730     08E5                     l3590:
  3731     08E5  3000               	movlw	0
  3732     08E6  00BA               	movwf	(___fldiv@b+3)^(0+384)
  3733     08E7  3000               	movlw	0
  3734     08E8  00B9               	movwf	(___fldiv@b+2)^(0+384)
  3735     08E9  3000               	movlw	0
  3736     08EA  00B8               	movwf	(___fldiv@b+1)^(0+384)
  3737     08EB  3000               	movlw	0
  3738     08EC  00B7               	movwf	___fldiv@b^(0+384)
  3739     08ED                     l3592:
  3740     08ED  0836               	movf	(___fldiv@a^(0+384)+3),w
  3741     08EE  3980               	andlw	128
  3742     08EF  00BB               	movwf	??___fldiv^(0+384)
  3743     08F0  083B               	movf	??___fldiv^(0+384),w
  3744     08F1  06C4               	xorwf	___fldiv@sign^(0+384),f
  3745     08F2                     l3594:
  3746     08F2  0836               	movf	(___fldiv@a^(0+384)+3),w
  3747     08F3  00BB               	movwf	??___fldiv^(0+384)
  3748     08F4  073B               	addwf	??___fldiv^(0+384),w
  3749     08F5  00CC               	movwf	___fldiv@aexp^(0+384)
  3750     08F6                     l3596:
  3751     08F6  1FB5               	btfss	(___fldiv@a^(0+384)+2),7
  3752     08F7  28F9               	goto	u5631
  3753     08F8  28FA               	goto	u5630
  3754     08F9                     u5631:
  3755     08F9  28FB               	goto	l3600
  3756     08FA                     u5630:
  3757     08FA                     l3598:
  3758     08FA  144C               	bsf	___fldiv@aexp^(0+384),0
  3759     08FB                     l3600:
  3760     08FB  084C               	movf	___fldiv@aexp^(0+384),w
  3761     08FC  1903               	btfsc	3,2
  3762     08FD  28FF               	goto	u5641
  3763     08FE  2900               	goto	u5640
  3764     08FF                     u5641:
  3765     08FF  2910               	goto	l3610
  3766     0900                     u5640:
  3767     0900                     l3602:
  3768     0900  0A4C               	incf	___fldiv@aexp^(0+384),w
  3769     0901  1D03               	btfss	3,2
  3770     0902  2904               	goto	u5651
  3771     0903  2905               	goto	u5650
  3772     0904                     u5651:
  3773     0904  290D               	goto	l3606
  3774     0905                     u5650:
  3775     0905                     l3604:
  3776     0905  3000               	movlw	0
  3777     0906  00B6               	movwf	(___fldiv@a+3)^(0+384)
  3778     0907  3000               	movlw	0
  3779     0908  00B5               	movwf	(___fldiv@a+2)^(0+384)
  3780     0909  3000               	movlw	0
  3781     090A  00B4               	movwf	(___fldiv@a+1)^(0+384)
  3782     090B  3000               	movlw	0
  3783     090C  00B3               	movwf	___fldiv@a^(0+384)
  3784     090D                     l3606:
  3785     090D  17B5               	bsf	(___fldiv@a^(0+384)+2),7
  3786     090E                     l3608:
  3787     090E  01B6               	clrf	(___fldiv@a^(0+384)+3)
  3788     090F  2918               	goto	l721
  3789     0910                     l3610:
  3790     0910  3000               	movlw	0
  3791     0911  00B6               	movwf	(___fldiv@a+3)^(0+384)
  3792     0912  3000               	movlw	0
  3793     0913  00B5               	movwf	(___fldiv@a+2)^(0+384)
  3794     0914  3000               	movlw	0
  3795     0915  00B4               	movwf	(___fldiv@a+1)^(0+384)
  3796     0916  3000               	movlw	0
  3797     0917  00B3               	movwf	___fldiv@a^(0+384)
  3798     0918                     l721:
  3799     0918  0836               	movf	(___fldiv@a+3)^(0+384),w
  3800     0919  0435               	iorwf	(___fldiv@a+2)^(0+384),w
  3801     091A  0434               	iorwf	(___fldiv@a+1)^(0+384),w
  3802     091B  0433               	iorwf	___fldiv@a^(0+384),w
  3803     091C  1D03               	skipz
  3804     091D  291F               	goto	u5661
  3805     091E  2920               	goto	u5660
  3806     091F                     u5661:
  3807     091F  2939               	goto	l3620
  3808     0920                     u5660:
  3809     0920                     l3612:
  3810     0920  3000               	movlw	0
  3811     0921  00BA               	movwf	(___fldiv@b+3)^(0+384)
  3812     0922  3000               	movlw	0
  3813     0923  00B9               	movwf	(___fldiv@b+2)^(0+384)
  3814     0924  3000               	movlw	0
  3815     0925  00B8               	movwf	(___fldiv@b+1)^(0+384)
  3816     0926  3000               	movlw	0
  3817     0927  00B7               	movwf	___fldiv@b^(0+384)
  3818     0928  3080               	movlw	128
  3819     0929  04B9               	iorwf	(___fldiv@b^(0+384)+2),f
  3820     092A  307F               	movlw	127
  3821     092B  04BA               	iorwf	((___fldiv@b+1)^(0+384)+2),f
  3822     092C                     l3614:
  3823     092C  0844               	movf	___fldiv@sign^(0+384),w
  3824     092D  00BB               	movwf	??___fldiv^(0+384)
  3825     092E  083B               	movf	??___fldiv^(0+384),w
  3826     092F  04BA               	iorwf	(___fldiv@b^(0+384)+3),f
  3827     0930                     l3616:
  3828     0930  083A               	movf	(___fldiv@b+3)^(0+384),w
  3829     0931  00B6               	movwf	(?___fldiv+3)^(0+384)
  3830     0932  0839               	movf	(___fldiv@b+2)^(0+384),w
  3831     0933  00B5               	movwf	(?___fldiv+2)^(0+384)
  3832     0934  0838               	movf	(___fldiv@b+1)^(0+384),w
  3833     0935  00B4               	movwf	(?___fldiv+1)^(0+384)
  3834     0936  0837               	movf	___fldiv@b^(0+384),w
  3835     0937  00B3               	movwf	?___fldiv^(0+384)
  3836     0938  2A94               	goto	l723
  3837     0939                     l3620:
  3838     0939  084B               	movf	___fldiv@bexp^(0+384),w
  3839     093A  1D03               	btfss	3,2
  3840     093B  293D               	goto	u5671
  3841     093C  293E               	goto	u5670
  3842     093D                     u5671:
  3843     093D  2947               	goto	l3626
  3844     093E                     u5670:
  3845     093E                     l3622:
  3846     093E  3000               	movlw	0
  3847     093F  00B6               	movwf	(?___fldiv+3)^(0+384)
  3848     0940  3000               	movlw	0
  3849     0941  00B5               	movwf	(?___fldiv+2)^(0+384)
  3850     0942  3000               	movlw	0
  3851     0943  00B4               	movwf	(?___fldiv+1)^(0+384)
  3852     0944  3000               	movlw	0
  3853     0945  00B3               	movwf	?___fldiv^(0+384)
  3854     0946  2A94               	goto	l723
  3855     0947                     l3626:
  3856     0947  084B               	movf	___fldiv@bexp^(0+384),w
  3857     0948  00BB               	movwf	??___fldiv^(0+384)
  3858     0949  01BC               	clrf	(??___fldiv^(0+384)+1)
  3859     094A  083C               	movf	(??___fldiv+1)^(0+384),w
  3860     094B  00BE               	movwf	((??___fldiv+2)^(0+384)+1)
  3861     094C  084C               	movf	___fldiv@aexp^(0+384),w
  3862     094D  023B               	subwf	??___fldiv^(0+384),w
  3863     094E  00BD               	movwf	(??___fldiv+2)^(0+384)
  3864     094F  1C03               	skipc
  3865     0950  03BE               	decf	((??___fldiv+2)^(0+384)+1),f
  3866     0951  083D               	movf	(??___fldiv+2)^(0+384),w
  3867     0952  3E7F               	addlw	127
  3868     0953  00C5               	movwf	___fldiv@new_exp^(0+384)
  3869     0954  083E               	movf	(??___fldiv+3)^(0+384),w
  3870     0955  1803               	skipnc
  3871     0956  3E01               	addlw	1
  3872     0957  3E00               	addlw	0
  3873     0958  00C6               	movwf	(___fldiv@new_exp+1)^(0+384)
  3874     0959                     l3628:
  3875     0959  083A               	movf	(___fldiv@b+3)^(0+384),w
  3876     095A  00C3               	movwf	(___fldiv@rem+3)^(0+384)
  3877     095B  0839               	movf	(___fldiv@b+2)^(0+384),w
  3878     095C  00C2               	movwf	(___fldiv@rem+2)^(0+384)
  3879     095D  0838               	movf	(___fldiv@b+1)^(0+384),w
  3880     095E  00C1               	movwf	(___fldiv@rem+1)^(0+384)
  3881     095F  0837               	movf	___fldiv@b^(0+384),w
  3882     0960  00C0               	movwf	___fldiv@rem^(0+384)
  3883     0961                     l3630:
  3884     0961  3000               	movlw	0
  3885     0962  00BA               	movwf	(___fldiv@b+3)^(0+384)
  3886     0963  3000               	movlw	0
  3887     0964  00B9               	movwf	(___fldiv@b+2)^(0+384)
  3888     0965  3000               	movlw	0
  3889     0966  00B8               	movwf	(___fldiv@b+1)^(0+384)
  3890     0967  3000               	movlw	0
  3891     0968  00B7               	movwf	___fldiv@b^(0+384)
  3892     0969                     l3632:
  3893     0969  3000               	movlw	0
  3894     096A  00CA               	movwf	(___fldiv@grs+3)^(0+384)
  3895     096B  3000               	movlw	0
  3896     096C  00C9               	movwf	(___fldiv@grs+2)^(0+384)
  3897     096D  3000               	movlw	0
  3898     096E  00C8               	movwf	(___fldiv@grs+1)^(0+384)
  3899     096F  3000               	movlw	0
  3900     0970  00C7               	movwf	___fldiv@grs^(0+384)
  3901     0971                     l3634:
  3902     0971  01CC               	clrf	___fldiv@aexp^(0+384)
  3903     0972  29BD               	goto	l3654
  3904     0973                     l3636:
  3905     0973  084C               	movf	___fldiv@aexp^(0+384),w
  3906     0974  1903               	btfsc	3,2
  3907     0975  2977               	goto	u5681
  3908     0976  2978               	goto	u5680
  3909     0977                     u5681:
  3910     0977  2998               	goto	l3646
  3911     0978                     u5680:
  3912     0978                     l3638:
  3913     0978  3001               	movlw	1
  3914     0979  00BB               	movwf	??___fldiv^(0+384)
  3915     097A                     u5695:
  3916     097A  1003               	clrc
  3917     097B  0DC0               	rlf	___fldiv@rem^(0+384),f
  3918     097C  0DC1               	rlf	(___fldiv@rem+1)^(0+384),f
  3919     097D  0DC2               	rlf	(___fldiv@rem+2)^(0+384),f
  3920     097E  0DC3               	rlf	(___fldiv@rem+3)^(0+384),f
  3921     097F  0BBB               	decfsz	??___fldiv^(0+384),f
  3922     0980  297A               	goto	u5695
  3923     0981  3001               	movlw	1
  3924     0982  00BB               	movwf	??___fldiv^(0+384)
  3925     0983                     u5705:
  3926     0983  1003               	clrc
  3927     0984  0DB7               	rlf	___fldiv@b^(0+384),f
  3928     0985  0DB8               	rlf	(___fldiv@b+1)^(0+384),f
  3929     0986  0DB9               	rlf	(___fldiv@b+2)^(0+384),f
  3930     0987  0DBA               	rlf	(___fldiv@b+3)^(0+384),f
  3931     0988  0BBB               	decfsz	??___fldiv^(0+384),f
  3932     0989  2983               	goto	u5705
  3933     098A                     l3640:
  3934     098A  1FCA               	btfss	(___fldiv@grs+3)^(0+384),7
  3935     098B  298D               	goto	u5711
  3936     098C  298E               	goto	u5710
  3937     098D                     u5711:
  3938     098D  298F               	goto	l3644
  3939     098E                     u5710:
  3940     098E                     l3642:
  3941     098E  1437               	bsf	___fldiv@b^(0+384),0
  3942     098F                     l3644:
  3943     098F  3001               	movlw	1
  3944     0990  00BB               	movwf	??___fldiv^(0+384)
  3945     0991                     u5725:
  3946     0991  1003               	clrc
  3947     0992  0DC7               	rlf	___fldiv@grs^(0+384),f
  3948     0993  0DC8               	rlf	(___fldiv@grs+1)^(0+384),f
  3949     0994  0DC9               	rlf	(___fldiv@grs+2)^(0+384),f
  3950     0995  0DCA               	rlf	(___fldiv@grs+3)^(0+384),f
  3951     0996  0BBB               	decfsz	??___fldiv^(0+384),f
  3952     0997  2991               	goto	u5725
  3953     0998                     l3646:
  3954     0998  0836               	movf	(___fldiv@a+3)^(0+384),w
  3955     0999  0243               	subwf	(___fldiv@rem+3)^(0+384),w
  3956     099A  1D03               	skipz
  3957     099B  29A6               	goto	u5735
  3958     099C  0835               	movf	(___fldiv@a+2)^(0+384),w
  3959     099D  0242               	subwf	(___fldiv@rem+2)^(0+384),w
  3960     099E  1D03               	skipz
  3961     099F  29A6               	goto	u5735
  3962     09A0  0834               	movf	(___fldiv@a+1)^(0+384),w
  3963     09A1  0241               	subwf	(___fldiv@rem+1)^(0+384),w
  3964     09A2  1D03               	skipz
  3965     09A3  29A6               	goto	u5735
  3966     09A4  0833               	movf	___fldiv@a^(0+384),w
  3967     09A5  0240               	subwf	___fldiv@rem^(0+384),w
  3968     09A6                     u5735:
  3969     09A6  1C03               	skipc
  3970     09A7  29A9               	goto	u5731
  3971     09A8  29AA               	goto	u5730
  3972     09A9                     u5731:
  3973     09A9  29B9               	goto	l3652
  3974     09AA                     u5730:
  3975     09AA                     l3648:
  3976     09AA  174A               	bsf	(___fldiv@grs^(0+384)+3),6
  3977     09AB                     l3650:
  3978     09AB  0833               	movf	___fldiv@a^(0+384),w
  3979     09AC  02C0               	subwf	___fldiv@rem^(0+384),f
  3980     09AD  0834               	movf	(___fldiv@a+1)^(0+384),w
  3981     09AE  1C03               	skipc
  3982     09AF  0F34               	incfsz	(___fldiv@a+1)^(0+384),w
  3983     09B0  02C1               	subwf	(___fldiv@rem+1)^(0+384),f
  3984     09B1  0835               	movf	(___fldiv@a+2)^(0+384),w
  3985     09B2  1C03               	skipc
  3986     09B3  0F35               	incfsz	(___fldiv@a+2)^(0+384),w
  3987     09B4  02C2               	subwf	(___fldiv@rem+2)^(0+384),f
  3988     09B5  0836               	movf	(___fldiv@a+3)^(0+384),w
  3989     09B6  1C03               	skipc
  3990     09B7  0F36               	incfsz	(___fldiv@a+3)^(0+384),w
  3991     09B8  02C3               	subwf	(___fldiv@rem+3)^(0+384),f
  3992     09B9                     l3652:
  3993     09B9  3001               	movlw	1
  3994     09BA  00BB               	movwf	??___fldiv^(0+384)
  3995     09BB  083B               	movf	??___fldiv^(0+384),w
  3996     09BC  07CC               	addwf	___fldiv@aexp^(0+384),f
  3997     09BD                     l3654:
  3998     09BD  301A               	movlw	26
  3999     09BE  024C               	subwf	___fldiv@aexp^(0+384),w
  4000     09BF  1C03               	skipc
  4001     09C0  29C2               	goto	u5741
  4002     09C1  29C3               	goto	u5740
  4003     09C2                     u5741:
  4004     09C2  2973               	goto	l3636
  4005     09C3                     u5740:
  4006     09C3                     l3656:
  4007     09C3  0843               	movf	(___fldiv@rem+3)^(0+384),w
  4008     09C4  0442               	iorwf	(___fldiv@rem+2)^(0+384),w
  4009     09C5  0441               	iorwf	(___fldiv@rem+1)^(0+384),w
  4010     09C6  0440               	iorwf	___fldiv@rem^(0+384),w
  4011     09C7  1903               	skipnz
  4012     09C8  29CA               	goto	u5751
  4013     09C9  29CB               	goto	u5750
  4014     09CA                     u5751:
  4015     09CA  29EA               	goto	l3670
  4016     09CB                     u5750:
  4017     09CB                     l3658:
  4018     09CB  1447               	bsf	___fldiv@grs^(0+384),0
  4019     09CC  29EA               	goto	l3670
  4020     09CD                     l3660:
  4021     09CD  3001               	movlw	1
  4022     09CE  00BB               	movwf	??___fldiv^(0+384)
  4023     09CF                     u5765:
  4024     09CF  1003               	clrc
  4025     09D0  0DB7               	rlf	___fldiv@b^(0+384),f
  4026     09D1  0DB8               	rlf	(___fldiv@b+1)^(0+384),f
  4027     09D2  0DB9               	rlf	(___fldiv@b+2)^(0+384),f
  4028     09D3  0DBA               	rlf	(___fldiv@b+3)^(0+384),f
  4029     09D4  0BBB               	decfsz	??___fldiv^(0+384),f
  4030     09D5  29CF               	goto	u5765
  4031     09D6                     l3662:
  4032     09D6  1FCA               	btfss	(___fldiv@grs+3)^(0+384),7
  4033     09D7  29D9               	goto	u5771
  4034     09D8  29DA               	goto	u5770
  4035     09D9                     u5771:
  4036     09D9  29DB               	goto	l3666
  4037     09DA                     u5770:
  4038     09DA                     l3664:
  4039     09DA  1437               	bsf	___fldiv@b^(0+384),0
  4040     09DB                     l3666:
  4041     09DB  3001               	movlw	1
  4042     09DC  00BB               	movwf	??___fldiv^(0+384)
  4043     09DD                     u5785:
  4044     09DD  1003               	clrc
  4045     09DE  0DC7               	rlf	___fldiv@grs^(0+384),f
  4046     09DF  0DC8               	rlf	(___fldiv@grs+1)^(0+384),f
  4047     09E0  0DC9               	rlf	(___fldiv@grs+2)^(0+384),f
  4048     09E1  0DCA               	rlf	(___fldiv@grs+3)^(0+384),f
  4049     09E2  0BBB               	decfsz	??___fldiv^(0+384),f
  4050     09E3  29DD               	goto	u5785
  4051     09E4                     l3668:
  4052     09E4  30FF               	movlw	255
  4053     09E5  07C5               	addwf	___fldiv@new_exp^(0+384),f
  4054     09E6  1803               	skipnc
  4055     09E7  0AC6               	incf	(___fldiv@new_exp+1)^(0+384),f
  4056     09E8  30FF               	movlw	255
  4057     09E9  07C6               	addwf	(___fldiv@new_exp+1)^(0+384),f
  4058     09EA                     l3670:
  4059     09EA  1FB9               	btfss	(___fldiv@b+2)^(0+384),7
  4060     09EB  29ED               	goto	u5791
  4061     09EC  29EE               	goto	u5790
  4062     09ED                     u5791:
  4063     09ED  29CD               	goto	l3660
  4064     09EE                     u5790:
  4065     09EE                     l3672:
  4066     09EE  01CC               	clrf	___fldiv@aexp^(0+384)
  4067     09EF                     l3674:
  4068     09EF  1FCA               	btfss	(___fldiv@grs+3)^(0+384),7
  4069     09F0  29F2               	goto	u5801
  4070     09F1  29F3               	goto	u5800
  4071     09F2                     u5801:
  4072     09F2  2A0F               	goto	l3682
  4073     09F3                     u5800:
  4074     09F3                     l3676:
  4075     09F3  30FF               	movlw	255
  4076     09F4  0547               	andwf	___fldiv@grs^(0+384),w
  4077     09F5  00BB               	movwf	??___fldiv^(0+384)
  4078     09F6  30FF               	movlw	255
  4079     09F7  0548               	andwf	(___fldiv@grs+1)^(0+384),w
  4080     09F8  00BC               	movwf	(??___fldiv^(0+384)+1)
  4081     09F9  30FF               	movlw	255
  4082     09FA  0549               	andwf	(___fldiv@grs+2)^(0+384),w
  4083     09FB  00BD               	movwf	(??___fldiv^(0+384)+2)
  4084     09FC  307F               	movlw	127
  4085     09FD  054A               	andwf	(___fldiv@grs+3)^(0+384),w
  4086     09FE  00BE               	movwf	(??___fldiv^(0+384)+3)
  4087     09FF  083E               	movf	(??___fldiv+3)^(0+384),w
  4088     0A00  043D               	iorwf	(??___fldiv+2)^(0+384),w
  4089     0A01  043C               	iorwf	(??___fldiv+1)^(0+384),w
  4090     0A02  043B               	iorwf	??___fldiv^(0+384),w
  4091     0A03  1903               	skipnz
  4092     0A04  2A06               	goto	u5811
  4093     0A05  2A07               	goto	u5810
  4094     0A06                     u5811:
  4095     0A06  2A0A               	goto	l737
  4096     0A07                     u5810:
  4097     0A07                     l3678:
  4098     0A07  01CC               	clrf	___fldiv@aexp^(0+384)
  4099     0A08  0ACC               	incf	___fldiv@aexp^(0+384),f
  4100     0A09  2A0F               	goto	l3682
  4101     0A0A                     l737:
  4102     0A0A  1C37               	btfss	___fldiv@b^(0+384),0
  4103     0A0B  2A0D               	goto	u5821
  4104     0A0C  2A0E               	goto	u5820
  4105     0A0D                     u5821:
  4106     0A0D  2A0F               	goto	l3682
  4107     0A0E                     u5820:
  4108     0A0E  2A07               	goto	l3678
  4109     0A0F                     l3682:
  4110     0A0F  084C               	movf	___fldiv@aexp^(0+384),w
  4111     0A10  1903               	btfsc	3,2
  4112     0A11  2A13               	goto	u5831
  4113     0A12  2A14               	goto	u5830
  4114     0A13                     u5831:
  4115     0A13  2A45               	goto	l3692
  4116     0A14                     u5830:
  4117     0A14                     l3684:
  4118     0A14  3001               	movlw	1
  4119     0A15  07B7               	addwf	___fldiv@b^(0+384),f
  4120     0A16  3000               	movlw	0
  4121     0A17  1803               	skipnc
  4122     0A18  3001               	movlw	1
  4123     0A19  07B8               	addwf	(___fldiv@b+1)^(0+384),f
  4124     0A1A  3000               	movlw	0
  4125     0A1B  1803               	skipnc
  4126     0A1C  3001               	movlw	1
  4127     0A1D  07B9               	addwf	(___fldiv@b+2)^(0+384),f
  4128     0A1E  3000               	movlw	0
  4129     0A1F  1803               	skipnc
  4130     0A20  3001               	movlw	1
  4131     0A21  07BA               	addwf	(___fldiv@b+3)^(0+384),f
  4132     0A22                     l3686:
  4133     0A22  1C3A               	btfss	(___fldiv@b+3)^(0+384),0
  4134     0A23  2A25               	goto	u5841
  4135     0A24  2A26               	goto	u5840
  4136     0A25                     u5841:
  4137     0A25  2A45               	goto	l3692
  4138     0A26                     u5840:
  4139     0A26                     l3688:
  4140     0A26  0837               	movf	___fldiv@b^(0+384),w
  4141     0A27  00BB               	movwf	??___fldiv^(0+384)
  4142     0A28  0838               	movf	(___fldiv@b+1)^(0+384),w
  4143     0A29  00BC               	movwf	(??___fldiv^(0+384)+1)
  4144     0A2A  0839               	movf	(___fldiv@b+2)^(0+384),w
  4145     0A2B  00BD               	movwf	(??___fldiv^(0+384)+2)
  4146     0A2C  083A               	movf	(___fldiv@b+3)^(0+384),w
  4147     0A2D  00BE               	movwf	(??___fldiv^(0+384)+3)
  4148     0A2E  3001               	movlw	1
  4149     0A2F  00BF               	movwf	(??___fldiv+4)^(0+384)
  4150     0A30                     u5855:
  4151     0A30  0D3E               	rlf	(??___fldiv^(0+384)+3),w
  4152     0A31  0CBE               	rrf	(??___fldiv^(0+384)+3),f
  4153     0A32  0CBD               	rrf	(??___fldiv^(0+384)+2),f
  4154     0A33  0CBC               	rrf	(??___fldiv^(0+384)+1),f
  4155     0A34  0CBB               	rrf	??___fldiv^(0+384),f
  4156     0A35                     u5850:
  4157     0A35  0BBF               	decfsz	(??___fldiv+4)^(0+384),f
  4158     0A36  2A30               	goto	u5855
  4159     0A37  083E               	movf	(??___fldiv+3)^(0+384),w
  4160     0A38  00BA               	movwf	(___fldiv@b+3)^(0+384)
  4161     0A39  083D               	movf	(??___fldiv+2)^(0+384),w
  4162     0A3A  00B9               	movwf	(___fldiv@b+2)^(0+384)
  4163     0A3B  083C               	movf	(??___fldiv+1)^(0+384),w
  4164     0A3C  00B8               	movwf	(___fldiv@b+1)^(0+384)
  4165     0A3D  083B               	movf	??___fldiv^(0+384),w
  4166     0A3E  00B7               	movwf	___fldiv@b^(0+384)
  4167     0A3F                     l3690:
  4168     0A3F  3001               	movlw	1
  4169     0A40  07C5               	addwf	___fldiv@new_exp^(0+384),f
  4170     0A41  1803               	skipnc
  4171     0A42  0AC6               	incf	(___fldiv@new_exp+1)^(0+384),f
  4172     0A43  3000               	movlw	0
  4173     0A44  07C6               	addwf	(___fldiv@new_exp+1)^(0+384),f
  4174     0A45                     l3692:
  4175     0A45  0846               	movf	(___fldiv@new_exp+1)^(0+384),w
  4176     0A46  3A80               	xorlw	128
  4177     0A47  00FF               	movwf	btemp+1
  4178     0A48  3080               	movlw	128
  4179     0A49  027F               	subwf	btemp+1,w
  4180     0A4A  1D03               	skipz
  4181     0A4B  2A4E               	goto	u5865
  4182     0A4C  30FF               	movlw	255
  4183     0A4D  0245               	subwf	___fldiv@new_exp^(0+384),w
  4184     0A4E                     u5865:
  4185     0A4E  1C03               	skipc
  4186     0A4F  2A51               	goto	u5861
  4187     0A50  2A52               	goto	u5860
  4188     0A51                     u5861:
  4189     0A51  2A60               	goto	l3696
  4190     0A52                     u5860:
  4191     0A52                     l3694:
  4192     0A52  30FF               	movlw	255
  4193     0A53  1683               	bsf	3,5	;RP0=1, select bank3
  4194     0A54  1703               	bsf	3,6	;RP1=1, select bank3
  4195     0A55  00C5               	movwf	___fldiv@new_exp^(0+384)
  4196     0A56  3000               	movlw	0
  4197     0A57  00C6               	movwf	(___fldiv@new_exp^(0+384)+1)
  4198     0A58  3000               	movlw	0
  4199     0A59  00BA               	movwf	(___fldiv@b+3)^(0+384)
  4200     0A5A  3000               	movlw	0
  4201     0A5B  00B9               	movwf	(___fldiv@b+2)^(0+384)
  4202     0A5C  3000               	movlw	0
  4203     0A5D  00B8               	movwf	(___fldiv@b+1)^(0+384)
  4204     0A5E  3000               	movlw	0
  4205     0A5F  00B7               	movwf	___fldiv@b^(0+384)
  4206     0A60                     l3696:
  4207     0A60  1683               	bsf	3,5	;RP0=1, select bank3
  4208     0A61  1703               	bsf	3,6	;RP1=1, select bank3
  4209     0A62  0846               	movf	(___fldiv@new_exp+1)^(0+384),w
  4210     0A63  3A80               	xorlw	128
  4211     0A64  00FF               	movwf	btemp+1
  4212     0A65  3080               	movlw	128
  4213     0A66  027F               	subwf	btemp+1,w
  4214     0A67  1D03               	skipz
  4215     0A68  2A6B               	goto	u5875
  4216     0A69  3001               	movlw	1
  4217     0A6A  0245               	subwf	___fldiv@new_exp^(0+384),w
  4218     0A6B                     u5875:
  4219     0A6B  1803               	skipnc
  4220     0A6C  2A6E               	goto	u5871
  4221     0A6D  2A6F               	goto	u5870
  4222     0A6E                     u5871:
  4223     0A6E  2A7C               	goto	l743
  4224     0A6F                     u5870:
  4225     0A6F                     l3698:
  4226     0A6F  1683               	bsf	3,5	;RP0=1, select bank3
  4227     0A70  1703               	bsf	3,6	;RP1=1, select bank3
  4228     0A71  01C5               	clrf	___fldiv@new_exp^(0+384)
  4229     0A72  01C6               	clrf	(___fldiv@new_exp+1)^(0+384)
  4230     0A73                     l3700:
  4231     0A73  3000               	movlw	0
  4232     0A74  00BA               	movwf	(___fldiv@b+3)^(0+384)
  4233     0A75  3000               	movlw	0
  4234     0A76  00B9               	movwf	(___fldiv@b+2)^(0+384)
  4235     0A77  3000               	movlw	0
  4236     0A78  00B8               	movwf	(___fldiv@b+1)^(0+384)
  4237     0A79  3000               	movlw	0
  4238     0A7A  00B7               	movwf	___fldiv@b^(0+384)
  4239     0A7B                     l3702:
  4240     0A7B  01C4               	clrf	___fldiv@sign^(0+384)
  4241     0A7C                     l743:
  4242     0A7C  1683               	bsf	3,5	;RP0=1, select bank3
  4243     0A7D  1703               	bsf	3,6	;RP1=1, select bank3
  4244     0A7E  0845               	movf	___fldiv@new_exp^(0+384),w
  4245     0A7F  00CB               	movwf	___fldiv@bexp^(0+384)
  4246     0A80                     l3704:
  4247     0A80  1C4B               	btfss	___fldiv@bexp^(0+384),0
  4248     0A81  2A83               	goto	u5881
  4249     0A82  2A84               	goto	u5880
  4250     0A83                     u5881:
  4251     0A83  2A86               	goto	l3708
  4252     0A84                     u5880:
  4253     0A84                     l3706:
  4254     0A84  17B9               	bsf	(___fldiv@b^(0+384)+2),7
  4255     0A85  2A8A               	goto	l745
  4256     0A86                     l3708:
  4257     0A86  307F               	movlw	127
  4258     0A87  00BB               	movwf	??___fldiv^(0+384)
  4259     0A88  083B               	movf	??___fldiv^(0+384),w
  4260     0A89  05B9               	andwf	(___fldiv@b^(0+384)+2),f
  4261     0A8A                     l745:
  4262     0A8A  084B               	movf	___fldiv@bexp^(0+384),w
  4263     0A8B  00BB               	movwf	??___fldiv^(0+384)
  4264     0A8C  1003               	clrc
  4265     0A8D  0C3B               	rrf	??___fldiv^(0+384),w
  4266     0A8E  00BA               	movwf	(___fldiv@b^(0+384)+3)
  4267     0A8F  0844               	movf	___fldiv@sign^(0+384),w
  4268     0A90  00BB               	movwf	??___fldiv^(0+384)
  4269     0A91  083B               	movf	??___fldiv^(0+384),w
  4270     0A92  04BA               	iorwf	(___fldiv@b^(0+384)+3),f
  4271     0A93  2930               	goto	l3616
  4272     0A94                     l723:
  4273     0A94  0008               	return
  4274     0A95                     __end_of___fldiv:
  4275                           
  4276                           	psect	text8
  4277     1EA6                     __ptext8:	
  4278 ;; *************** function _initUART *****************
  4279 ;; Defined at:
  4280 ;;		line 352 in file "Progra_IRONMAN.c"
  4281 ;; Parameters:    Size  Location     Type
  4282 ;;		None
  4283 ;; Auto vars:     Size  Location     Type
  4284 ;;		None
  4285 ;; Return value:  Size  Location     Type
  4286 ;;                  1    wreg      void 
  4287 ;; Registers used:
  4288 ;;		wreg, status,2
  4289 ;; Tracked objects:
  4290 ;;		On entry : 0/0
  4291 ;;		On exit  : 0/0
  4292 ;;		Unchanged: 0/0
  4293 ;; Data sizes:     COMMON   BANK0   BANK1   BANK3   BANK2
  4294 ;;      Params:         0       0       0       0       0
  4295 ;;      Locals:         0       0       0       0       0
  4296 ;;      Temps:          0       0       0       0       0
  4297 ;;      Totals:         0       0       0       0       0
  4298 ;;Total ram usage:        0 bytes
  4299 ;; Hardware stack levels used: 1
  4300 ;; Hardware stack levels required when called: 5
  4301 ;; This function calls:
  4302 ;;		Nothing
  4303 ;; This function is called by:
  4304 ;;		_main
  4305 ;; This function uses a non-reentrant model
  4306 ;;
  4307                           
  4308     1EA6                     _initUART:	
  4309                           ;psect for function _initUART
  4310                           
  4311     1EA6                     l3982:	
  4312                           ;incstack = 0
  4313                           ; Regs used in _initUART: [wreg+status,2]
  4314                           
  4315                           
  4316                           ;Progra_IRONMAN.c: 354:     SPBRG = 25;
  4317     1EA6  3019               	movlw	25
  4318     1EA7  1683               	bsf	3,5	;RP0=1, select bank1
  4319     1EA8  1303               	bcf	3,6	;RP1=0, select bank1
  4320     1EA9  0099               	movwf	25	;volatile
  4321     1EAA                     l3984:
  4322                           
  4323                           ;Progra_IRONMAN.c: 355:     SPBRGH = 0;
  4324     1EAA  019A               	clrf	26	;volatile
  4325     1EAB                     l3986:
  4326                           
  4327                           ;Progra_IRONMAN.c: 356:     BRGH = 1;
  4328     1EAB  1518               	bsf	24,2	;volatile
  4329     1EAC                     l3988:
  4330                           
  4331                           ;Progra_IRONMAN.c: 357:     BRG16 = 0;
  4332     1EAC  1683               	bsf	3,5	;RP0=1, select bank3
  4333     1EAD  1703               	bsf	3,6	;RP1=1, select bank3
  4334     1EAE  1187               	bcf	7,3	;volatile
  4335     1EAF                     l3990:
  4336                           
  4337                           ;Progra_IRONMAN.c: 360:     CREN = 1;
  4338     1EAF  1283               	bcf	3,5	;RP0=0, select bank0
  4339     1EB0  1303               	bcf	3,6	;RP1=0, select bank0
  4340     1EB1  1618               	bsf	24,4	;volatile
  4341     1EB2                     l3992:
  4342                           
  4343                           ;Progra_IRONMAN.c: 361:     SYNC = 0;
  4344     1EB2  1683               	bsf	3,5	;RP0=1, select bank1
  4345     1EB3  1303               	bcf	3,6	;RP1=0, select bank1
  4346     1EB4  1218               	bcf	24,4	;volatile
  4347     1EB5                     l3994:
  4348                           
  4349                           ;Progra_IRONMAN.c: 362:     SPEN = 1;
  4350     1EB5  1283               	bcf	3,5	;RP0=0, select bank0
  4351     1EB6  1303               	bcf	3,6	;RP1=0, select bank0
  4352     1EB7  1798               	bsf	24,7	;volatile
  4353     1EB8                     l3996:
  4354                           
  4355                           ;Progra_IRONMAN.c: 363:     TXSTAbits.TXEN = 1;
  4356     1EB8  1683               	bsf	3,5	;RP0=1, select bank1
  4357     1EB9  1303               	bcf	3,6	;RP1=0, select bank1
  4358     1EBA  1698               	bsf	24,5	;volatile
  4359     1EBB                     l3998:
  4360                           
  4361                           ;Progra_IRONMAN.c: 366:     RCSTAbits.RX9 = 0;
  4362     1EBB  1283               	bcf	3,5	;RP0=0, select bank0
  4363     1EBC  1303               	bcf	3,6	;RP1=0, select bank0
  4364     1EBD  1318               	bcf	24,6	;volatile
  4365     1EBE                     l4000:
  4366                           
  4367                           ;Progra_IRONMAN.c: 369:     TXEN = 1;
  4368     1EBE  1683               	bsf	3,5	;RP0=1, select bank1
  4369     1EBF  1303               	bcf	3,6	;RP1=0, select bank1
  4370     1EC0  1698               	bsf	24,5	;volatile
  4371     1EC1                     l4002:
  4372                           
  4373                           ;Progra_IRONMAN.c: 370:     TXIF = 0;
  4374     1EC1  1283               	bcf	3,5	;RP0=0, select bank0
  4375     1EC2  1303               	bcf	3,6	;RP1=0, select bank0
  4376     1EC3  120C               	bcf	12,4	;volatile
  4377     1EC4                     l4004:
  4378                           
  4379                           ;Progra_IRONMAN.c: 374:     PIE1bits.RCIE = 1;
  4380     1EC4  1683               	bsf	3,5	;RP0=1, select bank1
  4381     1EC5  1303               	bcf	3,6	;RP1=0, select bank1
  4382     1EC6  168C               	bsf	12,5	;volatile
  4383     1EC7                     l4006:
  4384                           
  4385                           ;Progra_IRONMAN.c: 375:     PIR1bits.RCIF = 0;
  4386     1EC7  1283               	bcf	3,5	;RP0=0, select bank0
  4387     1EC8  1303               	bcf	3,6	;RP1=0, select bank0
  4388     1EC9  128C               	bcf	12,5	;volatile
  4389     1ECA                     l233:
  4390     1ECA  0008               	return
  4391     1ECB                     __end_of_initUART:
  4392                           
  4393                           	psect	text9
  4394     0CED                     __ptext9:	
  4395 ;; *************** function _isr *****************
  4396 ;; Defined at:
  4397 ;;		line 78 in file "Progra_IRONMAN.c"
  4398 ;; Parameters:    Size  Location     Type
  4399 ;;		None
  4400 ;; Auto vars:     Size  Location     Type
  4401 ;;		None
  4402 ;; Return value:  Size  Location     Type
  4403 ;;                  1    wreg      void 
  4404 ;; Registers used:
  4405 ;;		wreg, fsr0l, fsr0h, status,2, status,0, btemp+1, pclath, cstack
  4406 ;; Tracked objects:
  4407 ;;		On entry : 0/0
  4408 ;;		On exit  : 0/0
  4409 ;;		Unchanged: 0/0
  4410 ;; Data sizes:     COMMON   BANK0   BANK1   BANK3   BANK2
  4411 ;;      Params:         0       0       0       0       0
  4412 ;;      Locals:         0       0       4       0       0
  4413 ;;      Temps:          0       0       8       0       0
  4414 ;;      Totals:         0       0      12       0       0
  4415 ;;Total ram usage:       12 bytes
  4416 ;; Hardware stack levels used: 1
  4417 ;; Hardware stack levels required when called: 4
  4418 ;; This function calls:
  4419 ;;		_TXT
  4420 ;;		___fladd
  4421 ;;		___xxtofl
  4422 ;;		_pulse
  4423 ;;		_read_EEPROM
  4424 ;;		_servos
  4425 ;;		_write_EEPROM
  4426 ;;		i1_PWM_duty
  4427 ;;		i1___fldiv
  4428 ;;		i1___flmul
  4429 ;;		i1___fltol
  4430 ;; This function is called by:
  4431 ;;		Interrupt level 1
  4432 ;; This function uses a non-reentrant model
  4433 ;;
  4434                           
  4435     0CED                     _isr:	
  4436                           ;psect for function _isr
  4437                           
  4438     0CED                     i1l3378:
  4439                           
  4440                           ;Progra_IRONMAN.c: 80:     if (INTCONbits.T0IF)
  4441     0CED  1D0B               	btfss	11,2	;volatile
  4442     0CEE  2CF0               	goto	u515_21
  4443     0CEF  2CF1               	goto	u515_20
  4444     0CF0                     u515_21:
  4445     0CF0  2CF7               	goto	i1l3384
  4446     0CF1                     u515_20:
  4447     0CF1                     i1l3380:
  4448                           
  4449                           ;Progra_IRONMAN.c: 81:     {;Progra_IRONMAN.c: 82:         pulse();
  4450     0CF1  160A  118A  2018  120A  158A  	fcall	_pulse
  4451     0CF6                     i1l3382:
  4452                           
  4453                           ;Progra_IRONMAN.c: 83:         INTCONbits.T0IF = 0;
  4454     0CF6  110B               	bcf	11,2	;volatile
  4455     0CF7                     i1l3384:
  4456                           
  4457                           ;Progra_IRONMAN.c: 87:     if(PIR1bits.RCIF){
  4458     0CF7  1283               	bcf	3,5	;RP0=0, select bank0
  4459     0CF8  1303               	bcf	3,6	;RP1=0, select bank0
  4460     0CF9  1E8C               	btfss	12,5	;volatile
  4461     0CFA  2CFC               	goto	u516_21
  4462     0CFB  2CFD               	goto	u516_20
  4463     0CFC                     u516_21:
  4464     0CFC  2D02               	goto	i1l3388
  4465     0CFD                     u516_20:
  4466     0CFD                     i1l3386:
  4467                           
  4468                           ;Progra_IRONMAN.c: 88:         TXT();
  4469     0CFD  160A  158A  2789  120A  158A  	fcall	_TXT
  4470     0D02                     i1l3388:
  4471                           
  4472                           ;Progra_IRONMAN.c: 94:     if (INTCONbits.RBIF)
  4473     0D02  1C0B               	btfss	11,0	;volatile
  4474     0D03  2D05               	goto	u517_21
  4475     0D04  2D06               	goto	u517_20
  4476     0D05                     u517_21:
  4477     0D05  2D74               	goto	i1l3418
  4478     0D06                     u517_20:
  4479     0D06                     i1l3390:
  4480                           
  4481                           ;Progra_IRONMAN.c: 95:     {;Progra_IRONMAN.c: 96:         if (PORTBbits.RB0 == 0){
  4482     0D06  1283               	bcf	3,5	;RP0=0, select bank0
  4483     0D07  1303               	bcf	3,6	;RP1=0, select bank0
  4484     0D08  1806               	btfsc	6,0	;volatile
  4485     0D09  2D0B               	goto	u518_21
  4486     0D0A  2D0C               	goto	u518_20
  4487     0D0B                     u518_21:
  4488     0D0B  2D17               	goto	i1l150
  4489     0D0C                     u518_20:
  4490     0D0C                     i1l3392:
  4491                           
  4492                           ;Progra_IRONMAN.c: 97:             modo = modo + 1;
  4493     0D0C  1683               	bsf	3,5	;RP0=1, select bank1
  4494     0D0D  1303               	bcf	3,6	;RP1=0, select bank1
  4495     0D0E  085B               	movf	_modo^(0+128),w
  4496     0D0F  3E01               	addlw	1
  4497     0D10  00DB               	movwf	_modo^(0+128)
  4498     0D11  085C               	movf	(_modo+1)^(0+128),w
  4499     0D12  1803               	skipnc
  4500     0D13  3E01               	addlw	1
  4501     0D14  3E00               	addlw	0
  4502     0D15  00DC               	movwf	(_modo+1)^(0+128)
  4503                           
  4504                           ;Progra_IRONMAN.c: 98:         }
  4505     0D16  2D73               	goto	i1l3416
  4506     0D17                     i1l150:	
  4507                           ;Progra_IRONMAN.c: 100:         else if (PORTBbits.RB1 == 0){
  4508                           
  4509     0D17  1886               	btfsc	6,1	;volatile
  4510     0D18  2D1A               	goto	u519_21
  4511     0D19  2D1B               	goto	u519_20
  4512     0D1A                     u519_21:
  4513     0D1A  2D21               	goto	i1l152
  4514     0D1B                     u519_20:
  4515     0D1B                     i1l3394:
  4516                           
  4517                           ;Progra_IRONMAN.c: 101:             servo = servo + 1;
  4518     0D1B  1683               	bsf	3,5	;RP0=1, select bank1
  4519     0D1C  1303               	bcf	3,6	;RP1=0, select bank1
  4520     0D1D  0862               	movf	_servo^(0+128),w
  4521     0D1E  3E01               	addlw	1
  4522     0D1F  00E2               	movwf	_servo^(0+128)
  4523                           
  4524                           ;Progra_IRONMAN.c: 102:         }
  4525     0D20  2D73               	goto	i1l3416
  4526     0D21                     i1l152:	
  4527                           ;Progra_IRONMAN.c: 104:         else if (PORTBbits.RB2 == 0){
  4528                           
  4529     0D21  1906               	btfsc	6,2	;volatile
  4530     0D22  2D24               	goto	u520_21
  4531     0D23  2D25               	goto	u520_20
  4532     0D24                     u520_21:
  4533     0D24  2D30               	goto	i1l154
  4534     0D25                     u520_20:
  4535     0D25                     i1l3396:
  4536                           
  4537                           ;Progra_IRONMAN.c: 105:             address++;
  4538     0D25  3001               	movlw	1
  4539     0D26  1683               	bsf	3,5	;RP0=1, select bank1
  4540     0D27  1303               	bcf	3,6	;RP1=0, select bank1
  4541     0D28  00B9               	movwf	??_isr^(0+128)
  4542     0D29  0839               	movf	??_isr^(0+128),w
  4543     0D2A  07DF               	addwf	_address^(0+128),f
  4544     0D2B                     i1l3398:
  4545                           
  4546                           ;Progra_IRONMAN.c: 107:             contador = 0;
  4547     0D2B  1683               	bsf	3,5	;RP0=1, select bank3
  4548     0D2C  1703               	bsf	3,6	;RP1=1, select bank3
  4549     0D2D  01E8               	clrf	_contador^(0+384)
  4550     0D2E  01E9               	clrf	(_contador+1)^(0+384)
  4551                           
  4552                           ;Progra_IRONMAN.c: 108:         }
  4553     0D2F  2D73               	goto	i1l3416
  4554     0D30                     i1l154:	
  4555                           ;Progra_IRONMAN.c: 110:         else if (PORTBbits.RB3 == 0){
  4556                           
  4557     0D30  1986               	btfsc	6,3	;volatile
  4558     0D31  2D33               	goto	u521_21
  4559     0D32  2D34               	goto	u521_20
  4560     0D33                     u521_21:
  4561     0D33  2D39               	goto	i1l156
  4562     0D34                     u521_20:
  4563     0D34                     i1l3400:
  4564                           
  4565                           ;Progra_IRONMAN.c: 111:             address--;
  4566     0D34  3001               	movlw	1
  4567     0D35  1683               	bsf	3,5	;RP0=1, select bank1
  4568     0D36  1303               	bcf	3,6	;RP1=0, select bank1
  4569     0D37  02DF               	subwf	_address^(0+128),f
  4570     0D38  2D2B               	goto	i1l3398
  4571     0D39                     i1l156:	
  4572                           ;Progra_IRONMAN.c: 115:         else if (PORTBbits.RB4 == 0){
  4573                           
  4574     0D39  1A06               	btfsc	6,4	;volatile
  4575     0D3A  2D3C               	goto	u522_21
  4576     0D3B  2D3D               	goto	u522_20
  4577     0D3C                     u522_21:
  4578     0D3C  2D48               	goto	i1l158
  4579     0D3D                     u522_20:
  4580     0D3D                     i1l3404:
  4581                           
  4582                           ;Progra_IRONMAN.c: 116:             write_EEPROM (address, potenciometro);
  4583     0D3D  1683               	bsf	3,5	;RP0=1, select bank1
  4584     0D3E  1303               	bcf	3,6	;RP1=0, select bank1
  4585     0D3F  085D               	movf	_potenciometro^(0+128),w
  4586     0D40  00F0               	movwf	write_EEPROM@data
  4587     0D41  085F               	movf	_address^(0+128),w
  4588     0D42  160A  158A  265F  120A  158A  	fcall	_write_EEPROM
  4589     0D47  2D2B               	goto	i1l3398
  4590     0D48                     i1l158:	
  4591                           ;Progra_IRONMAN.c: 120:         else if (PORTBbits.RB5 == 0){
  4592                           
  4593     0D48  1A86               	btfsc	6,5	;volatile
  4594     0D49  2D4B               	goto	u523_21
  4595     0D4A  2D4C               	goto	u523_20
  4596     0D4B                     u523_21:
  4597     0D4B  2D68               	goto	i1l160
  4598     0D4C                     u523_20:
  4599     0D4C                     i1l3408:
  4600                           
  4601                           ;Progra_IRONMAN.c: 122:             data = read_EEPROM(address);
  4602     0D4C  1683               	bsf	3,5	;RP0=1, select bank1
  4603     0D4D  1303               	bcf	3,6	;RP1=0, select bank1
  4604     0D4E  085F               	movf	_address^(0+128),w
  4605     0D4F  160A  118A  2001  120A  158A  	fcall	_read_EEPROM
  4606     0D54  1683               	bsf	3,5	;RP0=1, select bank1
  4607     0D55  1303               	bcf	3,6	;RP1=0, select bank1
  4608     0D56  00DE               	movwf	_data^(0+128)
  4609     0D57                     i1l3410:
  4610                           
  4611                           ;Progra_IRONMAN.c: 124:             contador = 0;
  4612     0D57  1683               	bsf	3,5	;RP0=1, select bank3
  4613     0D58  1703               	bsf	3,6	;RP1=1, select bank3
  4614     0D59  01E8               	clrf	_contador^(0+384)
  4615     0D5A  01E9               	clrf	(_contador+1)^(0+384)
  4616     0D5B                     i1l3412:
  4617                           
  4618                           ;Progra_IRONMAN.c: 125:             servos(data, modo);
  4619     0D5B  1683               	bsf	3,5	;RP0=1, select bank1
  4620     0D5C  1303               	bcf	3,6	;RP1=0, select bank1
  4621     0D5D  085C               	movf	(_modo+1)^(0+128),w
  4622     0D5E  00AF               	movwf	(servos@modo+1)^(0+128)
  4623     0D5F  085B               	movf	_modo^(0+128),w
  4624     0D60  00AE               	movwf	servos@modo^(0+128)
  4625     0D61  085E               	movf	_data^(0+128),w
  4626     0D62  160A  118A  245C  120A  158A  	fcall	_servos
  4627                           
  4628                           ;Progra_IRONMAN.c: 126:         }
  4629     0D67  2D73               	goto	i1l3416
  4630     0D68                     i1l160:	
  4631                           ;Progra_IRONMAN.c: 128:         else if (PORTBbits.RB6 == 0){
  4632                           
  4633     0D68  1B06               	btfsc	6,6	;volatile
  4634     0D69  2D6B               	goto	u524_21
  4635     0D6A  2D6C               	goto	u524_20
  4636     0D6B                     u524_21:
  4637     0D6B  2D73               	goto	i1l157
  4638     0D6C                     u524_20:
  4639     0D6C                     i1l3414:
  4640                           
  4641                           ;Progra_IRONMAN.c: 129:              contador = 1;
  4642     0D6C  3001               	movlw	1
  4643     0D6D  1683               	bsf	3,5	;RP0=1, select bank3
  4644     0D6E  1703               	bsf	3,6	;RP1=1, select bank3
  4645     0D6F  00E8               	movwf	_contador^(0+384)
  4646     0D70  3000               	movlw	0
  4647     0D71  00E9               	movwf	(_contador^(0+384)+1)
  4648     0D72  2D73               	goto	i1l3416
  4649     0D73                     i1l157:
  4650     0D73                     i1l3416:
  4651                           
  4652                           ;Progra_IRONMAN.c: 133:         INTCONbits.RBIF = 0;
  4653     0D73  100B               	bcf	11,0	;volatile
  4654     0D74                     i1l3418:
  4655                           
  4656                           ;Progra_IRONMAN.c: 137:     if (PIR1bits.ADIF) {
  4657     0D74  1283               	bcf	3,5	;RP0=0, select bank0
  4658     0D75  1303               	bcf	3,6	;RP1=0, select bank0
  4659     0D76  1F0C               	btfss	12,6	;volatile
  4660     0D77  2D79               	goto	u525_21
  4661     0D78  2D7A               	goto	u525_20
  4662     0D79                     u525_21:
  4663     0D79  2FF3               	goto	i1l175
  4664     0D7A                     u525_20:
  4665     0D7A                     i1l3420:
  4666                           
  4667                           ;Progra_IRONMAN.c: 138:         if(modo == 0){
  4668     0D7A  1683               	bsf	3,5	;RP0=1, select bank1
  4669     0D7B  1303               	bcf	3,6	;RP1=0, select bank1
  4670     0D7C  085B               	movf	_modo^(0+128),w
  4671     0D7D  045C               	iorwf	(_modo+1)^(0+128),w
  4672     0D7E  1D03               	btfss	3,2
  4673     0D7F  2D81               	goto	u526_21
  4674     0D80  2D82               	goto	u526_20
  4675     0D81                     u526_21:
  4676     0D81  2FD3               	goto	i1l3438
  4677     0D82                     u526_20:
  4678     0D82                     i1l3422:
  4679                           
  4680                           ;Progra_IRONMAN.c: 140:             if (ADCON0bits.CHS == 0b0000){
  4681     0D82  1283               	bcf	3,5	;RP0=0, select bank0
  4682     0D83  1303               	bcf	3,6	;RP1=0, select bank0
  4683     0D84  0C1F               	rrf	31,w	;volatile
  4684     0D85  1683               	bsf	3,5	;RP0=1, select bank1
  4685     0D86  1303               	bcf	3,6	;RP1=0, select bank1
  4686     0D87  00B9               	movwf	??_isr^(0+128)
  4687     0D88  0C39               	rrf	??_isr^(0+128),w
  4688     0D89  390F               	andlw	15
  4689     0D8A  3A00               	xorlw	0
  4690     0D8B  1D03               	skipz
  4691     0D8C  2D8E               	goto	u527_21
  4692     0D8D  2D8F               	goto	u527_20
  4693     0D8E                     u527_21:
  4694     0D8E  2E40               	goto	i1l3426
  4695     0D8F                     u527_20:
  4696     0D8F                     i1l3424:
  4697                           
  4698                           ;Progra_IRONMAN.c: 141:                 valorPot1 = 0.6*ADRESH;
  4699     0D8F  1283               	bcf	3,5	;RP0=0, select bank0
  4700     0D90  1303               	bcf	3,6	;RP1=0, select bank0
  4701     0D91  081E               	movf	30,w	;volatile
  4702     0D92  1683               	bsf	3,5	;RP0=1, select bank1
  4703     0D93  1303               	bcf	3,6	;RP1=0, select bank1
  4704     0D94  00B9               	movwf	??_isr^(0+128)
  4705     0D95  01BA               	clrf	(??_isr^(0+128)+1)
  4706     0D96  01BB               	clrf	(??_isr^(0+128)+2)
  4707     0D97  01BC               	clrf	(??_isr^(0+128)+3)
  4708     0D98  083C               	movf	(??_isr+3)^(0+128),w
  4709     0D99  00F3               	movwf	___xxtofl@val+3
  4710     0D9A  083B               	movf	(??_isr+2)^(0+128),w
  4711     0D9B  00F2               	movwf	___xxtofl@val+2
  4712     0D9C  083A               	movf	(??_isr+1)^(0+128),w
  4713     0D9D  00F1               	movwf	___xxtofl@val+1
  4714     0D9E  0839               	movf	??_isr^(0+128),w
  4715     0D9F  00F0               	movwf	___xxtofl@val
  4716     0DA0  3001               	movlw	1
  4717     0DA1  120A  158A  200A  120A  158A  	fcall	___xxtofl
  4718     0DA6  0873               	movf	?___xxtofl+3,w
  4719     0DA7  1283               	bcf	3,5	;RP0=0, select bank0
  4720     0DA8  1303               	bcf	3,6	;RP1=0, select bank0
  4721     0DA9  00C1               	movwf	i1___flmul@a+3
  4722     0DAA  0872               	movf	?___xxtofl+2,w
  4723     0DAB  00C0               	movwf	i1___flmul@a+2
  4724     0DAC  0871               	movf	?___xxtofl+1,w
  4725     0DAD  00BF               	movwf	i1___flmul@a+1
  4726     0DAE  0870               	movf	?___xxtofl,w
  4727     0DAF  00BE               	movwf	i1___flmul@a
  4728     0DB0  303F               	movlw	63
  4729     0DB1  00BD               	movwf	i1___flmul@b+3
  4730     0DB2  3019               	movlw	25
  4731     0DB3  00BC               	movwf	i1___flmul@b+2
  4732     0DB4  3099               	movlw	153
  4733     0DB5  00BB               	movwf	i1___flmul@b+1
  4734     0DB6  309A               	movlw	154
  4735     0DB7  00BA               	movwf	i1___flmul@b
  4736     0DB8  120A  118A  237F  120A  158A  	fcall	i1___flmul
  4737     0DBD  1283               	bcf	3,5	;RP0=0, select bank0
  4738     0DBE  1303               	bcf	3,6	;RP1=0, select bank0
  4739     0DBF  083D               	movf	?i1___flmul+3,w
  4740     0DC0  00EB               	movwf	i1___fltol@f1+3
  4741     0DC1  083C               	movf	?i1___flmul+2,w
  4742     0DC2  00EA               	movwf	i1___fltol@f1+2
  4743     0DC3  083B               	movf	?i1___flmul+1,w
  4744     0DC4  00E9               	movwf	i1___fltol@f1+1
  4745     0DC5  083A               	movf	?i1___flmul,w
  4746     0DC6  00E8               	movwf	i1___fltol@f1
  4747     0DC7  160A  118A  20C9  120A  158A  	fcall	i1___fltol
  4748     0DCC  1283               	bcf	3,5	;RP0=0, select bank0
  4749     0DCD  1303               	bcf	3,6	;RP1=0, select bank0
  4750     0DCE  0869               	movf	?i1___fltol+1,w
  4751     0DCF  1683               	bsf	3,5	;RP0=1, select bank1
  4752     0DD0  1303               	bcf	3,6	;RP1=0, select bank1
  4753     0DD1  00DA               	movwf	(_valorPot1+1)^(0+128)
  4754     0DD2  1283               	bcf	3,5	;RP0=0, select bank0
  4755     0DD3  1303               	bcf	3,6	;RP1=0, select bank0
  4756     0DD4  0868               	movf	?i1___fltol,w
  4757     0DD5  1683               	bsf	3,5	;RP0=1, select bank1
  4758     0DD6  1303               	bcf	3,6	;RP1=0, select bank1
  4759     0DD7  00D9               	movwf	_valorPot1^(0+128)
  4760                           
  4761                           ;Progra_IRONMAN.c: 142:                 PWM_duty(1, 0.00025f*((valorPot1)/255.0f));
  4762     0DD8  3039               	movlw	57
  4763     0DD9  1283               	bcf	3,5	;RP0=0, select bank0
  4764     0DDA  1303               	bcf	3,6	;RP1=0, select bank0
  4765     0DDB  00BD               	movwf	i1___flmul@b+3
  4766     0DDC  3083               	movlw	131
  4767     0DDD  00BC               	movwf	i1___flmul@b+2
  4768     0DDE  3012               	movlw	18
  4769     0DDF  00BB               	movwf	i1___flmul@b+1
  4770     0DE0  306F               	movlw	111
  4771     0DE1  00BA               	movwf	i1___flmul@b
  4772     0DE2  3043               	movlw	67
  4773     0DE3  00A3               	movwf	i1___fldiv@a+3
  4774     0DE4  307F               	movlw	127
  4775     0DE5  00A2               	movwf	i1___fldiv@a+2
  4776     0DE6  3000               	movlw	0
  4777     0DE7  00A1               	movwf	i1___fldiv@a+1
  4778     0DE8  3000               	movlw	0
  4779     0DE9  00A0               	movwf	i1___fldiv@a
  4780     0DEA  1683               	bsf	3,5	;RP0=1, select bank1
  4781     0DEB  1303               	bcf	3,6	;RP1=0, select bank1
  4782     0DEC  0859               	movf	_valorPot1^(0+128),w
  4783     0DED  00F0               	movwf	___xxtofl@val
  4784     0DEE  085A               	movf	(_valorPot1+1)^(0+128),w
  4785     0DEF  00F1               	movwf	___xxtofl@val+1
  4786     0DF0  3000               	movlw	0
  4787     0DF1  1BF1               	btfsc	___xxtofl@val+1,7
  4788     0DF2  30FF               	movlw	255
  4789     0DF3  00F2               	movwf	___xxtofl@val+2
  4790     0DF4  00F3               	movwf	___xxtofl@val+3
  4791     0DF5  3001               	movlw	1
  4792     0DF6  120A  158A  200A  120A  158A  	fcall	___xxtofl
  4793     0DFB  0873               	movf	?___xxtofl+3,w
  4794     0DFC  1283               	bcf	3,5	;RP0=0, select bank0
  4795     0DFD  1303               	bcf	3,6	;RP1=0, select bank0
  4796     0DFE  00A7               	movwf	i1___fldiv@b+3
  4797     0DFF  0872               	movf	?___xxtofl+2,w
  4798     0E00  00A6               	movwf	i1___fldiv@b+2
  4799     0E01  0871               	movf	?___xxtofl+1,w
  4800     0E02  00A5               	movwf	i1___fldiv@b+1
  4801     0E03  0870               	movf	?___xxtofl,w
  4802     0E04  00A4               	movwf	i1___fldiv@b
  4803     0E05  160A  118A  262D  120A  158A  	fcall	i1___fldiv
  4804     0E0A  1283               	bcf	3,5	;RP0=0, select bank0
  4805     0E0B  1303               	bcf	3,6	;RP1=0, select bank0
  4806     0E0C  0823               	movf	?i1___fldiv+3,w
  4807     0E0D  00C1               	movwf	i1___flmul@a+3
  4808     0E0E  0822               	movf	?i1___fldiv+2,w
  4809     0E0F  00C0               	movwf	i1___flmul@a+2
  4810     0E10  0821               	movf	?i1___fldiv+1,w
  4811     0E11  00BF               	movwf	i1___flmul@a+1
  4812     0E12  0820               	movf	?i1___fldiv,w
  4813     0E13  00BE               	movwf	i1___flmul@a
  4814     0E14  120A  118A  237F  120A  158A  	fcall	i1___flmul
  4815     0E19  1283               	bcf	3,5	;RP0=0, select bank0
  4816     0E1A  1303               	bcf	3,6	;RP1=0, select bank0
  4817     0E1B  083D               	movf	?i1___flmul+3,w
  4818     0E1C  1683               	bsf	3,5	;RP0=1, select bank1
  4819     0E1D  1303               	bcf	3,6	;RP1=0, select bank1
  4820     0E1E  00C4               	movwf	(_isr$1406+3)^(0+128)
  4821     0E1F  1283               	bcf	3,5	;RP0=0, select bank0
  4822     0E20  1303               	bcf	3,6	;RP1=0, select bank0
  4823     0E21  083C               	movf	?i1___flmul+2,w
  4824     0E22  1683               	bsf	3,5	;RP0=1, select bank1
  4825     0E23  1303               	bcf	3,6	;RP1=0, select bank1
  4826     0E24  00C3               	movwf	(_isr$1406+2)^(0+128)
  4827     0E25  1283               	bcf	3,5	;RP0=0, select bank0
  4828     0E26  1303               	bcf	3,6	;RP1=0, select bank0
  4829     0E27  083B               	movf	?i1___flmul+1,w
  4830     0E28  1683               	bsf	3,5	;RP0=1, select bank1
  4831     0E29  1303               	bcf	3,6	;RP1=0, select bank1
  4832     0E2A  00C2               	movwf	(_isr$1406+1)^(0+128)
  4833     0E2B  1283               	bcf	3,5	;RP0=0, select bank0
  4834     0E2C  1303               	bcf	3,6	;RP1=0, select bank0
  4835     0E2D  083A               	movf	?i1___flmul,w
  4836     0E2E  1683               	bsf	3,5	;RP0=1, select bank1
  4837     0E2F  1303               	bcf	3,6	;RP1=0, select bank1
  4838     0E30  00C1               	movwf	_isr$1406^(0+128)
  4839                           
  4840                           ;Progra_IRONMAN.c: 142:                 PWM_duty(1, 0.00025f*((valorPot1)/255.0f));
  4841     0E31  0844               	movf	(_isr$1406+3)^(0+128),w
  4842     0E32  00A5               	movwf	(i1PWM_duty@duty+3)^(0+128)
  4843     0E33  0843               	movf	(_isr$1406+2)^(0+128),w
  4844     0E34  00A4               	movwf	(i1PWM_duty@duty+2)^(0+128)
  4845     0E35  0842               	movf	(_isr$1406+1)^(0+128),w
  4846     0E36  00A3               	movwf	(i1PWM_duty@duty+1)^(0+128)
  4847     0E37  0841               	movf	_isr$1406^(0+128),w
  4848     0E38  00A2               	movwf	i1PWM_duty@duty^(0+128)
  4849     0E39  3001               	movlw	1
  4850     0E3A  120A  118A  26C4  120A  158A  	fcall	i1_PWM_duty
  4851                           
  4852                           ;Progra_IRONMAN.c: 143:             }
  4853     0E3F  2FF0               	goto	i1l3446
  4854     0E40                     i1l3426:
  4855     0E40  1283               	bcf	3,5	;RP0=0, select bank0
  4856     0E41  1303               	bcf	3,6	;RP1=0, select bank0
  4857     0E42  0C1F               	rrf	31,w	;volatile
  4858     0E43  1683               	bsf	3,5	;RP0=1, select bank1
  4859     0E44  1303               	bcf	3,6	;RP1=0, select bank1
  4860     0E45  00B9               	movwf	??_isr^(0+128)
  4861     0E46  0C39               	rrf	??_isr^(0+128),w
  4862     0E47  390F               	andlw	15
  4863     0E48  3A01               	xorlw	1
  4864     0E49  1D03               	skipz
  4865     0E4A  2E4C               	goto	u528_21
  4866     0E4B  2E4D               	goto	u528_20
  4867     0E4C                     u528_21:
  4868     0E4C  2EA8               	goto	i1l3430
  4869     0E4D                     u528_20:
  4870     0E4D                     i1l3428:
  4871                           
  4872                           ;Progra_IRONMAN.c: 146:                 ang1 = ((ADRESH*0.0470)+6);
  4873     0E4D  1283               	bcf	3,5	;RP0=0, select bank0
  4874     0E4E  1303               	bcf	3,6	;RP1=0, select bank0
  4875     0E4F  081E               	movf	30,w	;volatile
  4876     0E50  1683               	bsf	3,5	;RP0=1, select bank1
  4877     0E51  1303               	bcf	3,6	;RP1=0, select bank1
  4878     0E52  00B9               	movwf	??_isr^(0+128)
  4879     0E53  01BA               	clrf	(??_isr^(0+128)+1)
  4880     0E54  01BB               	clrf	(??_isr^(0+128)+2)
  4881     0E55  01BC               	clrf	(??_isr^(0+128)+3)
  4882     0E56  083C               	movf	(??_isr+3)^(0+128),w
  4883     0E57  00F3               	movwf	___xxtofl@val+3
  4884     0E58  083B               	movf	(??_isr+2)^(0+128),w
  4885     0E59  00F2               	movwf	___xxtofl@val+2
  4886     0E5A  083A               	movf	(??_isr+1)^(0+128),w
  4887     0E5B  00F1               	movwf	___xxtofl@val+1
  4888     0E5C  0839               	movf	??_isr^(0+128),w
  4889     0E5D  00F0               	movwf	___xxtofl@val
  4890     0E5E  3001               	movlw	1
  4891     0E5F  120A  158A  200A  120A  158A  	fcall	___xxtofl
  4892     0E64  0873               	movf	?___xxtofl+3,w
  4893     0E65  1283               	bcf	3,5	;RP0=0, select bank0
  4894     0E66  1303               	bcf	3,6	;RP1=0, select bank0
  4895     0E67  00C1               	movwf	i1___flmul@a+3
  4896     0E68  0872               	movf	?___xxtofl+2,w
  4897     0E69  00C0               	movwf	i1___flmul@a+2
  4898     0E6A  0871               	movf	?___xxtofl+1,w
  4899     0E6B  00BF               	movwf	i1___flmul@a+1
  4900     0E6C  0870               	movf	?___xxtofl,w
  4901     0E6D  00BE               	movwf	i1___flmul@a
  4902     0E6E  303D               	movlw	61
  4903     0E6F  00BD               	movwf	i1___flmul@b+3
  4904     0E70  3040               	movlw	64
  4905     0E71  00BC               	movwf	i1___flmul@b+2
  4906     0E72  3083               	movlw	131
  4907     0E73  00BB               	movwf	i1___flmul@b+1
  4908     0E74  3012               	movlw	18
  4909     0E75  00BA               	movwf	i1___flmul@b
  4910     0E76  120A  118A  237F  120A  158A  	fcall	i1___flmul
  4911     0E7B  1283               	bcf	3,5	;RP0=0, select bank0
  4912     0E7C  1303               	bcf	3,6	;RP1=0, select bank0
  4913     0E7D  083D               	movf	?i1___flmul+3,w
  4914     0E7E  00DB               	movwf	___fladd@a+3
  4915     0E7F  083C               	movf	?i1___flmul+2,w
  4916     0E80  00DA               	movwf	___fladd@a+2
  4917     0E81  083B               	movf	?i1___flmul+1,w
  4918     0E82  00D9               	movwf	___fladd@a+1
  4919     0E83  083A               	movf	?i1___flmul,w
  4920     0E84  00D8               	movwf	___fladd@a
  4921     0E85  3040               	movlw	64
  4922     0E86  00D7               	movwf	___fladd@b+3
  4923     0E87  30C0               	movlw	192
  4924     0E88  00D6               	movwf	___fladd@b+2
  4925     0E89  3000               	movlw	0
  4926     0E8A  00D5               	movwf	___fladd@b+1
  4927     0E8B  3000               	movlw	0
  4928     0E8C  00D4               	movwf	___fladd@b
  4929     0E8D  120A  158A  2295  120A  158A  	fcall	___fladd
  4930     0E92  1283               	bcf	3,5	;RP0=0, select bank0
  4931     0E93  1303               	bcf	3,6	;RP1=0, select bank0
  4932     0E94  0857               	movf	?___fladd+3,w
  4933     0E95  00EB               	movwf	i1___fltol@f1+3
  4934     0E96  0856               	movf	?___fladd+2,w
  4935     0E97  00EA               	movwf	i1___fltol@f1+2
  4936     0E98  0855               	movf	?___fladd+1,w
  4937     0E99  00E9               	movwf	i1___fltol@f1+1
  4938     0E9A  0854               	movf	?___fladd,w
  4939     0E9B  00E8               	movwf	i1___fltol@f1
  4940     0E9C  160A  118A  20C9  120A  158A  	fcall	i1___fltol
  4941     0EA1  1283               	bcf	3,5	;RP0=0, select bank0
  4942     0EA2  1303               	bcf	3,6	;RP1=0, select bank0
  4943     0EA3  0868               	movf	?i1___fltol,w
  4944     0EA4  1683               	bsf	3,5	;RP0=1, select bank3
  4945     0EA5  1703               	bsf	3,6	;RP1=1, select bank3
  4946     0EA6  00E7               	movwf	_ang1^(0+384)
  4947                           
  4948                           ;Progra_IRONMAN.c: 147:             }
  4949     0EA7  2FF0               	goto	i1l3446
  4950     0EA8                     i1l3430:
  4951     0EA8  1283               	bcf	3,5	;RP0=0, select bank0
  4952     0EA9  1303               	bcf	3,6	;RP1=0, select bank0
  4953     0EAA  0C1F               	rrf	31,w	;volatile
  4954     0EAB  1683               	bsf	3,5	;RP0=1, select bank1
  4955     0EAC  1303               	bcf	3,6	;RP1=0, select bank1
  4956     0EAD  00B9               	movwf	??_isr^(0+128)
  4957     0EAE  0C39               	rrf	??_isr^(0+128),w
  4958     0EAF  390F               	andlw	15
  4959     0EB0  3A02               	xorlw	2
  4960     0EB1  1D03               	skipz
  4961     0EB2  2EB4               	goto	u529_21
  4962     0EB3  2EB5               	goto	u529_20
  4963     0EB4                     u529_21:
  4964     0EB4  2F10               	goto	i1l3434
  4965     0EB5                     u529_20:
  4966     0EB5                     i1l3432:
  4967                           
  4968                           ;Progra_IRONMAN.c: 150:                 ang2 = ((ADRESH*0.0470)+6);
  4969     0EB5  1283               	bcf	3,5	;RP0=0, select bank0
  4970     0EB6  1303               	bcf	3,6	;RP1=0, select bank0
  4971     0EB7  081E               	movf	30,w	;volatile
  4972     0EB8  1683               	bsf	3,5	;RP0=1, select bank1
  4973     0EB9  1303               	bcf	3,6	;RP1=0, select bank1
  4974     0EBA  00B9               	movwf	??_isr^(0+128)
  4975     0EBB  01BA               	clrf	(??_isr^(0+128)+1)
  4976     0EBC  01BB               	clrf	(??_isr^(0+128)+2)
  4977     0EBD  01BC               	clrf	(??_isr^(0+128)+3)
  4978     0EBE  083C               	movf	(??_isr+3)^(0+128),w
  4979     0EBF  00F3               	movwf	___xxtofl@val+3
  4980     0EC0  083B               	movf	(??_isr+2)^(0+128),w
  4981     0EC1  00F2               	movwf	___xxtofl@val+2
  4982     0EC2  083A               	movf	(??_isr+1)^(0+128),w
  4983     0EC3  00F1               	movwf	___xxtofl@val+1
  4984     0EC4  0839               	movf	??_isr^(0+128),w
  4985     0EC5  00F0               	movwf	___xxtofl@val
  4986     0EC6  3001               	movlw	1
  4987     0EC7  120A  158A  200A  120A  158A  	fcall	___xxtofl
  4988     0ECC  0873               	movf	?___xxtofl+3,w
  4989     0ECD  1283               	bcf	3,5	;RP0=0, select bank0
  4990     0ECE  1303               	bcf	3,6	;RP1=0, select bank0
  4991     0ECF  00C1               	movwf	i1___flmul@a+3
  4992     0ED0  0872               	movf	?___xxtofl+2,w
  4993     0ED1  00C0               	movwf	i1___flmul@a+2
  4994     0ED2  0871               	movf	?___xxtofl+1,w
  4995     0ED3  00BF               	movwf	i1___flmul@a+1
  4996     0ED4  0870               	movf	?___xxtofl,w
  4997     0ED5  00BE               	movwf	i1___flmul@a
  4998     0ED6  303D               	movlw	61
  4999     0ED7  00BD               	movwf	i1___flmul@b+3
  5000     0ED8  3040               	movlw	64
  5001     0ED9  00BC               	movwf	i1___flmul@b+2
  5002     0EDA  3083               	movlw	131
  5003     0EDB  00BB               	movwf	i1___flmul@b+1
  5004     0EDC  3012               	movlw	18
  5005     0EDD  00BA               	movwf	i1___flmul@b
  5006     0EDE  120A  118A  237F  120A  158A  	fcall	i1___flmul
  5007     0EE3  1283               	bcf	3,5	;RP0=0, select bank0
  5008     0EE4  1303               	bcf	3,6	;RP1=0, select bank0
  5009     0EE5  083D               	movf	?i1___flmul+3,w
  5010     0EE6  00DB               	movwf	___fladd@a+3
  5011     0EE7  083C               	movf	?i1___flmul+2,w
  5012     0EE8  00DA               	movwf	___fladd@a+2
  5013     0EE9  083B               	movf	?i1___flmul+1,w
  5014     0EEA  00D9               	movwf	___fladd@a+1
  5015     0EEB  083A               	movf	?i1___flmul,w
  5016     0EEC  00D8               	movwf	___fladd@a
  5017     0EED  3040               	movlw	64
  5018     0EEE  00D7               	movwf	___fladd@b+3
  5019     0EEF  30C0               	movlw	192
  5020     0EF0  00D6               	movwf	___fladd@b+2
  5021     0EF1  3000               	movlw	0
  5022     0EF2  00D5               	movwf	___fladd@b+1
  5023     0EF3  3000               	movlw	0
  5024     0EF4  00D4               	movwf	___fladd@b
  5025     0EF5  120A  158A  2295  120A  158A  	fcall	___fladd
  5026     0EFA  1283               	bcf	3,5	;RP0=0, select bank0
  5027     0EFB  1303               	bcf	3,6	;RP1=0, select bank0
  5028     0EFC  0857               	movf	?___fladd+3,w
  5029     0EFD  00EB               	movwf	i1___fltol@f1+3
  5030     0EFE  0856               	movf	?___fladd+2,w
  5031     0EFF  00EA               	movwf	i1___fltol@f1+2
  5032     0F00  0855               	movf	?___fladd+1,w
  5033     0F01  00E9               	movwf	i1___fltol@f1+1
  5034     0F02  0854               	movf	?___fladd,w
  5035     0F03  00E8               	movwf	i1___fltol@f1
  5036     0F04  160A  118A  20C9  120A  158A  	fcall	i1___fltol
  5037     0F09  1283               	bcf	3,5	;RP0=0, select bank0
  5038     0F0A  1303               	bcf	3,6	;RP1=0, select bank0
  5039     0F0B  0868               	movf	?i1___fltol,w
  5040     0F0C  1683               	bsf	3,5	;RP0=1, select bank3
  5041     0F0D  1703               	bsf	3,6	;RP1=1, select bank3
  5042     0F0E  00E6               	movwf	_ang2^(0+384)
  5043                           
  5044                           ;Progra_IRONMAN.c: 151:             }
  5045     0F0F  2FF0               	goto	i1l3446
  5046     0F10                     i1l3434:
  5047     0F10  1283               	bcf	3,5	;RP0=0, select bank0
  5048     0F11  1303               	bcf	3,6	;RP1=0, select bank0
  5049     0F12  0C1F               	rrf	31,w	;volatile
  5050     0F13  1683               	bsf	3,5	;RP0=1, select bank1
  5051     0F14  1303               	bcf	3,6	;RP1=0, select bank1
  5052     0F15  00B9               	movwf	??_isr^(0+128)
  5053     0F16  0C39               	rrf	??_isr^(0+128),w
  5054     0F17  390F               	andlw	15
  5055     0F18  3A03               	xorlw	3
  5056     0F19  1D03               	skipz
  5057     0F1A  2F1C               	goto	u530_21
  5058     0F1B  2F1D               	goto	u530_20
  5059     0F1C                     u530_21:
  5060     0F1C  2FD2               	goto	i1l166
  5061     0F1D                     u530_20:
  5062     0F1D                     i1l3436:
  5063                           
  5064                           ;Progra_IRONMAN.c: 154:                 valorPot2 = 0.9*ADRESH;
  5065     0F1D  1283               	bcf	3,5	;RP0=0, select bank0
  5066     0F1E  1303               	bcf	3,6	;RP1=0, select bank0
  5067     0F1F  081E               	movf	30,w	;volatile
  5068     0F20  1683               	bsf	3,5	;RP0=1, select bank1
  5069     0F21  1303               	bcf	3,6	;RP1=0, select bank1
  5070     0F22  00B9               	movwf	??_isr^(0+128)
  5071     0F23  01BA               	clrf	(??_isr^(0+128)+1)
  5072     0F24  01BB               	clrf	(??_isr^(0+128)+2)
  5073     0F25  01BC               	clrf	(??_isr^(0+128)+3)
  5074     0F26  083C               	movf	(??_isr+3)^(0+128),w
  5075     0F27  00F3               	movwf	___xxtofl@val+3
  5076     0F28  083B               	movf	(??_isr+2)^(0+128),w
  5077     0F29  00F2               	movwf	___xxtofl@val+2
  5078     0F2A  083A               	movf	(??_isr+1)^(0+128),w
  5079     0F2B  00F1               	movwf	___xxtofl@val+1
  5080     0F2C  0839               	movf	??_isr^(0+128),w
  5081     0F2D  00F0               	movwf	___xxtofl@val
  5082     0F2E  3001               	movlw	1
  5083     0F2F  120A  158A  200A  120A  158A  	fcall	___xxtofl
  5084     0F34  0873               	movf	?___xxtofl+3,w
  5085     0F35  1283               	bcf	3,5	;RP0=0, select bank0
  5086     0F36  1303               	bcf	3,6	;RP1=0, select bank0
  5087     0F37  00C1               	movwf	i1___flmul@a+3
  5088     0F38  0872               	movf	?___xxtofl+2,w
  5089     0F39  00C0               	movwf	i1___flmul@a+2
  5090     0F3A  0871               	movf	?___xxtofl+1,w
  5091     0F3B  00BF               	movwf	i1___flmul@a+1
  5092     0F3C  0870               	movf	?___xxtofl,w
  5093     0F3D  00BE               	movwf	i1___flmul@a
  5094     0F3E  303F               	movlw	63
  5095     0F3F  00BD               	movwf	i1___flmul@b+3
  5096     0F40  3066               	movlw	102
  5097     0F41  00BC               	movwf	i1___flmul@b+2
  5098     0F42  3066               	movlw	102
  5099     0F43  00BB               	movwf	i1___flmul@b+1
  5100     0F44  3066               	movlw	102
  5101     0F45  00BA               	movwf	i1___flmul@b
  5102     0F46  120A  118A  237F  120A  158A  	fcall	i1___flmul
  5103     0F4B  1283               	bcf	3,5	;RP0=0, select bank0
  5104     0F4C  1303               	bcf	3,6	;RP1=0, select bank0
  5105     0F4D  083D               	movf	?i1___flmul+3,w
  5106     0F4E  00EB               	movwf	i1___fltol@f1+3
  5107     0F4F  083C               	movf	?i1___flmul+2,w
  5108     0F50  00EA               	movwf	i1___fltol@f1+2
  5109     0F51  083B               	movf	?i1___flmul+1,w
  5110     0F52  00E9               	movwf	i1___fltol@f1+1
  5111     0F53  083A               	movf	?i1___flmul,w
  5112     0F54  00E8               	movwf	i1___fltol@f1
  5113     0F55  160A  118A  20C9  120A  158A  	fcall	i1___fltol
  5114     0F5A  1283               	bcf	3,5	;RP0=0, select bank0
  5115     0F5B  1303               	bcf	3,6	;RP1=0, select bank0
  5116     0F5C  0869               	movf	?i1___fltol+1,w
  5117     0F5D  1683               	bsf	3,5	;RP0=1, select bank1
  5118     0F5E  1303               	bcf	3,6	;RP1=0, select bank1
  5119     0F5F  00D8               	movwf	(_valorPot2+1)^(0+128)
  5120     0F60  1283               	bcf	3,5	;RP0=0, select bank0
  5121     0F61  1303               	bcf	3,6	;RP1=0, select bank0
  5122     0F62  0868               	movf	?i1___fltol,w
  5123     0F63  1683               	bsf	3,5	;RP0=1, select bank1
  5124     0F64  1303               	bcf	3,6	;RP1=0, select bank1
  5125     0F65  00D7               	movwf	_valorPot2^(0+128)
  5126                           
  5127                           ;Progra_IRONMAN.c: 155:                 PWM_duty(2, 0.00025f*((ADRESH)/255.0f));
  5128     0F66  3039               	movlw	57
  5129     0F67  1283               	bcf	3,5	;RP0=0, select bank0
  5130     0F68  1303               	bcf	3,6	;RP1=0, select bank0
  5131     0F69  00BD               	movwf	i1___flmul@b+3
  5132     0F6A  3083               	movlw	131
  5133     0F6B  00BC               	movwf	i1___flmul@b+2
  5134     0F6C  3012               	movlw	18
  5135     0F6D  00BB               	movwf	i1___flmul@b+1
  5136     0F6E  306F               	movlw	111
  5137     0F6F  00BA               	movwf	i1___flmul@b
  5138     0F70  3043               	movlw	67
  5139     0F71  00A3               	movwf	i1___fldiv@a+3
  5140     0F72  307F               	movlw	127
  5141     0F73  00A2               	movwf	i1___fldiv@a+2
  5142     0F74  3000               	movlw	0
  5143     0F75  00A1               	movwf	i1___fldiv@a+1
  5144     0F76  3000               	movlw	0
  5145     0F77  00A0               	movwf	i1___fldiv@a
  5146     0F78  081E               	movf	30,w	;volatile
  5147     0F79  1683               	bsf	3,5	;RP0=1, select bank1
  5148     0F7A  1303               	bcf	3,6	;RP1=0, select bank1
  5149     0F7B  00B9               	movwf	??_isr^(0+128)
  5150     0F7C  01BA               	clrf	(??_isr^(0+128)+1)
  5151     0F7D  01BB               	clrf	(??_isr^(0+128)+2)
  5152     0F7E  01BC               	clrf	(??_isr^(0+128)+3)
  5153     0F7F  083C               	movf	(??_isr+3)^(0+128),w
  5154     0F80  00F3               	movwf	___xxtofl@val+3
  5155     0F81  083B               	movf	(??_isr+2)^(0+128),w
  5156     0F82  00F2               	movwf	___xxtofl@val+2
  5157     0F83  083A               	movf	(??_isr+1)^(0+128),w
  5158     0F84  00F1               	movwf	___xxtofl@val+1
  5159     0F85  0839               	movf	??_isr^(0+128),w
  5160     0F86  00F0               	movwf	___xxtofl@val
  5161     0F87  3001               	movlw	1
  5162     0F88  120A  158A  200A  120A  158A  	fcall	___xxtofl
  5163     0F8D  0873               	movf	?___xxtofl+3,w
  5164     0F8E  1283               	bcf	3,5	;RP0=0, select bank0
  5165     0F8F  1303               	bcf	3,6	;RP1=0, select bank0
  5166     0F90  00A7               	movwf	i1___fldiv@b+3
  5167     0F91  0872               	movf	?___xxtofl+2,w
  5168     0F92  00A6               	movwf	i1___fldiv@b+2
  5169     0F93  0871               	movf	?___xxtofl+1,w
  5170     0F94  00A5               	movwf	i1___fldiv@b+1
  5171     0F95  0870               	movf	?___xxtofl,w
  5172     0F96  00A4               	movwf	i1___fldiv@b
  5173     0F97  160A  118A  262D  120A  158A  	fcall	i1___fldiv
  5174     0F9C  1283               	bcf	3,5	;RP0=0, select bank0
  5175     0F9D  1303               	bcf	3,6	;RP1=0, select bank0
  5176     0F9E  0823               	movf	?i1___fldiv+3,w
  5177     0F9F  00C1               	movwf	i1___flmul@a+3
  5178     0FA0  0822               	movf	?i1___fldiv+2,w
  5179     0FA1  00C0               	movwf	i1___flmul@a+2
  5180     0FA2  0821               	movf	?i1___fldiv+1,w
  5181     0FA3  00BF               	movwf	i1___flmul@a+1
  5182     0FA4  0820               	movf	?i1___fldiv,w
  5183     0FA5  00BE               	movwf	i1___flmul@a
  5184     0FA6  120A  118A  237F  120A  158A  	fcall	i1___flmul
  5185     0FAB  1283               	bcf	3,5	;RP0=0, select bank0
  5186     0FAC  1303               	bcf	3,6	;RP1=0, select bank0
  5187     0FAD  083D               	movf	?i1___flmul+3,w
  5188     0FAE  1683               	bsf	3,5	;RP0=1, select bank1
  5189     0FAF  1303               	bcf	3,6	;RP1=0, select bank1
  5190     0FB0  00C4               	movwf	(_isr$1406+3)^(0+128)
  5191     0FB1  1283               	bcf	3,5	;RP0=0, select bank0
  5192     0FB2  1303               	bcf	3,6	;RP1=0, select bank0
  5193     0FB3  083C               	movf	?i1___flmul+2,w
  5194     0FB4  1683               	bsf	3,5	;RP0=1, select bank1
  5195     0FB5  1303               	bcf	3,6	;RP1=0, select bank1
  5196     0FB6  00C3               	movwf	(_isr$1406+2)^(0+128)
  5197     0FB7  1283               	bcf	3,5	;RP0=0, select bank0
  5198     0FB8  1303               	bcf	3,6	;RP1=0, select bank0
  5199     0FB9  083B               	movf	?i1___flmul+1,w
  5200     0FBA  1683               	bsf	3,5	;RP0=1, select bank1
  5201     0FBB  1303               	bcf	3,6	;RP1=0, select bank1
  5202     0FBC  00C2               	movwf	(_isr$1406+1)^(0+128)
  5203     0FBD  1283               	bcf	3,5	;RP0=0, select bank0
  5204     0FBE  1303               	bcf	3,6	;RP1=0, select bank0
  5205     0FBF  083A               	movf	?i1___flmul,w
  5206     0FC0  1683               	bsf	3,5	;RP0=1, select bank1
  5207     0FC1  1303               	bcf	3,6	;RP1=0, select bank1
  5208     0FC2  00C1               	movwf	_isr$1406^(0+128)
  5209                           
  5210                           ;Progra_IRONMAN.c: 155:                 PWM_duty(2, 0.00025f*((ADRESH)/255.0f));
  5211     0FC3  0844               	movf	(_isr$1406+3)^(0+128),w
  5212     0FC4  00A5               	movwf	(i1PWM_duty@duty+3)^(0+128)
  5213     0FC5  0843               	movf	(_isr$1406+2)^(0+128),w
  5214     0FC6  00A4               	movwf	(i1PWM_duty@duty+2)^(0+128)
  5215     0FC7  0842               	movf	(_isr$1406+1)^(0+128),w
  5216     0FC8  00A3               	movwf	(i1PWM_duty@duty+1)^(0+128)
  5217     0FC9  0841               	movf	_isr$1406^(0+128),w
  5218     0FCA  00A2               	movwf	i1PWM_duty@duty^(0+128)
  5219     0FCB  3002               	movlw	2
  5220     0FCC  120A  118A  26C4  120A  158A  	fcall	i1_PWM_duty
  5221     0FD1  2FF0               	goto	i1l3446
  5222     0FD2                     i1l166:
  5223                           
  5224                           ;Progra_IRONMAN.c: 161:         }
  5225     0FD2  2FF0               	goto	i1l3446
  5226     0FD3                     i1l3438:
  5227     0FD3  035B               	decf	_modo^(0+128),w
  5228     0FD4  045C               	iorwf	(_modo+1)^(0+128),w
  5229     0FD5  1D03               	btfss	3,2
  5230     0FD6  2FD8               	goto	u531_21
  5231     0FD7  2FD9               	goto	u531_20
  5232     0FD8                     u531_21:
  5233     0FD8  2FF0               	goto	i1l3446
  5234     0FD9                     u531_20:
  5235     0FD9                     i1l3440:
  5236                           
  5237                           ;Progra_IRONMAN.c: 164:             if (ADCON0bits.CHS == 0b0100){
  5238     0FD9  1283               	bcf	3,5	;RP0=0, select bank0
  5239     0FDA  1303               	bcf	3,6	;RP1=0, select bank0
  5240     0FDB  0C1F               	rrf	31,w	;volatile
  5241     0FDC  1683               	bsf	3,5	;RP0=1, select bank1
  5242     0FDD  1303               	bcf	3,6	;RP1=0, select bank1
  5243     0FDE  00B9               	movwf	??_isr^(0+128)
  5244     0FDF  0C39               	rrf	??_isr^(0+128),w
  5245     0FE0  390F               	andlw	15
  5246     0FE1  3A04               	xorlw	4
  5247     0FE2  1D03               	skipz
  5248     0FE3  2FE5               	goto	u532_21
  5249     0FE4  2FE6               	goto	u532_20
  5250     0FE5                     u532_21:
  5251     0FE5  2FF0               	goto	i1l3446
  5252     0FE6                     u532_20:
  5253     0FE6                     i1l3442:
  5254                           
  5255                           ;Progra_IRONMAN.c: 165:                 potenciometro = ADRESH;
  5256     0FE6  1283               	bcf	3,5	;RP0=0, select bank0
  5257     0FE7  1303               	bcf	3,6	;RP1=0, select bank0
  5258     0FE8  081E               	movf	30,w	;volatile
  5259     0FE9  1683               	bsf	3,5	;RP0=1, select bank1
  5260     0FEA  1303               	bcf	3,6	;RP1=0, select bank1
  5261     0FEB  00DD               	movwf	_potenciometro^(0+128)
  5262     0FEC                     i1l3444:
  5263                           
  5264                           ;Progra_IRONMAN.c: 166:                 contador = 0;
  5265     0FEC  1683               	bsf	3,5	;RP0=1, select bank3
  5266     0FED  1703               	bsf	3,6	;RP1=1, select bank3
  5267     0FEE  01E8               	clrf	_contador^(0+384)
  5268     0FEF  01E9               	clrf	(_contador+1)^(0+384)
  5269     0FF0                     i1l3446:
  5270                           
  5271                           ;Progra_IRONMAN.c: 170:         PIR1bits.ADIF = 0;
  5272     0FF0  1283               	bcf	3,5	;RP0=0, select bank0
  5273     0FF1  1303               	bcf	3,6	;RP1=0, select bank0
  5274     0FF2  130C               	bcf	12,6	;volatile
  5275     0FF3                     i1l175:
  5276     0FF3  1683               	bsf	3,5	;RP0=1, select bank1
  5277     0FF4  1303               	bcf	3,6	;RP1=0, select bank1
  5278     0FF5  0840               	movf	(??_isr+7)^(0+128),w
  5279     0FF6  00FF               	movwf	btemp+1
  5280     0FF7  083F               	movf	(??_isr+6)^(0+128),w
  5281     0FF8  008A               	movwf	10
  5282     0FF9  083E               	movf	(??_isr+5)^(0+128),w
  5283     0FFA  0084               	movwf	4
  5284     0FFB  0E3D               	swapf	(??_isr+4)^(0+128),w
  5285     0FFC  0083               	movwf	3
  5286     0FFD  0EFE               	swapf	btemp,f
  5287     0FFE  0E7E               	swapf	btemp,w
  5288     0FFF  0009               	retfie
  5289     1000                     __end_of_isr:
  5290                           
  5291                           	psect	intentry
  5292     0004                     __pintentry:	
  5293                           ;incstack = 0
  5294 ;; hardware stack exceeded
  5295                           ; Regs used in _isr: [wreg-fsr0h+status,2+status,0+btemp+1+pclath+cstack]
  5296                           
  5297     0004                     interrupt_function:
  5298     007E                     saved_w	set	btemp
  5299     0004  00FE               	movwf	btemp
  5300     0005  0E03               	swapf	3,w
  5301     0006  1683               	bsf	3,5	;RP0=1, select bank1
  5302     0007  1303               	bcf	3,6	;RP1=0, select bank1
  5303     0008  00BD               	movwf	(??_isr+4)^(0+128)
  5304     0009  0804               	movf	4,w
  5305     000A  00BE               	movwf	(??_isr+5)^(0+128)
  5306     000B  080A               	movf	10,w
  5307     000C  00BF               	movwf	(??_isr+6)^(0+128)
  5308     000D  087F               	movf	btemp+1,w
  5309     000E  00C0               	movwf	(??_isr+7)^(0+128)
  5310     000F  120A  158A  2CED   	ljmp	_isr
  5311                           
  5312                           	psect	text10
  5313     1E5F                     __ptext10:	
  5314 ;; *************** function _write_EEPROM *****************
  5315 ;; Defined at:
  5316 ;;		line 393 in file "Progra_IRONMAN.c"
  5317 ;; Parameters:    Size  Location     Type
  5318 ;;  address         1    wreg     unsigned char 
  5319 ;;  data            1    0[COMMON] unsigned char 
  5320 ;; Auto vars:     Size  Location     Type
  5321 ;;  address         1    1[COMMON] unsigned char 
  5322 ;;  gieStatus       1    2[COMMON] unsigned char 
  5323 ;; Return value:  Size  Location     Type
  5324 ;;                  1    wreg      void 
  5325 ;; Registers used:
  5326 ;;		wreg, status,2, status,0
  5327 ;; Tracked objects:
  5328 ;;		On entry : 0/0
  5329 ;;		On exit  : 0/0
  5330 ;;		Unchanged: 0/0
  5331 ;; Data sizes:     COMMON   BANK0   BANK1   BANK3   BANK2
  5332 ;;      Params:         1       0       0       0       0
  5333 ;;      Locals:         2       0       0       0       0
  5334 ;;      Temps:          0       0       0       0       0
  5335 ;;      Totals:         3       0       0       0       0
  5336 ;;Total ram usage:        3 bytes
  5337 ;; Hardware stack levels used: 1
  5338 ;; This function calls:
  5339 ;;		Nothing
  5340 ;; This function is called by:
  5341 ;;		_isr
  5342 ;; This function uses a non-reentrant model
  5343 ;;
  5344                           
  5345     1E5F                     _write_EEPROM:	
  5346                           ;psect for function _write_EEPROM
  5347                           
  5348                           
  5349                           ;incstack = 0
  5350                           ; Regs used in _write_EEPROM: [wreg+status,2+status,0]
  5351                           ;write_EEPROM@address stored from wreg
  5352     1E5F  00F1               	movwf	write_EEPROM@address
  5353     1E60                     i1l3242:
  5354     1E60                     i1l242:	
  5355                           ;Progra_IRONMAN.c: 394:     uint8_t gieStatus;;Progra_IRONMAN.c: 395:     while (WR);
  5356                           
  5357     1E60  1683               	bsf	3,5	;RP0=1, select bank3
  5358     1E61  1703               	bsf	3,6	;RP1=1, select bank3
  5359     1E62  188C               	btfsc	12,1	;volsfr
  5360     1E63  2E65               	goto	u511_21
  5361     1E64  2E66               	goto	u511_20
  5362     1E65                     u511_21:
  5363     1E65  2E60               	goto	i1l242
  5364     1E66                     u511_20:
  5365     1E66                     i1l3244:
  5366                           
  5367                           ;Progra_IRONMAN.c: 397:     EEADR = address;
  5368     1E66  0871               	movf	write_EEPROM@address,w
  5369     1E67  1283               	bcf	3,5	;RP0=0, select bank2
  5370     1E68  1703               	bsf	3,6	;RP1=1, select bank2
  5371     1E69  008D               	movwf	13	;volatile
  5372                           
  5373                           ;Progra_IRONMAN.c: 398:     EEDAT = data;
  5374     1E6A  0870               	movf	write_EEPROM@data,w
  5375     1E6B  008C               	movwf	12	;volatile
  5376     1E6C                     i1l3246:
  5377                           
  5378                           ;Progra_IRONMAN.c: 399:     EECON1bits.EEPGD = 0;
  5379     1E6C  1683               	bsf	3,5	;RP0=1, select bank3
  5380     1E6D  1703               	bsf	3,6	;RP1=1, select bank3
  5381     1E6E  138C               	bcf	12,7	;volsfr
  5382     1E6F                     i1l3248:
  5383                           
  5384                           ;Progra_IRONMAN.c: 400:     EECON1bits.WREN = 1;
  5385     1E6F  150C               	bsf	12,2	;volsfr
  5386     1E70                     i1l3250:
  5387                           
  5388                           ;Progra_IRONMAN.c: 401:     gieStatus = GIE;
  5389     1E70  3000               	movlw	0
  5390     1E71  1B8B               	btfsc	11,7	;volatile
  5391     1E72  3001               	movlw	1
  5392     1E73  00F2               	movwf	write_EEPROM@gieStatus
  5393     1E74                     i1l3252:
  5394                           
  5395                           ;Progra_IRONMAN.c: 402:     INTCONbits.GIE = 0;
  5396     1E74  138B               	bcf	11,7	;volatile
  5397     1E75                     i1l3254:
  5398                           
  5399                           ;Progra_IRONMAN.c: 403:     EECON2 = 0x55;
  5400     1E75  3055               	movlw	85
  5401     1E76  008D               	movwf	13	;volsfr
  5402     1E77                     i1l3256:
  5403                           
  5404                           ;Progra_IRONMAN.c: 404:     EECON2 = 0xAA;
  5405     1E77  30AA               	movlw	170
  5406     1E78  008D               	movwf	13	;volsfr
  5407     1E79                     i1l3258:
  5408                           
  5409                           ;Progra_IRONMAN.c: 405:     EECON1bits.WR = 1;
  5410     1E79  148C               	bsf	12,1	;volsfr
  5411     1E7A                     i1l3260:
  5412                           
  5413                           ;Progra_IRONMAN.c: 406:     EECON1bits.WREN = 0;
  5414     1E7A  110C               	bcf	12,2	;volsfr
  5415     1E7B                     i1l3262:
  5416                           
  5417                           ;Progra_IRONMAN.c: 408:     INTCONbits.GIE = gieStatus;
  5418     1E7B  0C72               	rrf	write_EEPROM@gieStatus,w
  5419     1E7C  1C03               	skipc
  5420     1E7D  138B               	bcf	11,7	;volatile
  5421     1E7E  1803               	skipnc
  5422     1E7F  178B               	bsf	11,7	;volatile
  5423     1E80                     i1l245:
  5424     1E80  0008               	return
  5425     1E81                     __end_of_write_EEPROM:
  5426                           
  5427                           	psect	text11
  5428     145C                     __ptext11:	
  5429 ;; *************** function _servos *****************
  5430 ;; Defined at:
  5431 ;;		line 203 in file "Progra_IRONMAN.c"
  5432 ;; Parameters:    Size  Location     Type
  5433 ;;  dato            1    wreg     unsigned char 
  5434 ;;  modo            2   14[BANK1 ] int 
  5435 ;; Auto vars:     Size  Location     Type
  5436 ;;  dato            1   24[BANK1 ] unsigned char 
  5437 ;; Return value:  Size  Location     Type
  5438 ;;                  1    wreg      void 
  5439 ;; Registers used:
  5440 ;;		wreg, status,2, status,0, btemp+1, pclath, cstack
  5441 ;; Tracked objects:
  5442 ;;		On entry : 0/0
  5443 ;;		On exit  : 0/0
  5444 ;;		Unchanged: 0/0
  5445 ;; Data sizes:     COMMON   BANK0   BANK1   BANK3   BANK2
  5446 ;;      Params:         0       0       2       0       0
  5447 ;;      Locals:         0       0       5       0       0
  5448 ;;      Temps:          0       0       4       0       0
  5449 ;;      Totals:         0       0      11       0       0
  5450 ;;Total ram usage:       11 bytes
  5451 ;; Hardware stack levels used: 1
  5452 ;; Hardware stack levels required when called: 3
  5453 ;; This function calls:
  5454 ;;		___fladd
  5455 ;;		___xxtofl
  5456 ;;		i1_PWM_duty
  5457 ;;		i1___fldiv
  5458 ;;		i1___flmul
  5459 ;;		i1___fltol
  5460 ;; This function is called by:
  5461 ;;		_isr
  5462 ;; This function uses a non-reentrant model
  5463 ;;
  5464                           
  5465     145C                     _servos:	
  5466                           ;psect for function _servos
  5467                           
  5468                           
  5469                           ;incstack = 0
  5470 ;; hardware stack exceeded
  5471                           ; Regs used in _servos: [wreg+status,2+status,0+btemp+1+pclath+cstack]
  5472                           ;servos@dato stored from wreg
  5473     145C  1683               	bsf	3,5	;RP0=1, select bank1
  5474     145D  1303               	bcf	3,6	;RP1=0, select bank1
  5475     145E  00B8               	movwf	servos@dato^(0+128)
  5476     145F                     i1l3276:
  5477                           
  5478                           ;Progra_IRONMAN.c: 204:     if(modo == 1){
  5479     145F  032E               	decf	servos@modo^(0+128),w
  5480     1460  042F               	iorwf	(servos@modo+1)^(0+128),w
  5481     1461  1D03               	btfss	3,2
  5482     1462  2C64               	goto	u514_21
  5483     1463  2C65               	goto	u514_20
  5484     1464                     u514_21:
  5485     1464  2E2C               	goto	i1l189
  5486     1465                     u514_20:
  5487     1465                     i1l3278:
  5488                           
  5489                           ;Progra_IRONMAN.c: 206:         ang1 = ((dato*0.0470)+6);
  5490     1465  0838               	movf	servos@dato^(0+128),w
  5491     1466  00B0               	movwf	??_servos^(0+128)
  5492     1467  01B1               	clrf	(??_servos^(0+128)+1)
  5493     1468  01B2               	clrf	(??_servos^(0+128)+2)
  5494     1469  01B3               	clrf	(??_servos^(0+128)+3)
  5495     146A  0833               	movf	(??_servos+3)^(0+128),w
  5496     146B  00F3               	movwf	___xxtofl@val+3
  5497     146C  0832               	movf	(??_servos+2)^(0+128),w
  5498     146D  00F2               	movwf	___xxtofl@val+2
  5499     146E  0831               	movf	(??_servos+1)^(0+128),w
  5500     146F  00F1               	movwf	___xxtofl@val+1
  5501     1470  0830               	movf	??_servos^(0+128),w
  5502     1471  00F0               	movwf	___xxtofl@val
  5503     1472  3001               	movlw	1
  5504     1473  120A  158A  200A  160A  118A  	fcall	___xxtofl
  5505     1478  0873               	movf	?___xxtofl+3,w
  5506     1479  1283               	bcf	3,5	;RP0=0, select bank0
  5507     147A  1303               	bcf	3,6	;RP1=0, select bank0
  5508     147B  00C1               	movwf	i1___flmul@a+3
  5509     147C  0872               	movf	?___xxtofl+2,w
  5510     147D  00C0               	movwf	i1___flmul@a+2
  5511     147E  0871               	movf	?___xxtofl+1,w
  5512     147F  00BF               	movwf	i1___flmul@a+1
  5513     1480  0870               	movf	?___xxtofl,w
  5514     1481  00BE               	movwf	i1___flmul@a
  5515     1482  303D               	movlw	61
  5516     1483  00BD               	movwf	i1___flmul@b+3
  5517     1484  3040               	movlw	64
  5518     1485  00BC               	movwf	i1___flmul@b+2
  5519     1486  3083               	movlw	131
  5520     1487  00BB               	movwf	i1___flmul@b+1
  5521     1488  3012               	movlw	18
  5522     1489  00BA               	movwf	i1___flmul@b
  5523     148A  120A  118A  237F  160A  118A  	fcall	i1___flmul
  5524     148F  1283               	bcf	3,5	;RP0=0, select bank0
  5525     1490  1303               	bcf	3,6	;RP1=0, select bank0
  5526     1491  083D               	movf	?i1___flmul+3,w
  5527     1492  00DB               	movwf	___fladd@a+3
  5528     1493  083C               	movf	?i1___flmul+2,w
  5529     1494  00DA               	movwf	___fladd@a+2
  5530     1495  083B               	movf	?i1___flmul+1,w
  5531     1496  00D9               	movwf	___fladd@a+1
  5532     1497  083A               	movf	?i1___flmul,w
  5533     1498  00D8               	movwf	___fladd@a
  5534     1499  3040               	movlw	64
  5535     149A  00D7               	movwf	___fladd@b+3
  5536     149B  30C0               	movlw	192
  5537     149C  00D6               	movwf	___fladd@b+2
  5538     149D  3000               	movlw	0
  5539     149E  00D5               	movwf	___fladd@b+1
  5540     149F  3000               	movlw	0
  5541     14A0  00D4               	movwf	___fladd@b
  5542     14A1  120A  158A  2295  160A  118A  	fcall	___fladd
  5543     14A6  1283               	bcf	3,5	;RP0=0, select bank0
  5544     14A7  1303               	bcf	3,6	;RP1=0, select bank0
  5545     14A8  0857               	movf	?___fladd+3,w
  5546     14A9  00EB               	movwf	i1___fltol@f1+3
  5547     14AA  0856               	movf	?___fladd+2,w
  5548     14AB  00EA               	movwf	i1___fltol@f1+2
  5549     14AC  0855               	movf	?___fladd+1,w
  5550     14AD  00E9               	movwf	i1___fltol@f1+1
  5551     14AE  0854               	movf	?___fladd,w
  5552     14AF  00E8               	movwf	i1___fltol@f1
  5553     14B0  160A  118A  20C9  160A  118A  	fcall	i1___fltol
  5554     14B5  1283               	bcf	3,5	;RP0=0, select bank0
  5555     14B6  1303               	bcf	3,6	;RP1=0, select bank0
  5556     14B7  0868               	movf	?i1___fltol,w
  5557     14B8  1683               	bsf	3,5	;RP0=1, select bank3
  5558     14B9  1703               	bsf	3,6	;RP1=1, select bank3
  5559     14BA  00E7               	movwf	_ang1^(0+384)
  5560                           
  5561                           ;Progra_IRONMAN.c: 209:         ang2 = ((dato*0.0470)+6);
  5562     14BB  1683               	bsf	3,5	;RP0=1, select bank1
  5563     14BC  1303               	bcf	3,6	;RP1=0, select bank1
  5564     14BD  0838               	movf	servos@dato^(0+128),w
  5565     14BE  00B0               	movwf	??_servos^(0+128)
  5566     14BF  01B1               	clrf	(??_servos^(0+128)+1)
  5567     14C0  01B2               	clrf	(??_servos^(0+128)+2)
  5568     14C1  01B3               	clrf	(??_servos^(0+128)+3)
  5569     14C2  0833               	movf	(??_servos+3)^(0+128),w
  5570     14C3  00F3               	movwf	___xxtofl@val+3
  5571     14C4  0832               	movf	(??_servos+2)^(0+128),w
  5572     14C5  00F2               	movwf	___xxtofl@val+2
  5573     14C6  0831               	movf	(??_servos+1)^(0+128),w
  5574     14C7  00F1               	movwf	___xxtofl@val+1
  5575     14C8  0830               	movf	??_servos^(0+128),w
  5576     14C9  00F0               	movwf	___xxtofl@val
  5577     14CA  3001               	movlw	1
  5578     14CB  120A  158A  200A  160A  118A  	fcall	___xxtofl
  5579     14D0  0873               	movf	?___xxtofl+3,w
  5580     14D1  1283               	bcf	3,5	;RP0=0, select bank0
  5581     14D2  1303               	bcf	3,6	;RP1=0, select bank0
  5582     14D3  00C1               	movwf	i1___flmul@a+3
  5583     14D4  0872               	movf	?___xxtofl+2,w
  5584     14D5  00C0               	movwf	i1___flmul@a+2
  5585     14D6  0871               	movf	?___xxtofl+1,w
  5586     14D7  00BF               	movwf	i1___flmul@a+1
  5587     14D8  0870               	movf	?___xxtofl,w
  5588     14D9  00BE               	movwf	i1___flmul@a
  5589     14DA  303D               	movlw	61
  5590     14DB  00BD               	movwf	i1___flmul@b+3
  5591     14DC  3040               	movlw	64
  5592     14DD  00BC               	movwf	i1___flmul@b+2
  5593     14DE  3083               	movlw	131
  5594     14DF  00BB               	movwf	i1___flmul@b+1
  5595     14E0  3012               	movlw	18
  5596     14E1  00BA               	movwf	i1___flmul@b
  5597     14E2  120A  118A  237F  160A  118A  	fcall	i1___flmul
  5598     14E7  1283               	bcf	3,5	;RP0=0, select bank0
  5599     14E8  1303               	bcf	3,6	;RP1=0, select bank0
  5600     14E9  083D               	movf	?i1___flmul+3,w
  5601     14EA  00DB               	movwf	___fladd@a+3
  5602     14EB  083C               	movf	?i1___flmul+2,w
  5603     14EC  00DA               	movwf	___fladd@a+2
  5604     14ED  083B               	movf	?i1___flmul+1,w
  5605     14EE  00D9               	movwf	___fladd@a+1
  5606     14EF  083A               	movf	?i1___flmul,w
  5607     14F0  00D8               	movwf	___fladd@a
  5608     14F1  3040               	movlw	64
  5609     14F2  00D7               	movwf	___fladd@b+3
  5610     14F3  30C0               	movlw	192
  5611     14F4  00D6               	movwf	___fladd@b+2
  5612     14F5  3000               	movlw	0
  5613     14F6  00D5               	movwf	___fladd@b+1
  5614     14F7  3000               	movlw	0
  5615     14F8  00D4               	movwf	___fladd@b
  5616     14F9  120A  158A  2295  160A  118A  	fcall	___fladd
  5617     14FE  1283               	bcf	3,5	;RP0=0, select bank0
  5618     14FF  1303               	bcf	3,6	;RP1=0, select bank0
  5619     1500  0857               	movf	?___fladd+3,w
  5620     1501  00EB               	movwf	i1___fltol@f1+3
  5621     1502  0856               	movf	?___fladd+2,w
  5622     1503  00EA               	movwf	i1___fltol@f1+2
  5623     1504  0855               	movf	?___fladd+1,w
  5624     1505  00E9               	movwf	i1___fltol@f1+1
  5625     1506  0854               	movf	?___fladd,w
  5626     1507  00E8               	movwf	i1___fltol@f1
  5627     1508  160A  118A  20C9  160A  118A  	fcall	i1___fltol
  5628     150D  1283               	bcf	3,5	;RP0=0, select bank0
  5629     150E  1303               	bcf	3,6	;RP1=0, select bank0
  5630     150F  0868               	movf	?i1___fltol,w
  5631     1510  1683               	bsf	3,5	;RP0=1, select bank3
  5632     1511  1703               	bsf	3,6	;RP1=1, select bank3
  5633     1512  00E6               	movwf	_ang2^(0+384)
  5634                           
  5635                           ;Progra_IRONMAN.c: 212:         valorPot1 = 0.6*dato;
  5636     1513  1683               	bsf	3,5	;RP0=1, select bank1
  5637     1514  1303               	bcf	3,6	;RP1=0, select bank1
  5638     1515  0838               	movf	servos@dato^(0+128),w
  5639     1516  00B0               	movwf	??_servos^(0+128)
  5640     1517  01B1               	clrf	(??_servos^(0+128)+1)
  5641     1518  01B2               	clrf	(??_servos^(0+128)+2)
  5642     1519  01B3               	clrf	(??_servos^(0+128)+3)
  5643     151A  0833               	movf	(??_servos+3)^(0+128),w
  5644     151B  00F3               	movwf	___xxtofl@val+3
  5645     151C  0832               	movf	(??_servos+2)^(0+128),w
  5646     151D  00F2               	movwf	___xxtofl@val+2
  5647     151E  0831               	movf	(??_servos+1)^(0+128),w
  5648     151F  00F1               	movwf	___xxtofl@val+1
  5649     1520  0830               	movf	??_servos^(0+128),w
  5650     1521  00F0               	movwf	___xxtofl@val
  5651     1522  3001               	movlw	1
  5652     1523  120A  158A  200A  160A  118A  	fcall	___xxtofl
  5653     1528  0873               	movf	?___xxtofl+3,w
  5654     1529  1283               	bcf	3,5	;RP0=0, select bank0
  5655     152A  1303               	bcf	3,6	;RP1=0, select bank0
  5656     152B  00C1               	movwf	i1___flmul@a+3
  5657     152C  0872               	movf	?___xxtofl+2,w
  5658     152D  00C0               	movwf	i1___flmul@a+2
  5659     152E  0871               	movf	?___xxtofl+1,w
  5660     152F  00BF               	movwf	i1___flmul@a+1
  5661     1530  0870               	movf	?___xxtofl,w
  5662     1531  00BE               	movwf	i1___flmul@a
  5663     1532  303F               	movlw	63
  5664     1533  00BD               	movwf	i1___flmul@b+3
  5665     1534  3019               	movlw	25
  5666     1535  00BC               	movwf	i1___flmul@b+2
  5667     1536  3099               	movlw	153
  5668     1537  00BB               	movwf	i1___flmul@b+1
  5669     1538  309A               	movlw	154
  5670     1539  00BA               	movwf	i1___flmul@b
  5671     153A  120A  118A  237F  160A  118A  	fcall	i1___flmul
  5672     153F  1283               	bcf	3,5	;RP0=0, select bank0
  5673     1540  1303               	bcf	3,6	;RP1=0, select bank0
  5674     1541  083D               	movf	?i1___flmul+3,w
  5675     1542  00EB               	movwf	i1___fltol@f1+3
  5676     1543  083C               	movf	?i1___flmul+2,w
  5677     1544  00EA               	movwf	i1___fltol@f1+2
  5678     1545  083B               	movf	?i1___flmul+1,w
  5679     1546  00E9               	movwf	i1___fltol@f1+1
  5680     1547  083A               	movf	?i1___flmul,w
  5681     1548  00E8               	movwf	i1___fltol@f1
  5682     1549  160A  118A  20C9  160A  118A  	fcall	i1___fltol
  5683     154E  1283               	bcf	3,5	;RP0=0, select bank0
  5684     154F  1303               	bcf	3,6	;RP1=0, select bank0
  5685     1550  0869               	movf	?i1___fltol+1,w
  5686     1551  1683               	bsf	3,5	;RP0=1, select bank1
  5687     1552  1303               	bcf	3,6	;RP1=0, select bank1
  5688     1553  00DA               	movwf	(_valorPot1+1)^(0+128)
  5689     1554  1283               	bcf	3,5	;RP0=0, select bank0
  5690     1555  1303               	bcf	3,6	;RP1=0, select bank0
  5691     1556  0868               	movf	?i1___fltol,w
  5692     1557  1683               	bsf	3,5	;RP0=1, select bank1
  5693     1558  1303               	bcf	3,6	;RP1=0, select bank1
  5694     1559  00D9               	movwf	_valorPot1^(0+128)
  5695                           
  5696                           ;Progra_IRONMAN.c: 213:         PWM_duty(1, 0.00025f*((valorPot1)/255.0f));
  5697     155A  3039               	movlw	57
  5698     155B  1283               	bcf	3,5	;RP0=0, select bank0
  5699     155C  1303               	bcf	3,6	;RP1=0, select bank0
  5700     155D  00BD               	movwf	i1___flmul@b+3
  5701     155E  3083               	movlw	131
  5702     155F  00BC               	movwf	i1___flmul@b+2
  5703     1560  3012               	movlw	18
  5704     1561  00BB               	movwf	i1___flmul@b+1
  5705     1562  306F               	movlw	111
  5706     1563  00BA               	movwf	i1___flmul@b
  5707     1564  3043               	movlw	67
  5708     1565  00A3               	movwf	i1___fldiv@a+3
  5709     1566  307F               	movlw	127
  5710     1567  00A2               	movwf	i1___fldiv@a+2
  5711     1568  3000               	movlw	0
  5712     1569  00A1               	movwf	i1___fldiv@a+1
  5713     156A  3000               	movlw	0
  5714     156B  00A0               	movwf	i1___fldiv@a
  5715     156C  1683               	bsf	3,5	;RP0=1, select bank1
  5716     156D  1303               	bcf	3,6	;RP1=0, select bank1
  5717     156E  0859               	movf	_valorPot1^(0+128),w
  5718     156F  00F0               	movwf	___xxtofl@val
  5719     1570  085A               	movf	(_valorPot1+1)^(0+128),w
  5720     1571  00F1               	movwf	___xxtofl@val+1
  5721     1572  3000               	movlw	0
  5722     1573  1BF1               	btfsc	___xxtofl@val+1,7
  5723     1574  30FF               	movlw	255
  5724     1575  00F2               	movwf	___xxtofl@val+2
  5725     1576  00F3               	movwf	___xxtofl@val+3
  5726     1577  3001               	movlw	1
  5727     1578  120A  158A  200A  160A  118A  	fcall	___xxtofl
  5728     157D  0873               	movf	?___xxtofl+3,w
  5729     157E  1283               	bcf	3,5	;RP0=0, select bank0
  5730     157F  1303               	bcf	3,6	;RP1=0, select bank0
  5731     1580  00A7               	movwf	i1___fldiv@b+3
  5732     1581  0872               	movf	?___xxtofl+2,w
  5733     1582  00A6               	movwf	i1___fldiv@b+2
  5734     1583  0871               	movf	?___xxtofl+1,w
  5735     1584  00A5               	movwf	i1___fldiv@b+1
  5736     1585  0870               	movf	?___xxtofl,w
  5737     1586  00A4               	movwf	i1___fldiv@b
  5738     1587  160A  118A  262D  160A  118A  	fcall	i1___fldiv
  5739     158C  1283               	bcf	3,5	;RP0=0, select bank0
  5740     158D  1303               	bcf	3,6	;RP1=0, select bank0
  5741     158E  0823               	movf	?i1___fldiv+3,w
  5742     158F  00C1               	movwf	i1___flmul@a+3
  5743     1590  0822               	movf	?i1___fldiv+2,w
  5744     1591  00C0               	movwf	i1___flmul@a+2
  5745     1592  0821               	movf	?i1___fldiv+1,w
  5746     1593  00BF               	movwf	i1___flmul@a+1
  5747     1594  0820               	movf	?i1___fldiv,w
  5748     1595  00BE               	movwf	i1___flmul@a
  5749     1596  120A  118A  237F  160A  118A  	fcall	i1___flmul
  5750     159B  1283               	bcf	3,5	;RP0=0, select bank0
  5751     159C  1303               	bcf	3,6	;RP1=0, select bank0
  5752     159D  083D               	movf	?i1___flmul+3,w
  5753     159E  1683               	bsf	3,5	;RP0=1, select bank1
  5754     159F  1303               	bcf	3,6	;RP1=0, select bank1
  5755     15A0  00B7               	movwf	(_servos$1407+3)^(0+128)
  5756     15A1  1283               	bcf	3,5	;RP0=0, select bank0
  5757     15A2  1303               	bcf	3,6	;RP1=0, select bank0
  5758     15A3  083C               	movf	?i1___flmul+2,w
  5759     15A4  1683               	bsf	3,5	;RP0=1, select bank1
  5760     15A5  1303               	bcf	3,6	;RP1=0, select bank1
  5761     15A6  00B6               	movwf	(_servos$1407+2)^(0+128)
  5762     15A7  1283               	bcf	3,5	;RP0=0, select bank0
  5763     15A8  1303               	bcf	3,6	;RP1=0, select bank0
  5764     15A9  083B               	movf	?i1___flmul+1,w
  5765     15AA  1683               	bsf	3,5	;RP0=1, select bank1
  5766     15AB  1303               	bcf	3,6	;RP1=0, select bank1
  5767     15AC  00B5               	movwf	(_servos$1407+1)^(0+128)
  5768     15AD  1283               	bcf	3,5	;RP0=0, select bank0
  5769     15AE  1303               	bcf	3,6	;RP1=0, select bank0
  5770     15AF  083A               	movf	?i1___flmul,w
  5771     15B0  1683               	bsf	3,5	;RP0=1, select bank1
  5772     15B1  1303               	bcf	3,6	;RP1=0, select bank1
  5773     15B2  00B4               	movwf	_servos$1407^(0+128)
  5774                           
  5775                           ;Progra_IRONMAN.c: 213:         PWM_duty(1, 0.00025f*((valorPot1)/255.0f));
  5776     15B3  0837               	movf	(_servos$1407+3)^(0+128),w
  5777     15B4  00A5               	movwf	(i1PWM_duty@duty+3)^(0+128)
  5778     15B5  0836               	movf	(_servos$1407+2)^(0+128),w
  5779     15B6  00A4               	movwf	(i1PWM_duty@duty+2)^(0+128)
  5780     15B7  0835               	movf	(_servos$1407+1)^(0+128),w
  5781     15B8  00A3               	movwf	(i1PWM_duty@duty+1)^(0+128)
  5782     15B9  0834               	movf	_servos$1407^(0+128),w
  5783     15BA  00A2               	movwf	i1PWM_duty@duty^(0+128)
  5784     15BB  3001               	movlw	1
  5785     15BC  120A  118A  26C4  160A  118A  	fcall	i1_PWM_duty
  5786                           
  5787                           ;Progra_IRONMAN.c: 217:         PWM_duty(2, 0.00025f*((dato)/255.0f));
  5788     15C1  3039               	movlw	57
  5789     15C2  1283               	bcf	3,5	;RP0=0, select bank0
  5790     15C3  1303               	bcf	3,6	;RP1=0, select bank0
  5791     15C4  00BD               	movwf	i1___flmul@b+3
  5792     15C5  3083               	movlw	131
  5793     15C6  00BC               	movwf	i1___flmul@b+2
  5794     15C7  3012               	movlw	18
  5795     15C8  00BB               	movwf	i1___flmul@b+1
  5796     15C9  306F               	movlw	111
  5797     15CA  00BA               	movwf	i1___flmul@b
  5798     15CB  3043               	movlw	67
  5799     15CC  00A3               	movwf	i1___fldiv@a+3
  5800     15CD  307F               	movlw	127
  5801     15CE  00A2               	movwf	i1___fldiv@a+2
  5802     15CF  3000               	movlw	0
  5803     15D0  00A1               	movwf	i1___fldiv@a+1
  5804     15D1  3000               	movlw	0
  5805     15D2  00A0               	movwf	i1___fldiv@a
  5806     15D3  1683               	bsf	3,5	;RP0=1, select bank1
  5807     15D4  1303               	bcf	3,6	;RP1=0, select bank1
  5808     15D5  0838               	movf	servos@dato^(0+128),w
  5809     15D6  00B0               	movwf	??_servos^(0+128)
  5810     15D7  01B1               	clrf	(??_servos^(0+128)+1)
  5811     15D8  01B2               	clrf	(??_servos^(0+128)+2)
  5812     15D9  01B3               	clrf	(??_servos^(0+128)+3)
  5813     15DA  0833               	movf	(??_servos+3)^(0+128),w
  5814     15DB  00F3               	movwf	___xxtofl@val+3
  5815     15DC  0832               	movf	(??_servos+2)^(0+128),w
  5816     15DD  00F2               	movwf	___xxtofl@val+2
  5817     15DE  0831               	movf	(??_servos+1)^(0+128),w
  5818     15DF  00F1               	movwf	___xxtofl@val+1
  5819     15E0  0830               	movf	??_servos^(0+128),w
  5820     15E1  00F0               	movwf	___xxtofl@val
  5821     15E2  3001               	movlw	1
  5822     15E3  120A  158A  200A  160A  118A  	fcall	___xxtofl
  5823     15E8  0873               	movf	?___xxtofl+3,w
  5824     15E9  1283               	bcf	3,5	;RP0=0, select bank0
  5825     15EA  1303               	bcf	3,6	;RP1=0, select bank0
  5826     15EB  00A7               	movwf	i1___fldiv@b+3
  5827     15EC  0872               	movf	?___xxtofl+2,w
  5828     15ED  00A6               	movwf	i1___fldiv@b+2
  5829     15EE  0871               	movf	?___xxtofl+1,w
  5830     15EF  00A5               	movwf	i1___fldiv@b+1
  5831     15F0  0870               	movf	?___xxtofl,w
  5832     15F1  00A4               	movwf	i1___fldiv@b
  5833     15F2  160A  118A  262D  160A  118A  	fcall	i1___fldiv
  5834     15F7  1283               	bcf	3,5	;RP0=0, select bank0
  5835     15F8  1303               	bcf	3,6	;RP1=0, select bank0
  5836     15F9  0823               	movf	?i1___fldiv+3,w
  5837     15FA  00C1               	movwf	i1___flmul@a+3
  5838     15FB  0822               	movf	?i1___fldiv+2,w
  5839     15FC  00C0               	movwf	i1___flmul@a+2
  5840     15FD  0821               	movf	?i1___fldiv+1,w
  5841     15FE  00BF               	movwf	i1___flmul@a+1
  5842     15FF  0820               	movf	?i1___fldiv,w
  5843     1600  00BE               	movwf	i1___flmul@a
  5844     1601  120A  118A  237F  160A  118A  	fcall	i1___flmul
  5845     1606  1283               	bcf	3,5	;RP0=0, select bank0
  5846     1607  1303               	bcf	3,6	;RP1=0, select bank0
  5847     1608  083D               	movf	?i1___flmul+3,w
  5848     1609  1683               	bsf	3,5	;RP0=1, select bank1
  5849     160A  1303               	bcf	3,6	;RP1=0, select bank1
  5850     160B  00B7               	movwf	(_servos$1407+3)^(0+128)
  5851     160C  1283               	bcf	3,5	;RP0=0, select bank0
  5852     160D  1303               	bcf	3,6	;RP1=0, select bank0
  5853     160E  083C               	movf	?i1___flmul+2,w
  5854     160F  1683               	bsf	3,5	;RP0=1, select bank1
  5855     1610  1303               	bcf	3,6	;RP1=0, select bank1
  5856     1611  00B6               	movwf	(_servos$1407+2)^(0+128)
  5857     1612  1283               	bcf	3,5	;RP0=0, select bank0
  5858     1613  1303               	bcf	3,6	;RP1=0, select bank0
  5859     1614  083B               	movf	?i1___flmul+1,w
  5860     1615  1683               	bsf	3,5	;RP0=1, select bank1
  5861     1616  1303               	bcf	3,6	;RP1=0, select bank1
  5862     1617  00B5               	movwf	(_servos$1407+1)^(0+128)
  5863     1618  1283               	bcf	3,5	;RP0=0, select bank0
  5864     1619  1303               	bcf	3,6	;RP1=0, select bank0
  5865     161A  083A               	movf	?i1___flmul,w
  5866     161B  1683               	bsf	3,5	;RP0=1, select bank1
  5867     161C  1303               	bcf	3,6	;RP1=0, select bank1
  5868     161D  00B4               	movwf	_servos$1407^(0+128)
  5869                           
  5870                           ;Progra_IRONMAN.c: 217:         PWM_duty(2, 0.00025f*((dato)/255.0f));
  5871     161E  0837               	movf	(_servos$1407+3)^(0+128),w
  5872     161F  00A5               	movwf	(i1PWM_duty@duty+3)^(0+128)
  5873     1620  0836               	movf	(_servos$1407+2)^(0+128),w
  5874     1621  00A4               	movwf	(i1PWM_duty@duty+2)^(0+128)
  5875     1622  0835               	movf	(_servos$1407+1)^(0+128),w
  5876     1623  00A3               	movwf	(i1PWM_duty@duty+1)^(0+128)
  5877     1624  0834               	movf	_servos$1407^(0+128),w
  5878     1625  00A2               	movwf	i1PWM_duty@duty^(0+128)
  5879     1626  3002               	movlw	2
  5880     1627  120A  118A  26C4  160A  118A  	fcall	i1_PWM_duty
  5881     162C                     i1l189:
  5882     162C  0008               	return
  5883     162D                     __end_of_servos:
  5884                           
  5885                           	psect	text12
  5886     06C4                     __ptext12:	
  5887 ;; *************** function i1_PWM_duty *****************
  5888 ;; Defined at:
  5889 ;;		line 34 in file "PWM_SERVO1.c"
  5890 ;; Parameters:    Size  Location     Type
  5891 ;;  canal           1    wreg     unsigned char 
  5892 ;;  duty            4    2[BANK1 ] float 
  5893 ;; Auto vars:     Size  Location     Type
  5894 ;;  canal           1    9[BANK1 ] unsigned char 
  5895 ;;  particion2      2   12[BANK1 ] int 
  5896 ;;  particion1      2   10[BANK1 ] int 
  5897 ;; Return value:  Size  Location     Type
  5898 ;;                  1    wreg      void 
  5899 ;; Registers used:
  5900 ;;		wreg, status,2, status,0, btemp+1, pclath, cstack
  5901 ;; Tracked objects:
  5902 ;;		On entry : 0/0
  5903 ;;		On exit  : 0/0
  5904 ;;		Unchanged: 0/0
  5905 ;; Data sizes:     COMMON   BANK0   BANK1   BANK3   BANK2
  5906 ;;      Params:         0       0       4       0       0
  5907 ;;      Locals:         0       0       5       0       0
  5908 ;;      Temps:          0       0       3       0       0
  5909 ;;      Totals:         0       0      12       0       0
  5910 ;;Total ram usage:       12 bytes
  5911 ;; Hardware stack levels used: 1
  5912 ;; Hardware stack levels required when called: 2
  5913 ;; This function calls:
  5914 ;;		i1___fldiv
  5915 ;;		i1___flmul
  5916 ;;		i1___fltol
  5917 ;; This function is called by:
  5918 ;;		_isr
  5919 ;;		_servos
  5920 ;; This function uses a non-reentrant model
  5921 ;;
  5922                           
  5923     06C4                     i1_PWM_duty:	
  5924                           ;psect for function i1_PWM_duty
  5925                           
  5926                           
  5927                           ;incstack = 0
  5928                           ; Regs used in i1_PWM_duty: [wreg+status,2+status,0+btemp+1+pclath+cstack]
  5929                           ;i1PWM_duty@canal stored from wreg
  5930     06C4  1683               	bsf	3,5	;RP0=1, select bank1
  5931     06C5  1303               	bcf	3,6	;RP1=0, select bank1
  5932     06C6  00A9               	movwf	i1PWM_duty@canal^(0+128)
  5933     06C7                     i1l3174:
  5934                           
  5935                           ;PWM_SERVO1.c: 35:     if (canal == 1){
  5936     06C7  0329               	decf	i1PWM_duty@canal^(0+128),w
  5937     06C8  1D03               	btfss	3,2
  5938     06C9  2ECB               	goto	u502_21
  5939     06CA  2ECC               	goto	u502_20
  5940     06CB                     u502_21:
  5941     06CB  2F5D               	goto	i1l3184
  5942     06CC                     u502_20:
  5943     06CC                     i1l3176:
  5944                           
  5945                           ;PWM_SERVO1.c: 36:         int particion1 = (int)(4*duty/((1.0f/4000000)*16));
  5946     06CC  0825               	movf	(i1PWM_duty@duty+3)^(0+128),w
  5947     06CD  1283               	bcf	3,5	;RP0=0, select bank0
  5948     06CE  1303               	bcf	3,6	;RP1=0, select bank0
  5949     06CF  00C1               	movwf	i1___flmul@a+3
  5950     06D0  1683               	bsf	3,5	;RP0=1, select bank1
  5951     06D1  1303               	bcf	3,6	;RP1=0, select bank1
  5952     06D2  0824               	movf	(i1PWM_duty@duty+2)^(0+128),w
  5953     06D3  1283               	bcf	3,5	;RP0=0, select bank0
  5954     06D4  1303               	bcf	3,6	;RP1=0, select bank0
  5955     06D5  00C0               	movwf	i1___flmul@a+2
  5956     06D6  1683               	bsf	3,5	;RP0=1, select bank1
  5957     06D7  1303               	bcf	3,6	;RP1=0, select bank1
  5958     06D8  0823               	movf	(i1PWM_duty@duty+1)^(0+128),w
  5959     06D9  1283               	bcf	3,5	;RP0=0, select bank0
  5960     06DA  1303               	bcf	3,6	;RP1=0, select bank0
  5961     06DB  00BF               	movwf	i1___flmul@a+1
  5962     06DC  1683               	bsf	3,5	;RP0=1, select bank1
  5963     06DD  1303               	bcf	3,6	;RP1=0, select bank1
  5964     06DE  0822               	movf	i1PWM_duty@duty^(0+128),w
  5965     06DF  1283               	bcf	3,5	;RP0=0, select bank0
  5966     06E0  1303               	bcf	3,6	;RP1=0, select bank0
  5967     06E1  00BE               	movwf	i1___flmul@a
  5968     06E2  3040               	movlw	64
  5969     06E3  00BD               	movwf	i1___flmul@b+3
  5970     06E4  3080               	movlw	128
  5971     06E5  00BC               	movwf	i1___flmul@b+2
  5972     06E6  3000               	movlw	0
  5973     06E7  00BB               	movwf	i1___flmul@b+1
  5974     06E8  3000               	movlw	0
  5975     06E9  00BA               	movwf	i1___flmul@b
  5976     06EA  120A  118A  237F  120A  118A  	fcall	i1___flmul
  5977     06EF  1283               	bcf	3,5	;RP0=0, select bank0
  5978     06F0  1303               	bcf	3,6	;RP1=0, select bank0
  5979     06F1  083D               	movf	?i1___flmul+3,w
  5980     06F2  00A7               	movwf	i1___fldiv@b+3
  5981     06F3  083C               	movf	?i1___flmul+2,w
  5982     06F4  00A6               	movwf	i1___fldiv@b+2
  5983     06F5  083B               	movf	?i1___flmul+1,w
  5984     06F6  00A5               	movwf	i1___fldiv@b+1
  5985     06F7  083A               	movf	?i1___flmul,w
  5986     06F8  00A4               	movwf	i1___fldiv@b
  5987     06F9  3036               	movlw	54
  5988     06FA  00A3               	movwf	i1___fldiv@a+3
  5989     06FB  3086               	movlw	134
  5990     06FC  00A2               	movwf	i1___fldiv@a+2
  5991     06FD  3037               	movlw	55
  5992     06FE  00A1               	movwf	i1___fldiv@a+1
  5993     06FF  30BD               	movlw	189
  5994     0700  00A0               	movwf	i1___fldiv@a
  5995     0701  160A  118A  262D  120A  118A  	fcall	i1___fldiv
  5996     0706  1283               	bcf	3,5	;RP0=0, select bank0
  5997     0707  1303               	bcf	3,6	;RP1=0, select bank0
  5998     0708  0823               	movf	?i1___fldiv+3,w
  5999     0709  00EB               	movwf	i1___fltol@f1+3
  6000     070A  0822               	movf	?i1___fldiv+2,w
  6001     070B  00EA               	movwf	i1___fltol@f1+2
  6002     070C  0821               	movf	?i1___fldiv+1,w
  6003     070D  00E9               	movwf	i1___fltol@f1+1
  6004     070E  0820               	movf	?i1___fldiv,w
  6005     070F  00E8               	movwf	i1___fltol@f1
  6006     0710  160A  118A  20C9  120A  118A  	fcall	i1___fltol
  6007     0715  1283               	bcf	3,5	;RP0=0, select bank0
  6008     0716  1303               	bcf	3,6	;RP1=0, select bank0
  6009     0717  0869               	movf	?i1___fltol+1,w
  6010     0718  1683               	bsf	3,5	;RP0=1, select bank1
  6011     0719  1303               	bcf	3,6	;RP1=0, select bank1
  6012     071A  00AB               	movwf	(i1PWM_duty@particion1+1)^(0+128)
  6013     071B  1283               	bcf	3,5	;RP0=0, select bank0
  6014     071C  1303               	bcf	3,6	;RP1=0, select bank0
  6015     071D  0868               	movf	?i1___fltol,w
  6016     071E  1683               	bsf	3,5	;RP0=1, select bank1
  6017     071F  1303               	bcf	3,6	;RP1=0, select bank1
  6018     0720  00AA               	movwf	i1PWM_duty@particion1^(0+128)
  6019     0721                     i1l3178:
  6020                           
  6021                           ;PWM_SERVO1.c: 37:         CCPR1L = (char)(-((particion1 >> 2)-69));
  6022     0721  082B               	movf	(i1PWM_duty@particion1+1)^(0+128),w
  6023     0722  00A7               	movwf	(??i1_PWM_duty^(0+128)+1)
  6024     0723  082A               	movf	i1PWM_duty@particion1^(0+128),w
  6025     0724  00A6               	movwf	??i1_PWM_duty^(0+128)
  6026     0725  0D27               	rlf	(??i1_PWM_duty^(0+128)+1),w
  6027     0726  0CA7               	rrf	(??i1_PWM_duty^(0+128)+1),f
  6028     0727  0CA6               	rrf	??i1_PWM_duty^(0+128),f
  6029     0728  0D27               	rlf	(??i1_PWM_duty^(0+128)+1),w
  6030     0729  0CA7               	rrf	(??i1_PWM_duty^(0+128)+1),f
  6031     072A  0CA6               	rrf	??i1_PWM_duty^(0+128),f
  6032     072B  0826               	movf	??i1_PWM_duty^(0+128),w
  6033     072C  3EBB               	addlw	187
  6034     072D  3AFF               	xorlw	255
  6035     072E  3E01               	addlw	1
  6036     072F  1283               	bcf	3,5	;RP0=0, select bank0
  6037     0730  1303               	bcf	3,6	;RP1=0, select bank0
  6038     0731  0095               	movwf	21	;volatile
  6039     0732                     i1l3180:
  6040                           
  6041                           ;PWM_SERVO1.c: 41:         CCP1CONbits.DC1B0 = (particion1&(0b1));
  6042     0732  1683               	bsf	3,5	;RP0=1, select bank1
  6043     0733  1303               	bcf	3,6	;RP1=0, select bank1
  6044     0734  082A               	movf	i1PWM_duty@particion1^(0+128),w
  6045     0735  3901               	andlw	1
  6046     0736  00A6               	movwf	??i1_PWM_duty^(0+128)
  6047     0737  0EA6               	swapf	??i1_PWM_duty^(0+128),f
  6048     0738  1283               	bcf	3,5	;RP0=0, select bank0
  6049     0739  1303               	bcf	3,6	;RP1=0, select bank0
  6050     073A  0817               	movf	23,w	;volatile
  6051     073B  1683               	bsf	3,5	;RP0=1, select bank1
  6052     073C  1303               	bcf	3,6	;RP1=0, select bank1
  6053     073D  0626               	xorwf	??i1_PWM_duty^(0+128),w
  6054     073E  39EF               	andlw	-17
  6055     073F  0626               	xorwf	??i1_PWM_duty^(0+128),w
  6056     0740  1283               	bcf	3,5	;RP0=0, select bank0
  6057     0741  1303               	bcf	3,6	;RP1=0, select bank0
  6058     0742  0097               	movwf	23	;volatile
  6059     0743                     i1l3182:
  6060                           
  6061                           ;PWM_SERVO1.c: 42:         CCP1CONbits.DC1B1 = ((particion1>>1) &(0b1));
  6062     0743  1683               	bsf	3,5	;RP0=1, select bank1
  6063     0744  1303               	bcf	3,6	;RP1=0, select bank1
  6064     0745  082B               	movf	(i1PWM_duty@particion1+1)^(0+128),w
  6065     0746  00A7               	movwf	(??i1_PWM_duty^(0+128)+1)
  6066     0747  082A               	movf	i1PWM_duty@particion1^(0+128),w
  6067     0748  00A6               	movwf	??i1_PWM_duty^(0+128)
  6068     0749  0D27               	rlf	(??i1_PWM_duty^(0+128)+1),w
  6069     074A  0CA7               	rrf	(??i1_PWM_duty^(0+128)+1),f
  6070     074B  0CA6               	rrf	??i1_PWM_duty^(0+128),f
  6071     074C  0826               	movf	??i1_PWM_duty^(0+128),w
  6072     074D  3901               	andlw	1
  6073     074E  00A8               	movwf	(??i1_PWM_duty+2)^(0+128)
  6074     074F  0EA8               	swapf	(??i1_PWM_duty+2)^(0+128),f
  6075     0750  0DA8               	rlf	(??i1_PWM_duty+2)^(0+128),f
  6076     0751  1283               	bcf	3,5	;RP0=0, select bank0
  6077     0752  1303               	bcf	3,6	;RP1=0, select bank0
  6078     0753  0817               	movf	23,w	;volatile
  6079     0754  1683               	bsf	3,5	;RP0=1, select bank1
  6080     0755  1303               	bcf	3,6	;RP1=0, select bank1
  6081     0756  0628               	xorwf	(??i1_PWM_duty+2)^(0+128),w
  6082     0757  39DF               	andlw	-33
  6083     0758  0628               	xorwf	(??i1_PWM_duty+2)^(0+128),w
  6084     0759  1283               	bcf	3,5	;RP0=0, select bank0
  6085     075A  1303               	bcf	3,6	;RP1=0, select bank0
  6086     075B  0097               	movwf	23	;volatile
  6087                           
  6088                           ;PWM_SERVO1.c: 43:     }
  6089     075C  2FF1               	goto	i1l286
  6090     075D                     i1l3184:
  6091     075D  3002               	movlw	2
  6092     075E  0629               	xorwf	i1PWM_duty@canal^(0+128),w
  6093     075F  1D03               	btfss	3,2
  6094     0760  2F62               	goto	u503_21
  6095     0761  2F63               	goto	u503_20
  6096     0762                     u503_21:
  6097     0762  2FF1               	goto	i1l286
  6098     0763                     u503_20:
  6099     0763                     i1l3186:
  6100                           
  6101                           ;PWM_SERVO1.c: 45:         int particion2 = (int)(4*duty/((1.0f/4000000)*16));
  6102     0763  0825               	movf	(i1PWM_duty@duty+3)^(0+128),w
  6103     0764  1283               	bcf	3,5	;RP0=0, select bank0
  6104     0765  1303               	bcf	3,6	;RP1=0, select bank0
  6105     0766  00C1               	movwf	i1___flmul@a+3
  6106     0767  1683               	bsf	3,5	;RP0=1, select bank1
  6107     0768  1303               	bcf	3,6	;RP1=0, select bank1
  6108     0769  0824               	movf	(i1PWM_duty@duty+2)^(0+128),w
  6109     076A  1283               	bcf	3,5	;RP0=0, select bank0
  6110     076B  1303               	bcf	3,6	;RP1=0, select bank0
  6111     076C  00C0               	movwf	i1___flmul@a+2
  6112     076D  1683               	bsf	3,5	;RP0=1, select bank1
  6113     076E  1303               	bcf	3,6	;RP1=0, select bank1
  6114     076F  0823               	movf	(i1PWM_duty@duty+1)^(0+128),w
  6115     0770  1283               	bcf	3,5	;RP0=0, select bank0
  6116     0771  1303               	bcf	3,6	;RP1=0, select bank0
  6117     0772  00BF               	movwf	i1___flmul@a+1
  6118     0773  1683               	bsf	3,5	;RP0=1, select bank1
  6119     0774  1303               	bcf	3,6	;RP1=0, select bank1
  6120     0775  0822               	movf	i1PWM_duty@duty^(0+128),w
  6121     0776  1283               	bcf	3,5	;RP0=0, select bank0
  6122     0777  1303               	bcf	3,6	;RP1=0, select bank0
  6123     0778  00BE               	movwf	i1___flmul@a
  6124     0779  3040               	movlw	64
  6125     077A  00BD               	movwf	i1___flmul@b+3
  6126     077B  3080               	movlw	128
  6127     077C  00BC               	movwf	i1___flmul@b+2
  6128     077D  3000               	movlw	0
  6129     077E  00BB               	movwf	i1___flmul@b+1
  6130     077F  3000               	movlw	0
  6131     0780  00BA               	movwf	i1___flmul@b
  6132     0781  120A  118A  237F  120A  118A  	fcall	i1___flmul
  6133     0786  1283               	bcf	3,5	;RP0=0, select bank0
  6134     0787  1303               	bcf	3,6	;RP1=0, select bank0
  6135     0788  083D               	movf	?i1___flmul+3,w
  6136     0789  00A7               	movwf	i1___fldiv@b+3
  6137     078A  083C               	movf	?i1___flmul+2,w
  6138     078B  00A6               	movwf	i1___fldiv@b+2
  6139     078C  083B               	movf	?i1___flmul+1,w
  6140     078D  00A5               	movwf	i1___fldiv@b+1
  6141     078E  083A               	movf	?i1___flmul,w
  6142     078F  00A4               	movwf	i1___fldiv@b
  6143     0790  3036               	movlw	54
  6144     0791  00A3               	movwf	i1___fldiv@a+3
  6145     0792  3086               	movlw	134
  6146     0793  00A2               	movwf	i1___fldiv@a+2
  6147     0794  3037               	movlw	55
  6148     0795  00A1               	movwf	i1___fldiv@a+1
  6149     0796  30BD               	movlw	189
  6150     0797  00A0               	movwf	i1___fldiv@a
  6151     0798  160A  118A  262D  120A  118A  	fcall	i1___fldiv
  6152     079D  1283               	bcf	3,5	;RP0=0, select bank0
  6153     079E  1303               	bcf	3,6	;RP1=0, select bank0
  6154     079F  0823               	movf	?i1___fldiv+3,w
  6155     07A0  00EB               	movwf	i1___fltol@f1+3
  6156     07A1  0822               	movf	?i1___fldiv+2,w
  6157     07A2  00EA               	movwf	i1___fltol@f1+2
  6158     07A3  0821               	movf	?i1___fldiv+1,w
  6159     07A4  00E9               	movwf	i1___fltol@f1+1
  6160     07A5  0820               	movf	?i1___fldiv,w
  6161     07A6  00E8               	movwf	i1___fltol@f1
  6162     07A7  160A  118A  20C9  120A  118A  	fcall	i1___fltol
  6163     07AC  1283               	bcf	3,5	;RP0=0, select bank0
  6164     07AD  1303               	bcf	3,6	;RP1=0, select bank0
  6165     07AE  0869               	movf	?i1___fltol+1,w
  6166     07AF  1683               	bsf	3,5	;RP0=1, select bank1
  6167     07B0  1303               	bcf	3,6	;RP1=0, select bank1
  6168     07B1  00AD               	movwf	(i1PWM_duty@particion2+1)^(0+128)
  6169     07B2  1283               	bcf	3,5	;RP0=0, select bank0
  6170     07B3  1303               	bcf	3,6	;RP1=0, select bank0
  6171     07B4  0868               	movf	?i1___fltol,w
  6172     07B5  1683               	bsf	3,5	;RP0=1, select bank1
  6173     07B6  1303               	bcf	3,6	;RP1=0, select bank1
  6174     07B7  00AC               	movwf	i1PWM_duty@particion2^(0+128)
  6175     07B8                     i1l3188:
  6176                           
  6177                           ;PWM_SERVO1.c: 46:         CCPR2L = (char)(((particion2 >> 2)+60));
  6178     07B8  082D               	movf	(i1PWM_duty@particion2+1)^(0+128),w
  6179     07B9  00A7               	movwf	(??i1_PWM_duty^(0+128)+1)
  6180     07BA  082C               	movf	i1PWM_duty@particion2^(0+128),w
  6181     07BB  00A6               	movwf	??i1_PWM_duty^(0+128)
  6182     07BC  0D27               	rlf	(??i1_PWM_duty^(0+128)+1),w
  6183     07BD  0CA7               	rrf	(??i1_PWM_duty^(0+128)+1),f
  6184     07BE  0CA6               	rrf	??i1_PWM_duty^(0+128),f
  6185     07BF  0D27               	rlf	(??i1_PWM_duty^(0+128)+1),w
  6186     07C0  0CA7               	rrf	(??i1_PWM_duty^(0+128)+1),f
  6187     07C1  0CA6               	rrf	??i1_PWM_duty^(0+128),f
  6188     07C2  0826               	movf	??i1_PWM_duty^(0+128),w
  6189     07C3  3E3C               	addlw	60
  6190     07C4  1283               	bcf	3,5	;RP0=0, select bank0
  6191     07C5  1303               	bcf	3,6	;RP1=0, select bank0
  6192     07C6  009B               	movwf	27	;volatile
  6193     07C7                     i1l3190:
  6194                           
  6195                           ;PWM_SERVO1.c: 50:         CCP2CONbits.DC2B0 = (particion2&(0b1));
  6196     07C7  1683               	bsf	3,5	;RP0=1, select bank1
  6197     07C8  1303               	bcf	3,6	;RP1=0, select bank1
  6198     07C9  082C               	movf	i1PWM_duty@particion2^(0+128),w
  6199     07CA  3901               	andlw	1
  6200     07CB  00A6               	movwf	??i1_PWM_duty^(0+128)
  6201     07CC  0EA6               	swapf	??i1_PWM_duty^(0+128),f
  6202     07CD  1283               	bcf	3,5	;RP0=0, select bank0
  6203     07CE  1303               	bcf	3,6	;RP1=0, select bank0
  6204     07CF  081D               	movf	29,w	;volatile
  6205     07D0  1683               	bsf	3,5	;RP0=1, select bank1
  6206     07D1  1303               	bcf	3,6	;RP1=0, select bank1
  6207     07D2  0626               	xorwf	??i1_PWM_duty^(0+128),w
  6208     07D3  39EF               	andlw	-17
  6209     07D4  0626               	xorwf	??i1_PWM_duty^(0+128),w
  6210     07D5  1283               	bcf	3,5	;RP0=0, select bank0
  6211     07D6  1303               	bcf	3,6	;RP1=0, select bank0
  6212     07D7  009D               	movwf	29	;volatile
  6213     07D8                     i1l3192:
  6214                           
  6215                           ;PWM_SERVO1.c: 51:         CCP2CONbits.DC2B1 = ((particion2>>1) &(0b1));
  6216     07D8  1683               	bsf	3,5	;RP0=1, select bank1
  6217     07D9  1303               	bcf	3,6	;RP1=0, select bank1
  6218     07DA  082D               	movf	(i1PWM_duty@particion2+1)^(0+128),w
  6219     07DB  00A7               	movwf	(??i1_PWM_duty^(0+128)+1)
  6220     07DC  082C               	movf	i1PWM_duty@particion2^(0+128),w
  6221     07DD  00A6               	movwf	??i1_PWM_duty^(0+128)
  6222     07DE  0D27               	rlf	(??i1_PWM_duty^(0+128)+1),w
  6223     07DF  0CA7               	rrf	(??i1_PWM_duty^(0+128)+1),f
  6224     07E0  0CA6               	rrf	??i1_PWM_duty^(0+128),f
  6225     07E1  0826               	movf	??i1_PWM_duty^(0+128),w
  6226     07E2  3901               	andlw	1
  6227     07E3  00A8               	movwf	(??i1_PWM_duty+2)^(0+128)
  6228     07E4  0EA8               	swapf	(??i1_PWM_duty+2)^(0+128),f
  6229     07E5  0DA8               	rlf	(??i1_PWM_duty+2)^(0+128),f
  6230     07E6  1283               	bcf	3,5	;RP0=0, select bank0
  6231     07E7  1303               	bcf	3,6	;RP1=0, select bank0
  6232     07E8  081D               	movf	29,w	;volatile
  6233     07E9  1683               	bsf	3,5	;RP0=1, select bank1
  6234     07EA  1303               	bcf	3,6	;RP1=0, select bank1
  6235     07EB  0628               	xorwf	(??i1_PWM_duty+2)^(0+128),w
  6236     07EC  39DF               	andlw	-33
  6237     07ED  0628               	xorwf	(??i1_PWM_duty+2)^(0+128),w
  6238     07EE  1283               	bcf	3,5	;RP0=0, select bank0
  6239     07EF  1303               	bcf	3,6	;RP1=0, select bank0
  6240     07F0  009D               	movwf	29	;volatile
  6241     07F1                     i1l286:
  6242     07F1  0008               	return
  6243     07F2                     __end_ofi1_PWM_duty:
  6244                           
  6245                           	psect	text13
  6246     10C9                     __ptext13:	
  6247 ;; *************** function i1___fltol *****************
  6248 ;; Defined at:
  6249 ;;		line 43 in file "C:\Program Files\Microchip\xc8\v2.40\pic\sources\c90\common\fltol.c"
  6250 ;; Parameters:    Size  Location     Type
  6251 ;;  f1              4   72[BANK0 ] void 
  6252 ;; Auto vars:     Size  Location     Type
  6253 ;;  exp1            1    1[BANK1 ] unsigned char 
  6254 ;;  sign1           1    0[BANK1 ] unsigned char 
  6255 ;; Return value:  Size  Location     Type
  6256 ;;                  4   72[BANK0 ] long 
  6257 ;; Registers used:
  6258 ;;		wreg, status,2, status,0
  6259 ;; Tracked objects:
  6260 ;;		On entry : 0/0
  6261 ;;		On exit  : 0/0
  6262 ;;		Unchanged: 0/0
  6263 ;; Data sizes:     COMMON   BANK0   BANK1   BANK3   BANK2
  6264 ;;      Params:         0       4       0       0       0
  6265 ;;      Locals:         0       0       2       0       0
  6266 ;;      Temps:          0       4       0       0       0
  6267 ;;      Totals:         0       8       2       0       0
  6268 ;;Total ram usage:       10 bytes
  6269 ;; Hardware stack levels used: 1
  6270 ;; This function calls:
  6271 ;;		Nothing
  6272 ;; This function is called by:
  6273 ;;		_isr
  6274 ;;		_servos
  6275 ;;		i1_PWM_duty
  6276 ;; This function uses a non-reentrant model
  6277 ;;
  6278                           
  6279     10C9                     i1___fltol:	
  6280                           ;psect for function i1___fltol
  6281                           
  6282     10C9                     i1l2546:	
  6283                           ;incstack = 0
  6284                           ; Regs used in i1___fltol: [wreg+status,2+status,0]
  6285                           
  6286     10C9  1003               	clrc
  6287     10CA  1283               	bcf	3,5	;RP0=0, select bank0
  6288     10CB  1303               	bcf	3,6	;RP1=0, select bank0
  6289     10CC  0D6A               	rlf	i1___fltol@f1+2,w
  6290     10CD  0D6B               	rlf	i1___fltol@f1+3,w
  6291     10CE  1683               	bsf	3,5	;RP0=1, select bank1
  6292     10CF  1303               	bcf	3,6	;RP1=0, select bank1
  6293     10D0  00A1               	movwf	i1___fltol@exp1^(0+128)
  6294     10D1  0821               	movf	i1___fltol@exp1^(0+128),w
  6295     10D2  1D03               	btfss	3,2
  6296     10D3  28D5               	goto	u356_21
  6297     10D4  28D6               	goto	u356_20
  6298     10D5                     u356_21:
  6299     10D5  28E1               	goto	i1l2552
  6300     10D6                     u356_20:
  6301     10D6                     i1l2548:
  6302     10D6  3000               	movlw	0
  6303     10D7  1283               	bcf	3,5	;RP0=0, select bank0
  6304     10D8  1303               	bcf	3,6	;RP1=0, select bank0
  6305     10D9  00EB               	movwf	?i1___fltol+3
  6306     10DA  3000               	movlw	0
  6307     10DB  00EA               	movwf	?i1___fltol+2
  6308     10DC  3000               	movlw	0
  6309     10DD  00E9               	movwf	?i1___fltol+1
  6310     10DE  3000               	movlw	0
  6311     10DF  00E8               	movwf	?i1___fltol
  6312     10E0  2956               	goto	i1l558
  6313     10E1                     i1l2552:
  6314     10E1  1283               	bcf	3,5	;RP0=0, select bank0
  6315     10E2  1303               	bcf	3,6	;RP1=0, select bank0
  6316     10E3  0868               	movf	i1___fltol@f1,w
  6317     10E4  00EC               	movwf	??i1___fltol
  6318     10E5  0869               	movf	i1___fltol@f1+1,w
  6319     10E6  00ED               	movwf	??i1___fltol+1
  6320     10E7  086A               	movf	i1___fltol@f1+2,w
  6321     10E8  00EE               	movwf	??i1___fltol+2
  6322     10E9  086B               	movf	i1___fltol@f1+3,w
  6323     10EA  00EF               	movwf	??i1___fltol+3
  6324     10EB  301F               	movlw	31
  6325     10EC                     u357_25:
  6326     10EC  1003               	clrc
  6327     10ED  0CEF               	rrf	??i1___fltol+3,f
  6328     10EE  0CEE               	rrf	??i1___fltol+2,f
  6329     10EF  0CED               	rrf	??i1___fltol+1,f
  6330     10F0  0CEC               	rrf	??i1___fltol,f
  6331     10F1                     u357_20:
  6332     10F1  3EFF               	addlw	-1
  6333     10F2  1D03               	skipz
  6334     10F3  28EC               	goto	u357_25
  6335     10F4  086C               	movf	??i1___fltol,w
  6336     10F5  1683               	bsf	3,5	;RP0=1, select bank1
  6337     10F6  1303               	bcf	3,6	;RP1=0, select bank1
  6338     10F7  00A0               	movwf	i1___fltol@sign1^(0+128)
  6339     10F8                     i1l2554:
  6340     10F8  1283               	bcf	3,5	;RP0=0, select bank0
  6341     10F9  1303               	bcf	3,6	;RP1=0, select bank0
  6342     10FA  17EA               	bsf	i1___fltol@f1+2,7
  6343     10FB                     i1l2556:
  6344     10FB  30FF               	movlw	255
  6345     10FC  05E8               	andwf	i1___fltol@f1,f
  6346     10FD  30FF               	movlw	255
  6347     10FE  05E9               	andwf	i1___fltol@f1+1,f
  6348     10FF  30FF               	movlw	255
  6349     1100  05EA               	andwf	i1___fltol@f1+2,f
  6350     1101  3000               	movlw	0
  6351     1102  05EB               	andwf	i1___fltol@f1+3,f
  6352     1103                     i1l2558:
  6353     1103  3096               	movlw	150
  6354     1104  1683               	bsf	3,5	;RP0=1, select bank1
  6355     1105  1303               	bcf	3,6	;RP1=0, select bank1
  6356     1106  02A1               	subwf	i1___fltol@exp1^(0+128),f
  6357     1107                     i1l2560:
  6358     1107  1FA1               	btfss	i1___fltol@exp1^(0+128),7
  6359     1108  290A               	goto	u358_21
  6360     1109  290B               	goto	u358_20
  6361     110A                     u358_21:
  6362     110A  2929               	goto	i1l2570
  6363     110B                     u358_20:
  6364     110B                     i1l2562:
  6365     110B  0821               	movf	i1___fltol@exp1^(0+128),w
  6366     110C  3A80               	xorlw	128
  6367     110D  3E97               	addlw	151
  6368     110E  1803               	skipnc
  6369     110F  2911               	goto	u359_21
  6370     1110  2912               	goto	u359_20
  6371     1111                     u359_21:
  6372     1111  2913               	goto	i1l2568
  6373     1112                     u359_20:
  6374     1112  28D6               	goto	i1l2548
  6375     1113                     i1l2568:
  6376     1113  3001               	movlw	1
  6377     1114                     u360_25:
  6378     1114  1003               	clrc
  6379     1115  1283               	bcf	3,5	;RP0=0, select bank0
  6380     1116  1303               	bcf	3,6	;RP1=0, select bank0
  6381     1117  0CEB               	rrf	i1___fltol@f1+3,f
  6382     1118  0CEA               	rrf	i1___fltol@f1+2,f
  6383     1119  0CE9               	rrf	i1___fltol@f1+1,f
  6384     111A  0CE8               	rrf	i1___fltol@f1,f
  6385     111B  3EFF               	addlw	-1
  6386     111C  1D03               	skipz
  6387     111D  2914               	goto	u360_25
  6388     111E  3001               	movlw	1
  6389     111F  00EC               	movwf	??i1___fltol
  6390     1120  086C               	movf	??i1___fltol,w
  6391     1121  1683               	bsf	3,5	;RP0=1, select bank1
  6392     1122  1303               	bcf	3,6	;RP1=0, select bank1
  6393     1123  07A1               	addwf	i1___fltol@exp1^(0+128),f
  6394     1124  1D03               	btfss	3,2
  6395     1125  2927               	goto	u361_21
  6396     1126  2928               	goto	u361_20
  6397     1127                     u361_21:
  6398     1127  2913               	goto	i1l2568
  6399     1128                     u361_20:
  6400     1128  2944               	goto	i1l2578
  6401     1129                     i1l2570:
  6402     1129  3020               	movlw	32
  6403     112A  0221               	subwf	i1___fltol@exp1^(0+128),w
  6404     112B  1C03               	skipc
  6405     112C  292E               	goto	u362_21
  6406     112D  292F               	goto	u362_20
  6407     112E                     u362_21:
  6408     112E  293F               	goto	i1l565
  6409     112F                     u362_20:
  6410     112F  28D6               	goto	i1l2548
  6411     1130                     i1l2576:
  6412     1130  3001               	movlw	1
  6413     1131  1283               	bcf	3,5	;RP0=0, select bank0
  6414     1132  1303               	bcf	3,6	;RP1=0, select bank0
  6415     1133  00EC               	movwf	??i1___fltol
  6416     1134                     u363_25:
  6417     1134  1003               	clrc
  6418     1135  0DE8               	rlf	i1___fltol@f1,f
  6419     1136  0DE9               	rlf	i1___fltol@f1+1,f
  6420     1137  0DEA               	rlf	i1___fltol@f1+2,f
  6421     1138  0DEB               	rlf	i1___fltol@f1+3,f
  6422     1139  0BEC               	decfsz	??i1___fltol,f
  6423     113A  2934               	goto	u363_25
  6424     113B  3001               	movlw	1
  6425     113C  1683               	bsf	3,5	;RP0=1, select bank1
  6426     113D  1303               	bcf	3,6	;RP1=0, select bank1
  6427     113E  02A1               	subwf	i1___fltol@exp1^(0+128),f
  6428     113F                     i1l565:
  6429     113F  0821               	movf	i1___fltol@exp1^(0+128),w
  6430     1140  1D03               	btfss	3,2
  6431     1141  2943               	goto	u364_21
  6432     1142  2944               	goto	u364_20
  6433     1143                     u364_21:
  6434     1143  2930               	goto	i1l2576
  6435     1144                     u364_20:
  6436     1144                     i1l2578:
  6437     1144  0820               	movf	i1___fltol@sign1^(0+128),w
  6438     1145  1903               	btfsc	3,2
  6439     1146  2948               	goto	u365_21
  6440     1147  2949               	goto	u365_20
  6441     1148                     u365_21:
  6442     1148  2956               	goto	i1l568
  6443     1149                     u365_20:
  6444     1149                     i1l2580:
  6445     1149  1283               	bcf	3,5	;RP0=0, select bank0
  6446     114A  1303               	bcf	3,6	;RP1=0, select bank0
  6447     114B  09E8               	comf	i1___fltol@f1,f
  6448     114C  09E9               	comf	i1___fltol@f1+1,f
  6449     114D  09EA               	comf	i1___fltol@f1+2,f
  6450     114E  09EB               	comf	i1___fltol@f1+3,f
  6451     114F  0AE8               	incf	i1___fltol@f1,f
  6452     1150  1903               	skipnz
  6453     1151  0AE9               	incf	i1___fltol@f1+1,f
  6454     1152  1903               	skipnz
  6455     1153  0AEA               	incf	i1___fltol@f1+2,f
  6456     1154  1903               	skipnz
  6457     1155  0AEB               	incf	i1___fltol@f1+3,f
  6458     1156                     i1l568:
  6459     1156                     i1l558:
  6460     1156  0008               	return
  6461     1157                     __end_ofi1___fltol:
  6462                           
  6463                           	psect	text14
  6464     037F                     __ptext14:	
  6465 ;; *************** function i1___flmul *****************
  6466 ;; Defined at:
  6467 ;;		line 8 in file "C:\Program Files\Microchip\xc8\v2.40\pic\sources\c90\common\sprcmul.c"
  6468 ;; Parameters:    Size  Location     Type
  6469 ;;  b               4   26[BANK0 ] long 
  6470 ;;  a               4   30[BANK0 ] long 
  6471 ;; Auto vars:     Size  Location     Type
  6472 ;;  prod            4   46[BANK0 ] struct .
  6473 ;;  grs             4   40[BANK0 ] unsigned long 
  6474 ;;  temp            2   50[BANK0 ] struct .
  6475 ;;  bexp            1   45[BANK0 ] unsigned char 
  6476 ;;  aexp            1   44[BANK0 ] unsigned char 
  6477 ;;  sign            1   39[BANK0 ] unsigned char 
  6478 ;; Return value:  Size  Location     Type
  6479 ;;                  4   26[BANK0 ] unsigned char 
  6480 ;; Registers used:
  6481 ;;		wreg, status,2, status,0, btemp+1, pclath, cstack
  6482 ;; Tracked objects:
  6483 ;;		On entry : 0/0
  6484 ;;		On exit  : 0/0
  6485 ;;		Unchanged: 0/0
  6486 ;; Data sizes:     COMMON   BANK0   BANK1   BANK3   BANK2
  6487 ;;      Params:         0       8       0       0       0
  6488 ;;      Locals:         0      13       0       0       0
  6489 ;;      Temps:          0       5       0       0       0
  6490 ;;      Totals:         0      26       0       0       0
  6491 ;;Total ram usage:       26 bytes
  6492 ;; Hardware stack levels used: 1
  6493 ;; Hardware stack levels required when called: 1
  6494 ;; This function calls:
  6495 ;;		i1__Umul8_16
  6496 ;; This function is called by:
  6497 ;;		_isr
  6498 ;;		_servos
  6499 ;;		i1_PWM_duty
  6500 ;; This function uses a non-reentrant model
  6501 ;;
  6502                           
  6503     037F                     i1___flmul:	
  6504                           ;psect for function i1___flmul
  6505                           
  6506     037F                     i1l2724:	
  6507                           ;incstack = 0
  6508                           ; Regs used in i1___flmul: [wreg+status,2+status,0+btemp+1+pclath+cstack]
  6509                           
  6510     037F  1283               	bcf	3,5	;RP0=0, select bank0
  6511     0380  1303               	bcf	3,6	;RP1=0, select bank0
  6512     0381  083D               	movf	i1___flmul@b+3,w
  6513     0382  3980               	andlw	128
  6514     0383  00C7               	movwf	i1___flmul@sign
  6515     0384                     i1l2726:
  6516     0384  083D               	movf	i1___flmul@b+3,w
  6517     0385  00C2               	movwf	??i1___flmul
  6518     0386  0742               	addwf	??i1___flmul,w
  6519     0387  00CD               	movwf	i1___flmul@bexp
  6520     0388                     i1l2728:
  6521     0388  1FBC               	btfss	i1___flmul@b+2,7
  6522     0389  2B8B               	goto	u395_21
  6523     038A  2B8C               	goto	u395_20
  6524     038B                     u395_21:
  6525     038B  2B8D               	goto	i1l2732
  6526     038C                     u395_20:
  6527     038C                     i1l2730:
  6528     038C  144D               	bsf	i1___flmul@bexp,0
  6529     038D                     i1l2732:
  6530     038D  084D               	movf	i1___flmul@bexp,w
  6531     038E  1903               	btfsc	3,2
  6532     038F  2B91               	goto	u396_21
  6533     0390  2B92               	goto	u396_20
  6534     0391                     u396_21:
  6535     0391  2BA1               	goto	i1l2740
  6536     0392                     u396_20:
  6537     0392                     i1l2734:
  6538     0392  0A4D               	incf	i1___flmul@bexp,w
  6539     0393  1D03               	btfss	3,2
  6540     0394  2B96               	goto	u397_21
  6541     0395  2B97               	goto	u397_20
  6542     0396                     u397_21:
  6543     0396  2B9F               	goto	i1l2738
  6544     0397                     u397_20:
  6545     0397                     i1l2736:
  6546     0397  3000               	movlw	0
  6547     0398  00BD               	movwf	i1___flmul@b+3
  6548     0399  3000               	movlw	0
  6549     039A  00BC               	movwf	i1___flmul@b+2
  6550     039B  3000               	movlw	0
  6551     039C  00BB               	movwf	i1___flmul@b+1
  6552     039D  3000               	movlw	0
  6553     039E  00BA               	movwf	i1___flmul@b
  6554     039F                     i1l2738:
  6555     039F  17BC               	bsf	i1___flmul@b+2,7
  6556     03A0  2BA9               	goto	i1l2742
  6557     03A1                     i1l2740:
  6558     03A1  3000               	movlw	0
  6559     03A2  00BD               	movwf	i1___flmul@b+3
  6560     03A3  3000               	movlw	0
  6561     03A4  00BC               	movwf	i1___flmul@b+2
  6562     03A5  3000               	movlw	0
  6563     03A6  00BB               	movwf	i1___flmul@b+1
  6564     03A7  3000               	movlw	0
  6565     03A8  00BA               	movwf	i1___flmul@b
  6566     03A9                     i1l2742:
  6567     03A9  0841               	movf	i1___flmul@a+3,w
  6568     03AA  3980               	andlw	128
  6569     03AB  00C2               	movwf	??i1___flmul
  6570     03AC  0842               	movf	??i1___flmul,w
  6571     03AD  06C7               	xorwf	i1___flmul@sign,f
  6572     03AE                     i1l2744:
  6573     03AE  0841               	movf	i1___flmul@a+3,w
  6574     03AF  00C2               	movwf	??i1___flmul
  6575     03B0  0742               	addwf	??i1___flmul,w
  6576     03B1  00CC               	movwf	i1___flmul@aexp
  6577     03B2                     i1l2746:
  6578     03B2  1FC0               	btfss	i1___flmul@a+2,7
  6579     03B3  2BB5               	goto	u398_21
  6580     03B4  2BB6               	goto	u398_20
  6581     03B5                     u398_21:
  6582     03B5  2BB7               	goto	i1l2750
  6583     03B6                     u398_20:
  6584     03B6                     i1l2748:
  6585     03B6  144C               	bsf	i1___flmul@aexp,0
  6586     03B7                     i1l2750:
  6587     03B7  084C               	movf	i1___flmul@aexp,w
  6588     03B8  1903               	btfsc	3,2
  6589     03B9  2BBB               	goto	u399_21
  6590     03BA  2BBC               	goto	u399_20
  6591     03BB                     u399_21:
  6592     03BB  2BCB               	goto	i1l2758
  6593     03BC                     u399_20:
  6594     03BC                     i1l2752:
  6595     03BC  0A4C               	incf	i1___flmul@aexp,w
  6596     03BD  1D03               	btfss	3,2
  6597     03BE  2BC0               	goto	u400_21
  6598     03BF  2BC1               	goto	u400_20
  6599     03C0                     u400_21:
  6600     03C0  2BC9               	goto	i1l2756
  6601     03C1                     u400_20:
  6602     03C1                     i1l2754:
  6603     03C1  3000               	movlw	0
  6604     03C2  00C1               	movwf	i1___flmul@a+3
  6605     03C3  3000               	movlw	0
  6606     03C4  00C0               	movwf	i1___flmul@a+2
  6607     03C5  3000               	movlw	0
  6608     03C6  00BF               	movwf	i1___flmul@a+1
  6609     03C7  3000               	movlw	0
  6610     03C8  00BE               	movwf	i1___flmul@a
  6611     03C9                     i1l2756:
  6612     03C9  17C0               	bsf	i1___flmul@a+2,7
  6613     03CA  2BD3               	goto	i1l2760
  6614     03CB                     i1l2758:
  6615     03CB  3000               	movlw	0
  6616     03CC  00C1               	movwf	i1___flmul@a+3
  6617     03CD  3000               	movlw	0
  6618     03CE  00C0               	movwf	i1___flmul@a+2
  6619     03CF  3000               	movlw	0
  6620     03D0  00BF               	movwf	i1___flmul@a+1
  6621     03D1  3000               	movlw	0
  6622     03D2  00BE               	movwf	i1___flmul@a
  6623     03D3                     i1l2760:
  6624     03D3  084C               	movf	i1___flmul@aexp,w
  6625     03D4  1903               	btfsc	3,2
  6626     03D5  2BD7               	goto	u401_21
  6627     03D6  2BD8               	goto	u401_20
  6628     03D7                     u401_21:
  6629     03D7  2BDD               	goto	i1l2764
  6630     03D8                     u401_20:
  6631     03D8                     i1l2762:
  6632     03D8  084D               	movf	i1___flmul@bexp,w
  6633     03D9  1D03               	btfss	3,2
  6634     03DA  2BDC               	goto	u402_21
  6635     03DB  2BDD               	goto	u402_20
  6636     03DC                     u402_21:
  6637     03DC  2BE6               	goto	i1l2768
  6638     03DD                     u402_20:
  6639     03DD                     i1l2764:
  6640     03DD  3000               	movlw	0
  6641     03DE  00BD               	movwf	?i1___flmul+3
  6642     03DF  3000               	movlw	0
  6643     03E0  00BC               	movwf	?i1___flmul+2
  6644     03E1  3000               	movlw	0
  6645     03E2  00BB               	movwf	?i1___flmul+1
  6646     03E3  3000               	movlw	0
  6647     03E4  00BA               	movwf	?i1___flmul
  6648     03E5  2EC3               	goto	i1l761
  6649     03E6                     i1l2768:
  6650     03E6  083A               	movf	i1___flmul@b,w
  6651     03E7  00F0               	movwf	i1__Umul8_16@multiplicand
  6652     03E8  0840               	movf	i1___flmul@a+2,w
  6653     03E9  160A  158A  26CB  120A  118A  	fcall	i1__Umul8_16
  6654     03EE  0871               	movf	?i1__Umul8_16+1,w
  6655     03EF  1283               	bcf	3,5	;RP0=0, select bank0
  6656     03F0  1303               	bcf	3,6	;RP1=0, select bank0
  6657     03F1  00D3               	movwf	i1___flmul@temp+1
  6658     03F2  0870               	movf	?i1__Umul8_16,w
  6659     03F3  00D2               	movwf	i1___flmul@temp
  6660     03F4                     i1l2770:
  6661     03F4  0852               	movf	i1___flmul@temp,w
  6662     03F5  00C2               	movwf	??i1___flmul
  6663     03F6  01C3               	clrf	??i1___flmul+1
  6664     03F7  01C4               	clrf	??i1___flmul+2
  6665     03F8  01C5               	clrf	??i1___flmul+3
  6666     03F9  0845               	movf	??i1___flmul+3,w
  6667     03FA  00CB               	movwf	i1___flmul@grs+3
  6668     03FB  0844               	movf	??i1___flmul+2,w
  6669     03FC  00CA               	movwf	i1___flmul@grs+2
  6670     03FD  0843               	movf	??i1___flmul+1,w
  6671     03FE  00C9               	movwf	i1___flmul@grs+1
  6672     03FF  0842               	movf	??i1___flmul,w
  6673     0400  00C8               	movwf	i1___flmul@grs
  6674     0401                     i1l2772:
  6675     0401  0853               	movf	i1___flmul@temp+1,w
  6676     0402  00C2               	movwf	??i1___flmul
  6677     0403  01C3               	clrf	??i1___flmul+1
  6678     0404  01C4               	clrf	??i1___flmul+2
  6679     0405  01C5               	clrf	??i1___flmul+3
  6680     0406  0845               	movf	??i1___flmul+3,w
  6681     0407  00D1               	movwf	i1___flmul@prod+3
  6682     0408  0844               	movf	??i1___flmul+2,w
  6683     0409  00D0               	movwf	i1___flmul@prod+2
  6684     040A  0843               	movf	??i1___flmul+1,w
  6685     040B  00CF               	movwf	i1___flmul@prod+1
  6686     040C  0842               	movf	??i1___flmul,w
  6687     040D  00CE               	movwf	i1___flmul@prod
  6688     040E  083B               	movf	i1___flmul@b+1,w
  6689     040F  00F0               	movwf	i1__Umul8_16@multiplicand
  6690     0410  083F               	movf	i1___flmul@a+1,w
  6691     0411  160A  158A  26CB  120A  118A  	fcall	i1__Umul8_16
  6692     0416  0871               	movf	?i1__Umul8_16+1,w
  6693     0417  1283               	bcf	3,5	;RP0=0, select bank0
  6694     0418  1303               	bcf	3,6	;RP1=0, select bank0
  6695     0419  00D3               	movwf	i1___flmul@temp+1
  6696     041A  0870               	movf	?i1__Umul8_16,w
  6697     041B  00D2               	movwf	i1___flmul@temp
  6698     041C                     i1l2774:
  6699     041C  0852               	movf	i1___flmul@temp,w
  6700     041D  00C2               	movwf	??i1___flmul
  6701     041E  01C3               	clrf	??i1___flmul+1
  6702     041F  01C4               	clrf	??i1___flmul+2
  6703     0420  01C5               	clrf	??i1___flmul+3
  6704     0421  0842               	movf	??i1___flmul,w
  6705     0422  07C8               	addwf	i1___flmul@grs,f
  6706     0423  0843               	movf	??i1___flmul+1,w
  6707     0424  1103               	clrz
  6708     0425  1803               	skipnc
  6709     0426  3E01               	addlw	1
  6710     0427  1903               	skipnz
  6711     0428  2C2A               	goto	u403_21
  6712     0429  07C9               	addwf	i1___flmul@grs+1,f
  6713     042A                     u403_21:
  6714     042A  0844               	movf	??i1___flmul+2,w
  6715     042B  1103               	clrz
  6716     042C  1803               	skipnc
  6717     042D  3E01               	addlw	1
  6718     042E  1903               	skipnz
  6719     042F  2C31               	goto	u403_22
  6720     0430  07CA               	addwf	i1___flmul@grs+2,f
  6721     0431                     u403_22:
  6722     0431  0845               	movf	??i1___flmul+3,w
  6723     0432  1103               	clrz
  6724     0433  1803               	skipnc
  6725     0434  3E01               	addlw	1
  6726     0435  1903               	skipnz
  6727     0436  2C38               	goto	u403_23
  6728     0437  07CB               	addwf	i1___flmul@grs+3,f
  6729     0438                     u403_23:
  6730     0438                     i1l2776:
  6731     0438  0853               	movf	i1___flmul@temp+1,w
  6732     0439  00C2               	movwf	??i1___flmul
  6733     043A  01C3               	clrf	??i1___flmul+1
  6734     043B  01C4               	clrf	??i1___flmul+2
  6735     043C  01C5               	clrf	??i1___flmul+3
  6736     043D  0842               	movf	??i1___flmul,w
  6737     043E  07CE               	addwf	i1___flmul@prod,f
  6738     043F  0843               	movf	??i1___flmul+1,w
  6739     0440  1103               	clrz
  6740     0441  1803               	skipnc
  6741     0442  3E01               	addlw	1
  6742     0443  1903               	skipnz
  6743     0444  2C46               	goto	u404_21
  6744     0445  07CF               	addwf	i1___flmul@prod+1,f
  6745     0446                     u404_21:
  6746     0446  0844               	movf	??i1___flmul+2,w
  6747     0447  1103               	clrz
  6748     0448  1803               	skipnc
  6749     0449  3E01               	addlw	1
  6750     044A  1903               	skipnz
  6751     044B  2C4D               	goto	u404_22
  6752     044C  07D0               	addwf	i1___flmul@prod+2,f
  6753     044D                     u404_22:
  6754     044D  0845               	movf	??i1___flmul+3,w
  6755     044E  1103               	clrz
  6756     044F  1803               	skipnc
  6757     0450  3E01               	addlw	1
  6758     0451  1903               	skipnz
  6759     0452  2C54               	goto	u404_23
  6760     0453  07D1               	addwf	i1___flmul@prod+3,f
  6761     0454                     u404_23:
  6762     0454  083C               	movf	i1___flmul@b+2,w
  6763     0455  00F0               	movwf	i1__Umul8_16@multiplicand
  6764     0456  083E               	movf	i1___flmul@a,w
  6765     0457  160A  158A  26CB  120A  118A  	fcall	i1__Umul8_16
  6766     045C  0871               	movf	?i1__Umul8_16+1,w
  6767     045D  1283               	bcf	3,5	;RP0=0, select bank0
  6768     045E  1303               	bcf	3,6	;RP1=0, select bank0
  6769     045F  00D3               	movwf	i1___flmul@temp+1
  6770     0460  0870               	movf	?i1__Umul8_16,w
  6771     0461  00D2               	movwf	i1___flmul@temp
  6772     0462                     i1l2778:
  6773     0462  0852               	movf	i1___flmul@temp,w
  6774     0463  00C2               	movwf	??i1___flmul
  6775     0464  01C3               	clrf	??i1___flmul+1
  6776     0465  01C4               	clrf	??i1___flmul+2
  6777     0466  01C5               	clrf	??i1___flmul+3
  6778     0467  0842               	movf	??i1___flmul,w
  6779     0468  07C8               	addwf	i1___flmul@grs,f
  6780     0469  0843               	movf	??i1___flmul+1,w
  6781     046A  1103               	clrz
  6782     046B  1803               	skipnc
  6783     046C  3E01               	addlw	1
  6784     046D  1903               	skipnz
  6785     046E  2C70               	goto	u405_21
  6786     046F  07C9               	addwf	i1___flmul@grs+1,f
  6787     0470                     u405_21:
  6788     0470  0844               	movf	??i1___flmul+2,w
  6789     0471  1103               	clrz
  6790     0472  1803               	skipnc
  6791     0473  3E01               	addlw	1
  6792     0474  1903               	skipnz
  6793     0475  2C77               	goto	u405_22
  6794     0476  07CA               	addwf	i1___flmul@grs+2,f
  6795     0477                     u405_22:
  6796     0477  0845               	movf	??i1___flmul+3,w
  6797     0478  1103               	clrz
  6798     0479  1803               	skipnc
  6799     047A  3E01               	addlw	1
  6800     047B  1903               	skipnz
  6801     047C  2C7E               	goto	u405_23
  6802     047D  07CB               	addwf	i1___flmul@grs+3,f
  6803     047E                     u405_23:
  6804     047E                     i1l2780:
  6805     047E  0853               	movf	i1___flmul@temp+1,w
  6806     047F  00C2               	movwf	??i1___flmul
  6807     0480  01C3               	clrf	??i1___flmul+1
  6808     0481  01C4               	clrf	??i1___flmul+2
  6809     0482  01C5               	clrf	??i1___flmul+3
  6810     0483  0842               	movf	??i1___flmul,w
  6811     0484  07CE               	addwf	i1___flmul@prod,f
  6812     0485  0843               	movf	??i1___flmul+1,w
  6813     0486  1103               	clrz
  6814     0487  1803               	skipnc
  6815     0488  3E01               	addlw	1
  6816     0489  1903               	skipnz
  6817     048A  2C8C               	goto	u406_21
  6818     048B  07CF               	addwf	i1___flmul@prod+1,f
  6819     048C                     u406_21:
  6820     048C  0844               	movf	??i1___flmul+2,w
  6821     048D  1103               	clrz
  6822     048E  1803               	skipnc
  6823     048F  3E01               	addlw	1
  6824     0490  1903               	skipnz
  6825     0491  2C93               	goto	u406_22
  6826     0492  07D0               	addwf	i1___flmul@prod+2,f
  6827     0493                     u406_22:
  6828     0493  0845               	movf	??i1___flmul+3,w
  6829     0494  1103               	clrz
  6830     0495  1803               	skipnc
  6831     0496  3E01               	addlw	1
  6832     0497  1903               	skipnz
  6833     0498  2C9A               	goto	u406_23
  6834     0499  07D1               	addwf	i1___flmul@prod+3,f
  6835     049A                     u406_23:
  6836     049A                     i1l2782:
  6837     049A  3008               	movlw	8
  6838     049B  00C2               	movwf	??i1___flmul
  6839     049C                     u407_25:
  6840     049C  1003               	clrc
  6841     049D  0DC8               	rlf	i1___flmul@grs,f
  6842     049E  0DC9               	rlf	i1___flmul@grs+1,f
  6843     049F  0DCA               	rlf	i1___flmul@grs+2,f
  6844     04A0  0DCB               	rlf	i1___flmul@grs+3,f
  6845     04A1  0BC2               	decfsz	??i1___flmul,f
  6846     04A2  2C9C               	goto	u407_25
  6847     04A3                     i1l2784:
  6848     04A3  083B               	movf	i1___flmul@b+1,w
  6849     04A4  00F0               	movwf	i1__Umul8_16@multiplicand
  6850     04A5  083E               	movf	i1___flmul@a,w
  6851     04A6  160A  158A  26CB  120A  118A  	fcall	i1__Umul8_16
  6852     04AB  0871               	movf	?i1__Umul8_16+1,w
  6853     04AC  1283               	bcf	3,5	;RP0=0, select bank0
  6854     04AD  1303               	bcf	3,6	;RP1=0, select bank0
  6855     04AE  00D3               	movwf	i1___flmul@temp+1
  6856     04AF  0870               	movf	?i1__Umul8_16,w
  6857     04B0  00D2               	movwf	i1___flmul@temp
  6858     04B1                     i1l2786:
  6859     04B1  0852               	movf	i1___flmul@temp,w
  6860     04B2  00C2               	movwf	??i1___flmul
  6861     04B3  0853               	movf	i1___flmul@temp+1,w
  6862     04B4  00C3               	movwf	??i1___flmul+1
  6863     04B5  01C4               	clrf	??i1___flmul+2
  6864     04B6  01C5               	clrf	??i1___flmul+3
  6865     04B7  0842               	movf	??i1___flmul,w
  6866     04B8  07C8               	addwf	i1___flmul@grs,f
  6867     04B9  0843               	movf	??i1___flmul+1,w
  6868     04BA  1103               	clrz
  6869     04BB  1803               	skipnc
  6870     04BC  3E01               	addlw	1
  6871     04BD  1903               	skipnz
  6872     04BE  2CC0               	goto	u408_21
  6873     04BF  07C9               	addwf	i1___flmul@grs+1,f
  6874     04C0                     u408_21:
  6875     04C0  0844               	movf	??i1___flmul+2,w
  6876     04C1  1103               	clrz
  6877     04C2  1803               	skipnc
  6878     04C3  3E01               	addlw	1
  6879     04C4  1903               	skipnz
  6880     04C5  2CC7               	goto	u408_22
  6881     04C6  07CA               	addwf	i1___flmul@grs+2,f
  6882     04C7                     u408_22:
  6883     04C7  0845               	movf	??i1___flmul+3,w
  6884     04C8  1103               	clrz
  6885     04C9  1803               	skipnc
  6886     04CA  3E01               	addlw	1
  6887     04CB  1903               	skipnz
  6888     04CC  2CCE               	goto	u408_23
  6889     04CD  07CB               	addwf	i1___flmul@grs+3,f
  6890     04CE                     u408_23:
  6891     04CE                     i1l2788:
  6892     04CE  083A               	movf	i1___flmul@b,w
  6893     04CF  00F0               	movwf	i1__Umul8_16@multiplicand
  6894     04D0  083F               	movf	i1___flmul@a+1,w
  6895     04D1  160A  158A  26CB  120A  118A  	fcall	i1__Umul8_16
  6896     04D6  0871               	movf	?i1__Umul8_16+1,w
  6897     04D7  1283               	bcf	3,5	;RP0=0, select bank0
  6898     04D8  1303               	bcf	3,6	;RP1=0, select bank0
  6899     04D9  00D3               	movwf	i1___flmul@temp+1
  6900     04DA  0870               	movf	?i1__Umul8_16,w
  6901     04DB  00D2               	movwf	i1___flmul@temp
  6902     04DC                     i1l2790:
  6903     04DC  0852               	movf	i1___flmul@temp,w
  6904     04DD  00C2               	movwf	??i1___flmul
  6905     04DE  0853               	movf	i1___flmul@temp+1,w
  6906     04DF  00C3               	movwf	??i1___flmul+1
  6907     04E0  01C4               	clrf	??i1___flmul+2
  6908     04E1  01C5               	clrf	??i1___flmul+3
  6909     04E2  0842               	movf	??i1___flmul,w
  6910     04E3  07C8               	addwf	i1___flmul@grs,f
  6911     04E4  0843               	movf	??i1___flmul+1,w
  6912     04E5  1103               	clrz
  6913     04E6  1803               	skipnc
  6914     04E7  3E01               	addlw	1
  6915     04E8  1903               	skipnz
  6916     04E9  2CEB               	goto	u409_21
  6917     04EA  07C9               	addwf	i1___flmul@grs+1,f
  6918     04EB                     u409_21:
  6919     04EB  0844               	movf	??i1___flmul+2,w
  6920     04EC  1103               	clrz
  6921     04ED  1803               	skipnc
  6922     04EE  3E01               	addlw	1
  6923     04EF  1903               	skipnz
  6924     04F0  2CF2               	goto	u409_22
  6925     04F1  07CA               	addwf	i1___flmul@grs+2,f
  6926     04F2                     u409_22:
  6927     04F2  0845               	movf	??i1___flmul+3,w
  6928     04F3  1103               	clrz
  6929     04F4  1803               	skipnc
  6930     04F5  3E01               	addlw	1
  6931     04F6  1903               	skipnz
  6932     04F7  2CF9               	goto	u409_23
  6933     04F8  07CB               	addwf	i1___flmul@grs+3,f
  6934     04F9                     u409_23:
  6935     04F9                     i1l2792:
  6936     04F9  3008               	movlw	8
  6937     04FA  00C2               	movwf	??i1___flmul
  6938     04FB                     u410_25:
  6939     04FB  1003               	clrc
  6940     04FC  0DC8               	rlf	i1___flmul@grs,f
  6941     04FD  0DC9               	rlf	i1___flmul@grs+1,f
  6942     04FE  0DCA               	rlf	i1___flmul@grs+2,f
  6943     04FF  0DCB               	rlf	i1___flmul@grs+3,f
  6944     0500  0BC2               	decfsz	??i1___flmul,f
  6945     0501  2CFB               	goto	u410_25
  6946     0502  083A               	movf	i1___flmul@b,w
  6947     0503  00F0               	movwf	i1__Umul8_16@multiplicand
  6948     0504  083E               	movf	i1___flmul@a,w
  6949     0505  160A  158A  26CB  120A  118A  	fcall	i1__Umul8_16
  6950     050A  0871               	movf	?i1__Umul8_16+1,w
  6951     050B  1283               	bcf	3,5	;RP0=0, select bank0
  6952     050C  1303               	bcf	3,6	;RP1=0, select bank0
  6953     050D  00D3               	movwf	i1___flmul@temp+1
  6954     050E  0870               	movf	?i1__Umul8_16,w
  6955     050F  00D2               	movwf	i1___flmul@temp
  6956     0510                     i1l2794:
  6957     0510  0852               	movf	i1___flmul@temp,w
  6958     0511  00C2               	movwf	??i1___flmul
  6959     0512  0853               	movf	i1___flmul@temp+1,w
  6960     0513  00C3               	movwf	??i1___flmul+1
  6961     0514  01C4               	clrf	??i1___flmul+2
  6962     0515  01C5               	clrf	??i1___flmul+3
  6963     0516  0842               	movf	??i1___flmul,w
  6964     0517  07C8               	addwf	i1___flmul@grs,f
  6965     0518  0843               	movf	??i1___flmul+1,w
  6966     0519  1103               	clrz
  6967     051A  1803               	skipnc
  6968     051B  3E01               	addlw	1
  6969     051C  1903               	skipnz
  6970     051D  2D1F               	goto	u411_21
  6971     051E  07C9               	addwf	i1___flmul@grs+1,f
  6972     051F                     u411_21:
  6973     051F  0844               	movf	??i1___flmul+2,w
  6974     0520  1103               	clrz
  6975     0521  1803               	skipnc
  6976     0522  3E01               	addlw	1
  6977     0523  1903               	skipnz
  6978     0524  2D26               	goto	u411_22
  6979     0525  07CA               	addwf	i1___flmul@grs+2,f
  6980     0526                     u411_22:
  6981     0526  0845               	movf	??i1___flmul+3,w
  6982     0527  1103               	clrz
  6983     0528  1803               	skipnc
  6984     0529  3E01               	addlw	1
  6985     052A  1903               	skipnz
  6986     052B  2D2D               	goto	u411_23
  6987     052C  07CB               	addwf	i1___flmul@grs+3,f
  6988     052D                     u411_23:
  6989     052D                     i1l2796:
  6990     052D  083B               	movf	i1___flmul@b+1,w
  6991     052E  00F0               	movwf	i1__Umul8_16@multiplicand
  6992     052F  0840               	movf	i1___flmul@a+2,w
  6993     0530  160A  158A  26CB  120A  118A  	fcall	i1__Umul8_16
  6994     0535  0871               	movf	?i1__Umul8_16+1,w
  6995     0536  1283               	bcf	3,5	;RP0=0, select bank0
  6996     0537  1303               	bcf	3,6	;RP1=0, select bank0
  6997     0538  00D3               	movwf	i1___flmul@temp+1
  6998     0539  0870               	movf	?i1__Umul8_16,w
  6999     053A  00D2               	movwf	i1___flmul@temp
  7000     053B  0852               	movf	i1___flmul@temp,w
  7001     053C  00C2               	movwf	??i1___flmul
  7002     053D  0853               	movf	i1___flmul@temp+1,w
  7003     053E  00C3               	movwf	??i1___flmul+1
  7004     053F  01C4               	clrf	??i1___flmul+2
  7005     0540  01C5               	clrf	??i1___flmul+3
  7006     0541  0842               	movf	??i1___flmul,w
  7007     0542  07CE               	addwf	i1___flmul@prod,f
  7008     0543  0843               	movf	??i1___flmul+1,w
  7009     0544  1103               	clrz
  7010     0545  1803               	skipnc
  7011     0546  3E01               	addlw	1
  7012     0547  1903               	skipnz
  7013     0548  2D4A               	goto	u412_21
  7014     0549  07CF               	addwf	i1___flmul@prod+1,f
  7015     054A                     u412_21:
  7016     054A  0844               	movf	??i1___flmul+2,w
  7017     054B  1103               	clrz
  7018     054C  1803               	skipnc
  7019     054D  3E01               	addlw	1
  7020     054E  1903               	skipnz
  7021     054F  2D51               	goto	u412_22
  7022     0550  07D0               	addwf	i1___flmul@prod+2,f
  7023     0551                     u412_22:
  7024     0551  0845               	movf	??i1___flmul+3,w
  7025     0552  1103               	clrz
  7026     0553  1803               	skipnc
  7027     0554  3E01               	addlw	1
  7028     0555  1903               	skipnz
  7029     0556  2D58               	goto	u412_23
  7030     0557  07D1               	addwf	i1___flmul@prod+3,f
  7031     0558                     u412_23:
  7032     0558                     i1l2798:
  7033     0558  083C               	movf	i1___flmul@b+2,w
  7034     0559  00F0               	movwf	i1__Umul8_16@multiplicand
  7035     055A  083F               	movf	i1___flmul@a+1,w
  7036     055B  160A  158A  26CB  120A  118A  	fcall	i1__Umul8_16
  7037     0560  0871               	movf	?i1__Umul8_16+1,w
  7038     0561  1283               	bcf	3,5	;RP0=0, select bank0
  7039     0562  1303               	bcf	3,6	;RP1=0, select bank0
  7040     0563  00D3               	movwf	i1___flmul@temp+1
  7041     0564  0870               	movf	?i1__Umul8_16,w
  7042     0565  00D2               	movwf	i1___flmul@temp
  7043     0566                     i1l2800:
  7044     0566  0852               	movf	i1___flmul@temp,w
  7045     0567  00C2               	movwf	??i1___flmul
  7046     0568  0853               	movf	i1___flmul@temp+1,w
  7047     0569  00C3               	movwf	??i1___flmul+1
  7048     056A  01C4               	clrf	??i1___flmul+2
  7049     056B  01C5               	clrf	??i1___flmul+3
  7050     056C  0842               	movf	??i1___flmul,w
  7051     056D  07CE               	addwf	i1___flmul@prod,f
  7052     056E  0843               	movf	??i1___flmul+1,w
  7053     056F  1103               	clrz
  7054     0570  1803               	skipnc
  7055     0571  3E01               	addlw	1
  7056     0572  1903               	skipnz
  7057     0573  2D75               	goto	u413_21
  7058     0574  07CF               	addwf	i1___flmul@prod+1,f
  7059     0575                     u413_21:
  7060     0575  0844               	movf	??i1___flmul+2,w
  7061     0576  1103               	clrz
  7062     0577  1803               	skipnc
  7063     0578  3E01               	addlw	1
  7064     0579  1903               	skipnz
  7065     057A  2D7C               	goto	u413_22
  7066     057B  07D0               	addwf	i1___flmul@prod+2,f
  7067     057C                     u413_22:
  7068     057C  0845               	movf	??i1___flmul+3,w
  7069     057D  1103               	clrz
  7070     057E  1803               	skipnc
  7071     057F  3E01               	addlw	1
  7072     0580  1903               	skipnz
  7073     0581  2D83               	goto	u413_23
  7074     0582  07D1               	addwf	i1___flmul@prod+3,f
  7075     0583                     u413_23:
  7076     0583  083C               	movf	i1___flmul@b+2,w
  7077     0584  00F0               	movwf	i1__Umul8_16@multiplicand
  7078     0585  0840               	movf	i1___flmul@a+2,w
  7079     0586  160A  158A  26CB  120A  118A  	fcall	i1__Umul8_16
  7080     058B  0871               	movf	?i1__Umul8_16+1,w
  7081     058C  1283               	bcf	3,5	;RP0=0, select bank0
  7082     058D  1303               	bcf	3,6	;RP1=0, select bank0
  7083     058E  00D3               	movwf	i1___flmul@temp+1
  7084     058F  0870               	movf	?i1__Umul8_16,w
  7085     0590  00D2               	movwf	i1___flmul@temp
  7086     0591                     i1l2802:
  7087     0591  0852               	movf	i1___flmul@temp,w
  7088     0592  00C2               	movwf	??i1___flmul
  7089     0593  0853               	movf	i1___flmul@temp+1,w
  7090     0594  00C3               	movwf	??i1___flmul+1
  7091     0595  01C4               	clrf	??i1___flmul+2
  7092     0596  01C5               	clrf	??i1___flmul+3
  7093     0597  3008               	movlw	8
  7094     0598                     u414_25:
  7095     0598  1003               	clrc
  7096     0599  0DC2               	rlf	??i1___flmul,f
  7097     059A  0DC3               	rlf	??i1___flmul+1,f
  7098     059B  0DC4               	rlf	??i1___flmul+2,f
  7099     059C  0DC5               	rlf	??i1___flmul+3,f
  7100     059D                     u414_20:
  7101     059D  3EFF               	addlw	-1
  7102     059E  1D03               	skipz
  7103     059F  2D98               	goto	u414_25
  7104     05A0  0842               	movf	??i1___flmul,w
  7105     05A1  07CE               	addwf	i1___flmul@prod,f
  7106     05A2  0843               	movf	??i1___flmul+1,w
  7107     05A3  1103               	clrz
  7108     05A4  1803               	skipnc
  7109     05A5  3E01               	addlw	1
  7110     05A6  1903               	skipnz
  7111     05A7  2DA9               	goto	u415_21
  7112     05A8  07CF               	addwf	i1___flmul@prod+1,f
  7113     05A9                     u415_21:
  7114     05A9  0844               	movf	??i1___flmul+2,w
  7115     05AA  1103               	clrz
  7116     05AB  1803               	skipnc
  7117     05AC  3E01               	addlw	1
  7118     05AD  1903               	skipnz
  7119     05AE  2DB0               	goto	u415_22
  7120     05AF  07D0               	addwf	i1___flmul@prod+2,f
  7121     05B0                     u415_22:
  7122     05B0  0845               	movf	??i1___flmul+3,w
  7123     05B1  1103               	clrz
  7124     05B2  1803               	skipnc
  7125     05B3  3E01               	addlw	1
  7126     05B4  1903               	skipnz
  7127     05B5  2DB7               	goto	u415_23
  7128     05B6  07D1               	addwf	i1___flmul@prod+3,f
  7129     05B7                     u415_23:
  7130     05B7                     i1l2804:
  7131     05B7  0848               	movf	i1___flmul@grs,w
  7132     05B8  00C2               	movwf	??i1___flmul
  7133     05B9  0849               	movf	i1___flmul@grs+1,w
  7134     05BA  00C3               	movwf	??i1___flmul+1
  7135     05BB  084A               	movf	i1___flmul@grs+2,w
  7136     05BC  00C4               	movwf	??i1___flmul+2
  7137     05BD  084B               	movf	i1___flmul@grs+3,w
  7138     05BE  00C5               	movwf	??i1___flmul+3
  7139     05BF  3018               	movlw	24
  7140     05C0                     u416_25:
  7141     05C0  1003               	clrc
  7142     05C1  0CC5               	rrf	??i1___flmul+3,f
  7143     05C2  0CC4               	rrf	??i1___flmul+2,f
  7144     05C3  0CC3               	rrf	??i1___flmul+1,f
  7145     05C4  0CC2               	rrf	??i1___flmul,f
  7146     05C5                     u416_20:
  7147     05C5  3EFF               	addlw	-1
  7148     05C6  1D03               	skipz
  7149     05C7  2DC0               	goto	u416_25
  7150     05C8  0842               	movf	??i1___flmul,w
  7151     05C9  07CE               	addwf	i1___flmul@prod,f
  7152     05CA  0843               	movf	??i1___flmul+1,w
  7153     05CB  1103               	clrz
  7154     05CC  1803               	skipnc
  7155     05CD  3E01               	addlw	1
  7156     05CE  1903               	skipnz
  7157     05CF  2DD1               	goto	u417_21
  7158     05D0  07CF               	addwf	i1___flmul@prod+1,f
  7159     05D1                     u417_21:
  7160     05D1  0844               	movf	??i1___flmul+2,w
  7161     05D2  1103               	clrz
  7162     05D3  1803               	skipnc
  7163     05D4  3E01               	addlw	1
  7164     05D5  1903               	skipnz
  7165     05D6  2DD8               	goto	u417_22
  7166     05D7  07D0               	addwf	i1___flmul@prod+2,f
  7167     05D8                     u417_22:
  7168     05D8  0845               	movf	??i1___flmul+3,w
  7169     05D9  1103               	clrz
  7170     05DA  1803               	skipnc
  7171     05DB  3E01               	addlw	1
  7172     05DC  1903               	skipnz
  7173     05DD  2DDF               	goto	u417_23
  7174     05DE  07D1               	addwf	i1___flmul@prod+3,f
  7175     05DF                     u417_23:
  7176     05DF                     i1l2806:
  7177     05DF  3008               	movlw	8
  7178     05E0  00C2               	movwf	??i1___flmul
  7179     05E1                     u418_25:
  7180     05E1  1003               	clrc
  7181     05E2  0DC8               	rlf	i1___flmul@grs,f
  7182     05E3  0DC9               	rlf	i1___flmul@grs+1,f
  7183     05E4  0DCA               	rlf	i1___flmul@grs+2,f
  7184     05E5  0DCB               	rlf	i1___flmul@grs+3,f
  7185     05E6  0BC2               	decfsz	??i1___flmul,f
  7186     05E7  2DE1               	goto	u418_25
  7187     05E8                     i1l2808:
  7188     05E8  084D               	movf	i1___flmul@bexp,w
  7189     05E9  074C               	addwf	i1___flmul@aexp,w
  7190     05EA  00C2               	movwf	??i1___flmul
  7191     05EB  01C3               	clrf	??i1___flmul+1
  7192     05EC  0DC3               	rlf	??i1___flmul+1,f
  7193     05ED  0842               	movf	??i1___flmul,w
  7194     05EE  3E82               	addlw	130
  7195     05EF  00D2               	movwf	i1___flmul@temp
  7196     05F0  0843               	movf	??i1___flmul+1,w
  7197     05F1  1803               	skipnc
  7198     05F2  3E01               	addlw	1
  7199     05F3  3EFF               	addlw	255
  7200     05F4  00D3               	movwf	i1___flmul@temp+1
  7201     05F5  2E13               	goto	i1l2820
  7202     05F6                     i1l2810:
  7203     05F6  3001               	movlw	1
  7204     05F7  00C2               	movwf	??i1___flmul
  7205     05F8                     u419_25:
  7206     05F8  1003               	clrc
  7207     05F9  0DCE               	rlf	i1___flmul@prod,f
  7208     05FA  0DCF               	rlf	i1___flmul@prod+1,f
  7209     05FB  0DD0               	rlf	i1___flmul@prod+2,f
  7210     05FC  0DD1               	rlf	i1___flmul@prod+3,f
  7211     05FD  0BC2               	decfsz	??i1___flmul,f
  7212     05FE  2DF8               	goto	u419_25
  7213     05FF                     i1l2812:
  7214     05FF  1FCB               	btfss	i1___flmul@grs+3,7
  7215     0600  2E02               	goto	u420_21
  7216     0601  2E03               	goto	u420_20
  7217     0602                     u420_21:
  7218     0602  2E04               	goto	i1l2816
  7219     0603                     u420_20:
  7220     0603                     i1l2814:
  7221     0603  144E               	bsf	i1___flmul@prod,0
  7222     0604                     i1l2816:
  7223     0604  3001               	movlw	1
  7224     0605  00C2               	movwf	??i1___flmul
  7225     0606                     u421_25:
  7226     0606  1003               	clrc
  7227     0607  0DC8               	rlf	i1___flmul@grs,f
  7228     0608  0DC9               	rlf	i1___flmul@grs+1,f
  7229     0609  0DCA               	rlf	i1___flmul@grs+2,f
  7230     060A  0DCB               	rlf	i1___flmul@grs+3,f
  7231     060B  0BC2               	decfsz	??i1___flmul,f
  7232     060C  2E06               	goto	u421_25
  7233     060D                     i1l2818:
  7234     060D  30FF               	movlw	255
  7235     060E  07D2               	addwf	i1___flmul@temp,f
  7236     060F  1803               	skipnc
  7237     0610  0AD3               	incf	i1___flmul@temp+1,f
  7238     0611  30FF               	movlw	255
  7239     0612  07D3               	addwf	i1___flmul@temp+1,f
  7240     0613                     i1l2820:
  7241     0613  1FD0               	btfss	i1___flmul@prod+2,7
  7242     0614  2E16               	goto	u422_21
  7243     0615  2E17               	goto	u422_20
  7244     0616                     u422_21:
  7245     0616  2DF6               	goto	i1l2810
  7246     0617                     u422_20:
  7247     0617                     i1l2822:
  7248     0617  01CC               	clrf	i1___flmul@aexp
  7249     0618                     i1l2824:
  7250     0618  1FCB               	btfss	i1___flmul@grs+3,7
  7251     0619  2E1B               	goto	u423_21
  7252     061A  2E1C               	goto	u423_20
  7253     061B                     u423_21:
  7254     061B  2E38               	goto	i1l2832
  7255     061C                     u423_20:
  7256     061C                     i1l2826:
  7257     061C  30FF               	movlw	255
  7258     061D  0548               	andwf	i1___flmul@grs,w
  7259     061E  00C2               	movwf	??i1___flmul
  7260     061F  30FF               	movlw	255
  7261     0620  0549               	andwf	i1___flmul@grs+1,w
  7262     0621  00C3               	movwf	??i1___flmul+1
  7263     0622  30FF               	movlw	255
  7264     0623  054A               	andwf	i1___flmul@grs+2,w
  7265     0624  00C4               	movwf	??i1___flmul+2
  7266     0625  307F               	movlw	127
  7267     0626  054B               	andwf	i1___flmul@grs+3,w
  7268     0627  00C5               	movwf	??i1___flmul+3
  7269     0628  0845               	movf	??i1___flmul+3,w
  7270     0629  0444               	iorwf	??i1___flmul+2,w
  7271     062A  0443               	iorwf	??i1___flmul+1,w
  7272     062B  0442               	iorwf	??i1___flmul,w
  7273     062C  1903               	skipnz
  7274     062D  2E2F               	goto	u424_21
  7275     062E  2E30               	goto	u424_20
  7276     062F                     u424_21:
  7277     062F  2E33               	goto	i1l767
  7278     0630                     u424_20:
  7279     0630                     i1l2828:
  7280     0630  01CC               	clrf	i1___flmul@aexp
  7281     0631  0ACC               	incf	i1___flmul@aexp,f
  7282     0632  2E38               	goto	i1l2832
  7283     0633                     i1l767:
  7284     0633  1C4E               	btfss	i1___flmul@prod,0
  7285     0634  2E36               	goto	u425_21
  7286     0635  2E37               	goto	u425_20
  7287     0636                     u425_21:
  7288     0636  2E38               	goto	i1l2832
  7289     0637                     u425_20:
  7290     0637  2E30               	goto	i1l2828
  7291     0638                     i1l2832:
  7292     0638  084C               	movf	i1___flmul@aexp,w
  7293     0639  1903               	btfsc	3,2
  7294     063A  2E3C               	goto	u426_21
  7295     063B  2E3D               	goto	u426_20
  7296     063C                     u426_21:
  7297     063C  2E6E               	goto	i1l2842
  7298     063D                     u426_20:
  7299     063D                     i1l2834:
  7300     063D  3001               	movlw	1
  7301     063E  07CE               	addwf	i1___flmul@prod,f
  7302     063F  3000               	movlw	0
  7303     0640  1803               	skipnc
  7304     0641  3001               	movlw	1
  7305     0642  07CF               	addwf	i1___flmul@prod+1,f
  7306     0643  3000               	movlw	0
  7307     0644  1803               	skipnc
  7308     0645  3001               	movlw	1
  7309     0646  07D0               	addwf	i1___flmul@prod+2,f
  7310     0647  3000               	movlw	0
  7311     0648  1803               	skipnc
  7312     0649  3001               	movlw	1
  7313     064A  07D1               	addwf	i1___flmul@prod+3,f
  7314     064B                     i1l2836:
  7315     064B  1C51               	btfss	i1___flmul@prod+3,0
  7316     064C  2E4E               	goto	u427_21
  7317     064D  2E4F               	goto	u427_20
  7318     064E                     u427_21:
  7319     064E  2E6E               	goto	i1l2842
  7320     064F                     u427_20:
  7321     064F                     i1l2838:
  7322     064F  084E               	movf	i1___flmul@prod,w
  7323     0650  00C2               	movwf	??i1___flmul
  7324     0651  084F               	movf	i1___flmul@prod+1,w
  7325     0652  00C3               	movwf	??i1___flmul+1
  7326     0653  0850               	movf	i1___flmul@prod+2,w
  7327     0654  00C4               	movwf	??i1___flmul+2
  7328     0655  0851               	movf	i1___flmul@prod+3,w
  7329     0656  00C5               	movwf	??i1___flmul+3
  7330     0657  3001               	movlw	1
  7331     0658  00C6               	movwf	??i1___flmul+4
  7332     0659                     u428_25:
  7333     0659  0D45               	rlf	??i1___flmul+3,w
  7334     065A  0CC5               	rrf	??i1___flmul+3,f
  7335     065B  0CC4               	rrf	??i1___flmul+2,f
  7336     065C  0CC3               	rrf	??i1___flmul+1,f
  7337     065D  0CC2               	rrf	??i1___flmul,f
  7338     065E                     u428_20:
  7339     065E  0BC6               	decfsz	??i1___flmul+4,f
  7340     065F  2E59               	goto	u428_25
  7341     0660  0845               	movf	??i1___flmul+3,w
  7342     0661  00D1               	movwf	i1___flmul@prod+3
  7343     0662  0844               	movf	??i1___flmul+2,w
  7344     0663  00D0               	movwf	i1___flmul@prod+2
  7345     0664  0843               	movf	??i1___flmul+1,w
  7346     0665  00CF               	movwf	i1___flmul@prod+1
  7347     0666  0842               	movf	??i1___flmul,w
  7348     0667  00CE               	movwf	i1___flmul@prod
  7349     0668                     i1l2840:
  7350     0668  3001               	movlw	1
  7351     0669  07D2               	addwf	i1___flmul@temp,f
  7352     066A  1803               	skipnc
  7353     066B  0AD3               	incf	i1___flmul@temp+1,f
  7354     066C  3000               	movlw	0
  7355     066D  07D3               	addwf	i1___flmul@temp+1,f
  7356     066E                     i1l2842:
  7357     066E  0853               	movf	i1___flmul@temp+1,w
  7358     066F  3A80               	xorlw	128
  7359     0670  00FF               	movwf	btemp+1
  7360     0671  3080               	movlw	128
  7361     0672  027F               	subwf	btemp+1,w
  7362     0673  1D03               	skipz
  7363     0674  2E77               	goto	u429_25
  7364     0675  30FF               	movlw	255
  7365     0676  0252               	subwf	i1___flmul@temp,w
  7366     0677                     u429_25:
  7367     0677  1C03               	skipc
  7368     0678  2E7A               	goto	u429_21
  7369     0679  2E7B               	goto	u429_20
  7370     067A                     u429_21:
  7371     067A  2E86               	goto	i1l2846
  7372     067B                     u429_20:
  7373     067B                     i1l2844:
  7374     067B  307F               	movlw	127
  7375     067C  1283               	bcf	3,5	;RP0=0, select bank0
  7376     067D  1303               	bcf	3,6	;RP1=0, select bank0
  7377     067E  00D1               	movwf	i1___flmul@prod+3
  7378     067F  3080               	movlw	128
  7379     0680  00D0               	movwf	i1___flmul@prod+2
  7380     0681  3000               	movlw	0
  7381     0682  00CF               	movwf	i1___flmul@prod+1
  7382     0683  3000               	movlw	0
  7383     0684  00CE               	movwf	i1___flmul@prod
  7384     0685  2EB7               	goto	i1l773
  7385     0686                     i1l2846:
  7386     0686  1283               	bcf	3,5	;RP0=0, select bank0
  7387     0687  1303               	bcf	3,6	;RP1=0, select bank0
  7388     0688  0853               	movf	i1___flmul@temp+1,w
  7389     0689  3A80               	xorlw	128
  7390     068A  00FF               	movwf	btemp+1
  7391     068B  3080               	movlw	128
  7392     068C  027F               	subwf	btemp+1,w
  7393     068D  1D03               	skipz
  7394     068E  2E91               	goto	u430_25
  7395     068F  3001               	movlw	1
  7396     0690  0252               	subwf	i1___flmul@temp,w
  7397     0691                     u430_25:
  7398     0691  1803               	skipnc
  7399     0692  2E94               	goto	u430_21
  7400     0693  2E95               	goto	u430_20
  7401     0694                     u430_21:
  7402     0694  2EA1               	goto	i1l2852
  7403     0695                     u430_20:
  7404     0695                     i1l2848:
  7405     0695  3000               	movlw	0
  7406     0696  1283               	bcf	3,5	;RP0=0, select bank0
  7407     0697  1303               	bcf	3,6	;RP1=0, select bank0
  7408     0698  00D1               	movwf	i1___flmul@prod+3
  7409     0699  3000               	movlw	0
  7410     069A  00D0               	movwf	i1___flmul@prod+2
  7411     069B  3000               	movlw	0
  7412     069C  00CF               	movwf	i1___flmul@prod+1
  7413     069D  3000               	movlw	0
  7414     069E  00CE               	movwf	i1___flmul@prod
  7415     069F                     i1l2850:
  7416     069F  01C7               	clrf	i1___flmul@sign
  7417     06A0  2EB7               	goto	i1l773
  7418     06A1                     i1l2852:
  7419     06A1  1283               	bcf	3,5	;RP0=0, select bank0
  7420     06A2  1303               	bcf	3,6	;RP1=0, select bank0
  7421     06A3  0852               	movf	i1___flmul@temp,w
  7422     06A4  00CD               	movwf	i1___flmul@bexp
  7423     06A5  30FF               	movlw	255
  7424     06A6  05CE               	andwf	i1___flmul@prod,f
  7425     06A7  30FF               	movlw	255
  7426     06A8  05CF               	andwf	i1___flmul@prod+1,f
  7427     06A9  307F               	movlw	127
  7428     06AA  05D0               	andwf	i1___flmul@prod+2,f
  7429     06AB  3000               	movlw	0
  7430     06AC  05D1               	andwf	i1___flmul@prod+3,f
  7431     06AD                     i1l2854:
  7432     06AD  1C4D               	btfss	i1___flmul@bexp,0
  7433     06AE  2EB0               	goto	u431_21
  7434     06AF  2EB1               	goto	u431_20
  7435     06B0                     u431_21:
  7436     06B0  2EB2               	goto	i1l2858
  7437     06B1                     u431_20:
  7438     06B1                     i1l2856:
  7439     06B1  17D0               	bsf	i1___flmul@prod+2,7
  7440     06B2                     i1l2858:
  7441     06B2  084D               	movf	i1___flmul@bexp,w
  7442     06B3  00C2               	movwf	??i1___flmul
  7443     06B4  1003               	clrc
  7444     06B5  0C42               	rrf	??i1___flmul,w
  7445     06B6  00D1               	movwf	i1___flmul@prod+3
  7446     06B7                     i1l773:
  7447     06B7  0847               	movf	i1___flmul@sign,w
  7448     06B8  00C2               	movwf	??i1___flmul
  7449     06B9  0842               	movf	??i1___flmul,w
  7450     06BA  04D1               	iorwf	i1___flmul@prod+3,f
  7451     06BB                     i1l2860:
  7452     06BB  0851               	movf	i1___flmul@prod+3,w
  7453     06BC  00BD               	movwf	?i1___flmul+3
  7454     06BD  0850               	movf	i1___flmul@prod+2,w
  7455     06BE  00BC               	movwf	?i1___flmul+2
  7456     06BF  084F               	movf	i1___flmul@prod+1,w
  7457     06C0  00BB               	movwf	?i1___flmul+1
  7458     06C1  084E               	movf	i1___flmul@prod,w
  7459     06C2  00BA               	movwf	?i1___flmul
  7460     06C3                     i1l761:
  7461     06C3  0008               	return
  7462     06C4                     __end_ofi1___flmul:
  7463                           
  7464                           	psect	text15
  7465     1ECB                     __ptext15:	
  7466 ;; *************** function i1__Umul8_16 *****************
  7467 ;; Defined at:
  7468 ;;		line 4 in file "C:\Program Files\Microchip\xc8\v2.40\pic\sources\c90\common\Umul8_16.c"
  7469 ;; Parameters:    Size  Location     Type
  7470 ;;  multiplier      1    wreg     unsigned char 
  7471 ;;  multiplicand    1    0[COMMON] unsigned char 
  7472 ;; Auto vars:     Size  Location     Type
  7473 ;;  multiplier      1    8[COMMON] unsigned char 
  7474 ;;  word_mpld       2    6[COMMON] unsigned int 
  7475 ;;  product         2    4[COMMON] unsigned int 
  7476 ;; Return value:  Size  Location     Type
  7477 ;;                  2    0[COMMON] unsigned int 
  7478 ;; Registers used:
  7479 ;;		wreg, status,2, status,0
  7480 ;; Tracked objects:
  7481 ;;		On entry : 0/0
  7482 ;;		On exit  : 0/0
  7483 ;;		Unchanged: 0/0
  7484 ;; Data sizes:     COMMON   BANK0   BANK1   BANK3   BANK2
  7485 ;;      Params:         2       0       0       0       0
  7486 ;;      Locals:         5       0       0       0       0
  7487 ;;      Temps:          2       0       0       0       0
  7488 ;;      Totals:         9       0       0       0       0
  7489 ;;Total ram usage:        9 bytes
  7490 ;; Hardware stack levels used: 1
  7491 ;; This function calls:
  7492 ;;		Nothing
  7493 ;; This function is called by:
  7494 ;;		i1___flmul
  7495 ;; This function uses a non-reentrant model
  7496 ;;
  7497                           
  7498     1ECB                     i1__Umul8_16:	
  7499                           ;psect for function i1__Umul8_16
  7500                           
  7501                           
  7502                           ;incstack = 0
  7503                           ; Regs used in i1__Umul8_16: [wreg+status,2+status,0]
  7504                           ;i1__Umul8_16@multiplier stored from wreg
  7505     1ECB  00F8               	movwf	i1__Umul8_16@multiplier
  7506     1ECC                     i1l2214:
  7507     1ECC  01F4               	clrf	i1__Umul8_16@product
  7508     1ECD  01F5               	clrf	i1__Umul8_16@product+1
  7509     1ECE                     i1l2216:
  7510     1ECE  0870               	movf	i1__Umul8_16@multiplicand,w
  7511     1ECF  00F2               	movwf	??i1__Umul8_16
  7512     1ED0  01F3               	clrf	??i1__Umul8_16+1
  7513     1ED1  0872               	movf	??i1__Umul8_16,w
  7514     1ED2  00F6               	movwf	i1__Umul8_16@word_mpld
  7515     1ED3  0873               	movf	??i1__Umul8_16+1,w
  7516     1ED4  00F7               	movwf	i1__Umul8_16@word_mpld+1
  7517     1ED5                     i1l2218:
  7518     1ED5  1C78               	btfss	i1__Umul8_16@multiplier,0
  7519     1ED6  2ED8               	goto	u277_21
  7520     1ED7  2ED9               	goto	u277_20
  7521     1ED8                     u277_21:
  7522     1ED8  2EDF               	goto	i1l780
  7523     1ED9                     u277_20:
  7524     1ED9                     i1l2220:
  7525     1ED9  0876               	movf	i1__Umul8_16@word_mpld,w
  7526     1EDA  07F4               	addwf	i1__Umul8_16@product,f
  7527     1EDB  1803               	skipnc
  7528     1EDC  0AF5               	incf	i1__Umul8_16@product+1,f
  7529     1EDD  0877               	movf	i1__Umul8_16@word_mpld+1,w
  7530     1EDE  07F5               	addwf	i1__Umul8_16@product+1,f
  7531     1EDF                     i1l780:
  7532     1EDF  3001               	movlw	1
  7533     1EE0                     u278_25:
  7534     1EE0  1003               	clrc
  7535     1EE1  0DF6               	rlf	i1__Umul8_16@word_mpld,f
  7536     1EE2  0DF7               	rlf	i1__Umul8_16@word_mpld+1,f
  7537     1EE3  3EFF               	addlw	-1
  7538     1EE4  1D03               	skipz
  7539     1EE5  2EE0               	goto	u278_25
  7540     1EE6  1003               	clrc
  7541     1EE7  0CF8               	rrf	i1__Umul8_16@multiplier,f
  7542     1EE8                     i1l2222:
  7543     1EE8  0878               	movf	i1__Umul8_16@multiplier,w
  7544     1EE9  1D03               	btfss	3,2
  7545     1EEA  2EEC               	goto	u279_21
  7546     1EEB  2EED               	goto	u279_20
  7547     1EEC                     u279_21:
  7548     1EEC  2ED5               	goto	i1l2218
  7549     1EED                     u279_20:
  7550     1EED                     i1l2224:
  7551     1EED  0875               	movf	i1__Umul8_16@product+1,w
  7552     1EEE  00F1               	movwf	?i1__Umul8_16+1
  7553     1EEF  0874               	movf	i1__Umul8_16@product,w
  7554     1EF0  00F0               	movwf	?i1__Umul8_16
  7555     1EF1                     i1l782:
  7556     1EF1  0008               	return
  7557     1EF2                     __end_ofi1__Umul8_16:
  7558                           
  7559                           	psect	text16
  7560     162D                     __ptext16:	
  7561 ;; *************** function i1___fldiv *****************
  7562 ;; Defined at:
  7563 ;;		line 8 in file "C:\Program Files\Microchip\xc8\v2.40\pic\sources\c90\common\sprcdiv.c"
  7564 ;; Parameters:    Size  Location     Type
  7565 ;;  a               4    0[BANK0 ] unsigned int 
  7566 ;;  b               4    4[BANK0 ] unsigned int 
  7567 ;; Auto vars:     Size  Location     Type
  7568 ;;  grs             4   20[BANK0 ] unsigned long 
  7569 ;;  rem             4   13[BANK0 ] unsigned long 
  7570 ;;  new_exp         2   18[BANK0 ] int 
  7571 ;;  aexp            1   25[BANK0 ] unsigned char 
  7572 ;;  bexp            1   24[BANK0 ] unsigned char 
  7573 ;;  sign            1   17[BANK0 ] unsigned char 
  7574 ;; Return value:  Size  Location     Type
  7575 ;;                  4    0[BANK0 ] unsigned char 
  7576 ;; Registers used:
  7577 ;;		wreg, status,2, status,0, btemp+1
  7578 ;; Tracked objects:
  7579 ;;		On entry : 0/0
  7580 ;;		On exit  : 0/0
  7581 ;;		Unchanged: 0/0
  7582 ;; Data sizes:     COMMON   BANK0   BANK1   BANK3   BANK2
  7583 ;;      Params:         0       8       0       0       0
  7584 ;;      Locals:         0      13       0       0       0
  7585 ;;      Temps:          0       5       0       0       0
  7586 ;;      Totals:         0      26       0       0       0
  7587 ;;Total ram usage:       26 bytes
  7588 ;; Hardware stack levels used: 1
  7589 ;; This function calls:
  7590 ;;		Nothing
  7591 ;; This function is called by:
  7592 ;;		_isr
  7593 ;;		_servos
  7594 ;;		i1_PWM_duty
  7595 ;; This function uses a non-reentrant model
  7596 ;;
  7597                           
  7598     162D                     i1___fldiv:	
  7599                           ;psect for function i1___fldiv
  7600                           
  7601     162D                     i1l2582:	
  7602                           ;incstack = 0
  7603                           ; Regs used in i1___fldiv: [wreg+status,2+status,0+btemp+1]
  7604                           
  7605     162D  1283               	bcf	3,5	;RP0=0, select bank0
  7606     162E  1303               	bcf	3,6	;RP1=0, select bank0
  7607     162F  0827               	movf	i1___fldiv@b+3,w
  7608     1630  3980               	andlw	128
  7609     1631  00B1               	movwf	i1___fldiv@sign
  7610     1632                     i1l2584:
  7611     1632  0827               	movf	i1___fldiv@b+3,w
  7612     1633  00A8               	movwf	??i1___fldiv
  7613     1634  0728               	addwf	??i1___fldiv,w
  7614     1635  00B8               	movwf	i1___fldiv@bexp
  7615     1636                     i1l2586:
  7616     1636  1FA6               	btfss	i1___fldiv@b+2,7
  7617     1637  2E39               	goto	u366_21
  7618     1638  2E3A               	goto	u366_20
  7619     1639                     u366_21:
  7620     1639  2E3B               	goto	i1l2590
  7621     163A                     u366_20:
  7622     163A                     i1l2588:
  7623     163A  1438               	bsf	i1___fldiv@bexp,0
  7624     163B                     i1l2590:
  7625     163B  0838               	movf	i1___fldiv@bexp,w
  7626     163C  1903               	btfsc	3,2
  7627     163D  2E3F               	goto	u367_21
  7628     163E  2E40               	goto	u367_20
  7629     163F                     u367_21:
  7630     163F  2E50               	goto	i1l2600
  7631     1640                     u367_20:
  7632     1640                     i1l2592:
  7633     1640  0A38               	incf	i1___fldiv@bexp,w
  7634     1641  1D03               	btfss	3,2
  7635     1642  2E44               	goto	u368_21
  7636     1643  2E45               	goto	u368_20
  7637     1644                     u368_21:
  7638     1644  2E4D               	goto	i1l2596
  7639     1645                     u368_20:
  7640     1645                     i1l2594:
  7641     1645  3000               	movlw	0
  7642     1646  00A7               	movwf	i1___fldiv@b+3
  7643     1647  3000               	movlw	0
  7644     1648  00A6               	movwf	i1___fldiv@b+2
  7645     1649  3000               	movlw	0
  7646     164A  00A5               	movwf	i1___fldiv@b+1
  7647     164B  3000               	movlw	0
  7648     164C  00A4               	movwf	i1___fldiv@b
  7649     164D                     i1l2596:
  7650     164D  17A6               	bsf	i1___fldiv@b+2,7
  7651     164E                     i1l2598:
  7652     164E  01A7               	clrf	i1___fldiv@b+3
  7653     164F  2E58               	goto	i1l2602
  7654     1650                     i1l2600:
  7655     1650  3000               	movlw	0
  7656     1651  00A7               	movwf	i1___fldiv@b+3
  7657     1652  3000               	movlw	0
  7658     1653  00A6               	movwf	i1___fldiv@b+2
  7659     1654  3000               	movlw	0
  7660     1655  00A5               	movwf	i1___fldiv@b+1
  7661     1656  3000               	movlw	0
  7662     1657  00A4               	movwf	i1___fldiv@b
  7663     1658                     i1l2602:
  7664     1658  0823               	movf	i1___fldiv@a+3,w
  7665     1659  3980               	andlw	128
  7666     165A  00A8               	movwf	??i1___fldiv
  7667     165B  0828               	movf	??i1___fldiv,w
  7668     165C  06B1               	xorwf	i1___fldiv@sign,f
  7669     165D                     i1l2604:
  7670     165D  0823               	movf	i1___fldiv@a+3,w
  7671     165E  00A8               	movwf	??i1___fldiv
  7672     165F  0728               	addwf	??i1___fldiv,w
  7673     1660  00B9               	movwf	i1___fldiv@aexp
  7674     1661                     i1l2606:
  7675     1661  1FA2               	btfss	i1___fldiv@a+2,7
  7676     1662  2E64               	goto	u369_21
  7677     1663  2E65               	goto	u369_20
  7678     1664                     u369_21:
  7679     1664  2E66               	goto	i1l2610
  7680     1665                     u369_20:
  7681     1665                     i1l2608:
  7682     1665  1439               	bsf	i1___fldiv@aexp,0
  7683     1666                     i1l2610:
  7684     1666  0839               	movf	i1___fldiv@aexp,w
  7685     1667  1903               	btfsc	3,2
  7686     1668  2E6A               	goto	u370_21
  7687     1669  2E6B               	goto	u370_20
  7688     166A                     u370_21:
  7689     166A  2E7B               	goto	i1l2620
  7690     166B                     u370_20:
  7691     166B                     i1l2612:
  7692     166B  0A39               	incf	i1___fldiv@aexp,w
  7693     166C  1D03               	btfss	3,2
  7694     166D  2E6F               	goto	u371_21
  7695     166E  2E70               	goto	u371_20
  7696     166F                     u371_21:
  7697     166F  2E78               	goto	i1l2616
  7698     1670                     u371_20:
  7699     1670                     i1l2614:
  7700     1670  3000               	movlw	0
  7701     1671  00A3               	movwf	i1___fldiv@a+3
  7702     1672  3000               	movlw	0
  7703     1673  00A2               	movwf	i1___fldiv@a+2
  7704     1674  3000               	movlw	0
  7705     1675  00A1               	movwf	i1___fldiv@a+1
  7706     1676  3000               	movlw	0
  7707     1677  00A0               	movwf	i1___fldiv@a
  7708     1678                     i1l2616:
  7709     1678  17A2               	bsf	i1___fldiv@a+2,7
  7710     1679                     i1l2618:
  7711     1679  01A3               	clrf	i1___fldiv@a+3
  7712     167A  2E83               	goto	i1l721
  7713     167B                     i1l2620:
  7714     167B  3000               	movlw	0
  7715     167C  00A3               	movwf	i1___fldiv@a+3
  7716     167D  3000               	movlw	0
  7717     167E  00A2               	movwf	i1___fldiv@a+2
  7718     167F  3000               	movlw	0
  7719     1680  00A1               	movwf	i1___fldiv@a+1
  7720     1681  3000               	movlw	0
  7721     1682  00A0               	movwf	i1___fldiv@a
  7722     1683                     i1l721:
  7723     1683  0823               	movf	i1___fldiv@a+3,w
  7724     1684  0422               	iorwf	i1___fldiv@a+2,w
  7725     1685  0421               	iorwf	i1___fldiv@a+1,w
  7726     1686  0420               	iorwf	i1___fldiv@a,w
  7727     1687  1D03               	skipz
  7728     1688  2E8A               	goto	u372_21
  7729     1689  2E8B               	goto	u372_20
  7730     168A                     u372_21:
  7731     168A  2EA4               	goto	i1l2630
  7732     168B                     u372_20:
  7733     168B                     i1l2622:
  7734     168B  3000               	movlw	0
  7735     168C  00A7               	movwf	i1___fldiv@b+3
  7736     168D  3000               	movlw	0
  7737     168E  00A6               	movwf	i1___fldiv@b+2
  7738     168F  3000               	movlw	0
  7739     1690  00A5               	movwf	i1___fldiv@b+1
  7740     1691  3000               	movlw	0
  7741     1692  00A4               	movwf	i1___fldiv@b
  7742     1693  3080               	movlw	128
  7743     1694  04A6               	iorwf	i1___fldiv@b+2,f
  7744     1695  307F               	movlw	127
  7745     1696  04A7               	iorwf	i1___fldiv@b+3,f
  7746     1697                     i1l2624:
  7747     1697  0831               	movf	i1___fldiv@sign,w
  7748     1698  00A8               	movwf	??i1___fldiv
  7749     1699  0828               	movf	??i1___fldiv,w
  7750     169A  04A7               	iorwf	i1___fldiv@b+3,f
  7751     169B                     i1l2626:
  7752     169B  0827               	movf	i1___fldiv@b+3,w
  7753     169C  00A3               	movwf	?i1___fldiv+3
  7754     169D  0826               	movf	i1___fldiv@b+2,w
  7755     169E  00A2               	movwf	?i1___fldiv+2
  7756     169F  0825               	movf	i1___fldiv@b+1,w
  7757     16A0  00A1               	movwf	?i1___fldiv+1
  7758     16A1  0824               	movf	i1___fldiv@b,w
  7759     16A2  00A0               	movwf	?i1___fldiv
  7760     16A3  2FFF               	goto	i1l723
  7761     16A4                     i1l2630:
  7762     16A4  0838               	movf	i1___fldiv@bexp,w
  7763     16A5  1D03               	btfss	3,2
  7764     16A6  2EA8               	goto	u373_21
  7765     16A7  2EA9               	goto	u373_20
  7766     16A8                     u373_21:
  7767     16A8  2EB2               	goto	i1l2636
  7768     16A9                     u373_20:
  7769     16A9                     i1l2632:
  7770     16A9  3000               	movlw	0
  7771     16AA  00A3               	movwf	?i1___fldiv+3
  7772     16AB  3000               	movlw	0
  7773     16AC  00A2               	movwf	?i1___fldiv+2
  7774     16AD  3000               	movlw	0
  7775     16AE  00A1               	movwf	?i1___fldiv+1
  7776     16AF  3000               	movlw	0
  7777     16B0  00A0               	movwf	?i1___fldiv
  7778     16B1  2FFF               	goto	i1l723
  7779     16B2                     i1l2636:
  7780     16B2  0838               	movf	i1___fldiv@bexp,w
  7781     16B3  00A8               	movwf	??i1___fldiv
  7782     16B4  01A9               	clrf	??i1___fldiv+1
  7783     16B5  0829               	movf	??i1___fldiv+1,w
  7784     16B6  00AB               	movwf	??i1___fldiv+3
  7785     16B7  0839               	movf	i1___fldiv@aexp,w
  7786     16B8  0228               	subwf	??i1___fldiv,w
  7787     16B9  00AA               	movwf	??i1___fldiv+2
  7788     16BA  1C03               	skipc
  7789     16BB  03AB               	decf	??i1___fldiv+3,f
  7790     16BC  082A               	movf	??i1___fldiv+2,w
  7791     16BD  3E7F               	addlw	127
  7792     16BE  00B2               	movwf	i1___fldiv@new_exp
  7793     16BF  082B               	movf	??i1___fldiv+3,w
  7794     16C0  1803               	skipnc
  7795     16C1  3E01               	addlw	1
  7796     16C2  3E00               	addlw	0
  7797     16C3  00B3               	movwf	i1___fldiv@new_exp+1
  7798     16C4                     i1l2638:
  7799     16C4  0827               	movf	i1___fldiv@b+3,w
  7800     16C5  00B0               	movwf	i1___fldiv@rem+3
  7801     16C6  0826               	movf	i1___fldiv@b+2,w
  7802     16C7  00AF               	movwf	i1___fldiv@rem+2
  7803     16C8  0825               	movf	i1___fldiv@b+1,w
  7804     16C9  00AE               	movwf	i1___fldiv@rem+1
  7805     16CA  0824               	movf	i1___fldiv@b,w
  7806     16CB  00AD               	movwf	i1___fldiv@rem
  7807     16CC                     i1l2640:
  7808     16CC  3000               	movlw	0
  7809     16CD  00A7               	movwf	i1___fldiv@b+3
  7810     16CE  3000               	movlw	0
  7811     16CF  00A6               	movwf	i1___fldiv@b+2
  7812     16D0  3000               	movlw	0
  7813     16D1  00A5               	movwf	i1___fldiv@b+1
  7814     16D2  3000               	movlw	0
  7815     16D3  00A4               	movwf	i1___fldiv@b
  7816     16D4                     i1l2642:
  7817     16D4  3000               	movlw	0
  7818     16D5  00B7               	movwf	i1___fldiv@grs+3
  7819     16D6  3000               	movlw	0
  7820     16D7  00B6               	movwf	i1___fldiv@grs+2
  7821     16D8  3000               	movlw	0
  7822     16D9  00B5               	movwf	i1___fldiv@grs+1
  7823     16DA  3000               	movlw	0
  7824     16DB  00B4               	movwf	i1___fldiv@grs
  7825     16DC                     i1l2644:
  7826     16DC  01B9               	clrf	i1___fldiv@aexp
  7827     16DD  2F28               	goto	i1l2664
  7828     16DE                     i1l2646:
  7829     16DE  0839               	movf	i1___fldiv@aexp,w
  7830     16DF  1903               	btfsc	3,2
  7831     16E0  2EE2               	goto	u374_21
  7832     16E1  2EE3               	goto	u374_20
  7833     16E2                     u374_21:
  7834     16E2  2F03               	goto	i1l2656
  7835     16E3                     u374_20:
  7836     16E3                     i1l2648:
  7837     16E3  3001               	movlw	1
  7838     16E4  00A8               	movwf	??i1___fldiv
  7839     16E5                     u375_25:
  7840     16E5  1003               	clrc
  7841     16E6  0DAD               	rlf	i1___fldiv@rem,f
  7842     16E7  0DAE               	rlf	i1___fldiv@rem+1,f
  7843     16E8  0DAF               	rlf	i1___fldiv@rem+2,f
  7844     16E9  0DB0               	rlf	i1___fldiv@rem+3,f
  7845     16EA  0BA8               	decfsz	??i1___fldiv,f
  7846     16EB  2EE5               	goto	u375_25
  7847     16EC  3001               	movlw	1
  7848     16ED  00A8               	movwf	??i1___fldiv
  7849     16EE                     u376_25:
  7850     16EE  1003               	clrc
  7851     16EF  0DA4               	rlf	i1___fldiv@b,f
  7852     16F0  0DA5               	rlf	i1___fldiv@b+1,f
  7853     16F1  0DA6               	rlf	i1___fldiv@b+2,f
  7854     16F2  0DA7               	rlf	i1___fldiv@b+3,f
  7855     16F3  0BA8               	decfsz	??i1___fldiv,f
  7856     16F4  2EEE               	goto	u376_25
  7857     16F5                     i1l2650:
  7858     16F5  1FB7               	btfss	i1___fldiv@grs+3,7
  7859     16F6  2EF8               	goto	u377_21
  7860     16F7  2EF9               	goto	u377_20
  7861     16F8                     u377_21:
  7862     16F8  2EFA               	goto	i1l2654
  7863     16F9                     u377_20:
  7864     16F9                     i1l2652:
  7865     16F9  1424               	bsf	i1___fldiv@b,0
  7866     16FA                     i1l2654:
  7867     16FA  3001               	movlw	1
  7868     16FB  00A8               	movwf	??i1___fldiv
  7869     16FC                     u378_25:
  7870     16FC  1003               	clrc
  7871     16FD  0DB4               	rlf	i1___fldiv@grs,f
  7872     16FE  0DB5               	rlf	i1___fldiv@grs+1,f
  7873     16FF  0DB6               	rlf	i1___fldiv@grs+2,f
  7874     1700  0DB7               	rlf	i1___fldiv@grs+3,f
  7875     1701  0BA8               	decfsz	??i1___fldiv,f
  7876     1702  2EFC               	goto	u378_25
  7877     1703                     i1l2656:
  7878     1703  0823               	movf	i1___fldiv@a+3,w
  7879     1704  0230               	subwf	i1___fldiv@rem+3,w
  7880     1705  1D03               	skipz
  7881     1706  2F11               	goto	u379_25
  7882     1707  0822               	movf	i1___fldiv@a+2,w
  7883     1708  022F               	subwf	i1___fldiv@rem+2,w
  7884     1709  1D03               	skipz
  7885     170A  2F11               	goto	u379_25
  7886     170B  0821               	movf	i1___fldiv@a+1,w
  7887     170C  022E               	subwf	i1___fldiv@rem+1,w
  7888     170D  1D03               	skipz
  7889     170E  2F11               	goto	u379_25
  7890     170F  0820               	movf	i1___fldiv@a,w
  7891     1710  022D               	subwf	i1___fldiv@rem,w
  7892     1711                     u379_25:
  7893     1711  1C03               	skipc
  7894     1712  2F14               	goto	u379_21
  7895     1713  2F15               	goto	u379_20
  7896     1714                     u379_21:
  7897     1714  2F24               	goto	i1l2662
  7898     1715                     u379_20:
  7899     1715                     i1l2658:
  7900     1715  1737               	bsf	i1___fldiv@grs+3,6
  7901     1716                     i1l2660:
  7902     1716  0820               	movf	i1___fldiv@a,w
  7903     1717  02AD               	subwf	i1___fldiv@rem,f
  7904     1718  0821               	movf	i1___fldiv@a+1,w
  7905     1719  1C03               	skipc
  7906     171A  0F21               	incfsz	i1___fldiv@a+1,w
  7907     171B  02AE               	subwf	i1___fldiv@rem+1,f
  7908     171C  0822               	movf	i1___fldiv@a+2,w
  7909     171D  1C03               	skipc
  7910     171E  0F22               	incfsz	i1___fldiv@a+2,w
  7911     171F  02AF               	subwf	i1___fldiv@rem+2,f
  7912     1720  0823               	movf	i1___fldiv@a+3,w
  7913     1721  1C03               	skipc
  7914     1722  0F23               	incfsz	i1___fldiv@a+3,w
  7915     1723  02B0               	subwf	i1___fldiv@rem+3,f
  7916     1724                     i1l2662:
  7917     1724  3001               	movlw	1
  7918     1725  00A8               	movwf	??i1___fldiv
  7919     1726  0828               	movf	??i1___fldiv,w
  7920     1727  07B9               	addwf	i1___fldiv@aexp,f
  7921     1728                     i1l2664:
  7922     1728  301A               	movlw	26
  7923     1729  0239               	subwf	i1___fldiv@aexp,w
  7924     172A  1C03               	skipc
  7925     172B  2F2D               	goto	u380_21
  7926     172C  2F2E               	goto	u380_20
  7927     172D                     u380_21:
  7928     172D  2EDE               	goto	i1l2646
  7929     172E                     u380_20:
  7930     172E                     i1l2666:
  7931     172E  0830               	movf	i1___fldiv@rem+3,w
  7932     172F  042F               	iorwf	i1___fldiv@rem+2,w
  7933     1730  042E               	iorwf	i1___fldiv@rem+1,w
  7934     1731  042D               	iorwf	i1___fldiv@rem,w
  7935     1732  1903               	skipnz
  7936     1733  2F35               	goto	u381_21
  7937     1734  2F36               	goto	u381_20
  7938     1735                     u381_21:
  7939     1735  2F55               	goto	i1l2680
  7940     1736                     u381_20:
  7941     1736                     i1l2668:
  7942     1736  1434               	bsf	i1___fldiv@grs,0
  7943     1737  2F55               	goto	i1l2680
  7944     1738                     i1l2670:
  7945     1738  3001               	movlw	1
  7946     1739  00A8               	movwf	??i1___fldiv
  7947     173A                     u382_25:
  7948     173A  1003               	clrc
  7949     173B  0DA4               	rlf	i1___fldiv@b,f
  7950     173C  0DA5               	rlf	i1___fldiv@b+1,f
  7951     173D  0DA6               	rlf	i1___fldiv@b+2,f
  7952     173E  0DA7               	rlf	i1___fldiv@b+3,f
  7953     173F  0BA8               	decfsz	??i1___fldiv,f
  7954     1740  2F3A               	goto	u382_25
  7955     1741                     i1l2672:
  7956     1741  1FB7               	btfss	i1___fldiv@grs+3,7
  7957     1742  2F44               	goto	u383_21
  7958     1743  2F45               	goto	u383_20
  7959     1744                     u383_21:
  7960     1744  2F46               	goto	i1l2676
  7961     1745                     u383_20:
  7962     1745                     i1l2674:
  7963     1745  1424               	bsf	i1___fldiv@b,0
  7964     1746                     i1l2676:
  7965     1746  3001               	movlw	1
  7966     1747  00A8               	movwf	??i1___fldiv
  7967     1748                     u384_25:
  7968     1748  1003               	clrc
  7969     1749  0DB4               	rlf	i1___fldiv@grs,f
  7970     174A  0DB5               	rlf	i1___fldiv@grs+1,f
  7971     174B  0DB6               	rlf	i1___fldiv@grs+2,f
  7972     174C  0DB7               	rlf	i1___fldiv@grs+3,f
  7973     174D  0BA8               	decfsz	??i1___fldiv,f
  7974     174E  2F48               	goto	u384_25
  7975     174F                     i1l2678:
  7976     174F  30FF               	movlw	255
  7977     1750  07B2               	addwf	i1___fldiv@new_exp,f
  7978     1751  1803               	skipnc
  7979     1752  0AB3               	incf	i1___fldiv@new_exp+1,f
  7980     1753  30FF               	movlw	255
  7981     1754  07B3               	addwf	i1___fldiv@new_exp+1,f
  7982     1755                     i1l2680:
  7983     1755  1FA6               	btfss	i1___fldiv@b+2,7
  7984     1756  2F58               	goto	u385_21
  7985     1757  2F59               	goto	u385_20
  7986     1758                     u385_21:
  7987     1758  2F38               	goto	i1l2670
  7988     1759                     u385_20:
  7989     1759                     i1l2682:
  7990     1759  01B9               	clrf	i1___fldiv@aexp
  7991     175A                     i1l2684:
  7992     175A  1FB7               	btfss	i1___fldiv@grs+3,7
  7993     175B  2F5D               	goto	u386_21
  7994     175C  2F5E               	goto	u386_20
  7995     175D                     u386_21:
  7996     175D  2F7A               	goto	i1l2692
  7997     175E                     u386_20:
  7998     175E                     i1l2686:
  7999     175E  30FF               	movlw	255
  8000     175F  0534               	andwf	i1___fldiv@grs,w
  8001     1760  00A8               	movwf	??i1___fldiv
  8002     1761  30FF               	movlw	255
  8003     1762  0535               	andwf	i1___fldiv@grs+1,w
  8004     1763  00A9               	movwf	??i1___fldiv+1
  8005     1764  30FF               	movlw	255
  8006     1765  0536               	andwf	i1___fldiv@grs+2,w
  8007     1766  00AA               	movwf	??i1___fldiv+2
  8008     1767  307F               	movlw	127
  8009     1768  0537               	andwf	i1___fldiv@grs+3,w
  8010     1769  00AB               	movwf	??i1___fldiv+3
  8011     176A  082B               	movf	??i1___fldiv+3,w
  8012     176B  042A               	iorwf	??i1___fldiv+2,w
  8013     176C  0429               	iorwf	??i1___fldiv+1,w
  8014     176D  0428               	iorwf	??i1___fldiv,w
  8015     176E  1903               	skipnz
  8016     176F  2F71               	goto	u387_21
  8017     1770  2F72               	goto	u387_20
  8018     1771                     u387_21:
  8019     1771  2F75               	goto	i1l737
  8020     1772                     u387_20:
  8021     1772                     i1l2688:
  8022     1772  01B9               	clrf	i1___fldiv@aexp
  8023     1773  0AB9               	incf	i1___fldiv@aexp,f
  8024     1774  2F7A               	goto	i1l2692
  8025     1775                     i1l737:
  8026     1775  1C24               	btfss	i1___fldiv@b,0
  8027     1776  2F78               	goto	u388_21
  8028     1777  2F79               	goto	u388_20
  8029     1778                     u388_21:
  8030     1778  2F7A               	goto	i1l2692
  8031     1779                     u388_20:
  8032     1779  2F72               	goto	i1l2688
  8033     177A                     i1l2692:
  8034     177A  0839               	movf	i1___fldiv@aexp,w
  8035     177B  1903               	btfsc	3,2
  8036     177C  2F7E               	goto	u389_21
  8037     177D  2F7F               	goto	u389_20
  8038     177E                     u389_21:
  8039     177E  2FB0               	goto	i1l2702
  8040     177F                     u389_20:
  8041     177F                     i1l2694:
  8042     177F  3001               	movlw	1
  8043     1780  07A4               	addwf	i1___fldiv@b,f
  8044     1781  3000               	movlw	0
  8045     1782  1803               	skipnc
  8046     1783  3001               	movlw	1
  8047     1784  07A5               	addwf	i1___fldiv@b+1,f
  8048     1785  3000               	movlw	0
  8049     1786  1803               	skipnc
  8050     1787  3001               	movlw	1
  8051     1788  07A6               	addwf	i1___fldiv@b+2,f
  8052     1789  3000               	movlw	0
  8053     178A  1803               	skipnc
  8054     178B  3001               	movlw	1
  8055     178C  07A7               	addwf	i1___fldiv@b+3,f
  8056     178D                     i1l2696:
  8057     178D  1C27               	btfss	i1___fldiv@b+3,0
  8058     178E  2F90               	goto	u390_21
  8059     178F  2F91               	goto	u390_20
  8060     1790                     u390_21:
  8061     1790  2FB0               	goto	i1l2702
  8062     1791                     u390_20:
  8063     1791                     i1l2698:
  8064     1791  0824               	movf	i1___fldiv@b,w
  8065     1792  00A8               	movwf	??i1___fldiv
  8066     1793  0825               	movf	i1___fldiv@b+1,w
  8067     1794  00A9               	movwf	??i1___fldiv+1
  8068     1795  0826               	movf	i1___fldiv@b+2,w
  8069     1796  00AA               	movwf	??i1___fldiv+2
  8070     1797  0827               	movf	i1___fldiv@b+3,w
  8071     1798  00AB               	movwf	??i1___fldiv+3
  8072     1799  3001               	movlw	1
  8073     179A  00AC               	movwf	??i1___fldiv+4
  8074     179B                     u391_25:
  8075     179B  0D2B               	rlf	??i1___fldiv+3,w
  8076     179C  0CAB               	rrf	??i1___fldiv+3,f
  8077     179D  0CAA               	rrf	??i1___fldiv+2,f
  8078     179E  0CA9               	rrf	??i1___fldiv+1,f
  8079     179F  0CA8               	rrf	??i1___fldiv,f
  8080     17A0                     u391_20:
  8081     17A0  0BAC               	decfsz	??i1___fldiv+4,f
  8082     17A1  2F9B               	goto	u391_25
  8083     17A2  082B               	movf	??i1___fldiv+3,w
  8084     17A3  00A7               	movwf	i1___fldiv@b+3
  8085     17A4  082A               	movf	??i1___fldiv+2,w
  8086     17A5  00A6               	movwf	i1___fldiv@b+2
  8087     17A6  0829               	movf	??i1___fldiv+1,w
  8088     17A7  00A5               	movwf	i1___fldiv@b+1
  8089     17A8  0828               	movf	??i1___fldiv,w
  8090     17A9  00A4               	movwf	i1___fldiv@b
  8091     17AA                     i1l2700:
  8092     17AA  3001               	movlw	1
  8093     17AB  07B2               	addwf	i1___fldiv@new_exp,f
  8094     17AC  1803               	skipnc
  8095     17AD  0AB3               	incf	i1___fldiv@new_exp+1,f
  8096     17AE  3000               	movlw	0
  8097     17AF  07B3               	addwf	i1___fldiv@new_exp+1,f
  8098     17B0                     i1l2702:
  8099     17B0  0833               	movf	i1___fldiv@new_exp+1,w
  8100     17B1  3A80               	xorlw	128
  8101     17B2  00FF               	movwf	btemp+1
  8102     17B3  3080               	movlw	128
  8103     17B4  027F               	subwf	btemp+1,w
  8104     17B5  1D03               	skipz
  8105     17B6  2FB9               	goto	u392_25
  8106     17B7  30FF               	movlw	255
  8107     17B8  0232               	subwf	i1___fldiv@new_exp,w
  8108     17B9                     u392_25:
  8109     17B9  1C03               	skipc
  8110     17BA  2FBC               	goto	u392_21
  8111     17BB  2FBD               	goto	u392_20
  8112     17BC                     u392_21:
  8113     17BC  2FCB               	goto	i1l2706
  8114     17BD                     u392_20:
  8115     17BD                     i1l2704:
  8116     17BD  30FF               	movlw	255
  8117     17BE  1283               	bcf	3,5	;RP0=0, select bank0
  8118     17BF  1303               	bcf	3,6	;RP1=0, select bank0
  8119     17C0  00B2               	movwf	i1___fldiv@new_exp
  8120     17C1  3000               	movlw	0
  8121     17C2  00B3               	movwf	i1___fldiv@new_exp+1
  8122     17C3  3000               	movlw	0
  8123     17C4  00A7               	movwf	i1___fldiv@b+3
  8124     17C5  3000               	movlw	0
  8125     17C6  00A6               	movwf	i1___fldiv@b+2
  8126     17C7  3000               	movlw	0
  8127     17C8  00A5               	movwf	i1___fldiv@b+1
  8128     17C9  3000               	movlw	0
  8129     17CA  00A4               	movwf	i1___fldiv@b
  8130     17CB                     i1l2706:
  8131     17CB  1283               	bcf	3,5	;RP0=0, select bank0
  8132     17CC  1303               	bcf	3,6	;RP1=0, select bank0
  8133     17CD  0833               	movf	i1___fldiv@new_exp+1,w
  8134     17CE  3A80               	xorlw	128
  8135     17CF  00FF               	movwf	btemp+1
  8136     17D0  3080               	movlw	128
  8137     17D1  027F               	subwf	btemp+1,w
  8138     17D2  1D03               	skipz
  8139     17D3  2FD6               	goto	u393_25
  8140     17D4  3001               	movlw	1
  8141     17D5  0232               	subwf	i1___fldiv@new_exp,w
  8142     17D6                     u393_25:
  8143     17D6  1803               	skipnc
  8144     17D7  2FD9               	goto	u393_21
  8145     17D8  2FDA               	goto	u393_20
  8146     17D9                     u393_21:
  8147     17D9  2FE7               	goto	i1l743
  8148     17DA                     u393_20:
  8149     17DA                     i1l2708:
  8150     17DA  1283               	bcf	3,5	;RP0=0, select bank0
  8151     17DB  1303               	bcf	3,6	;RP1=0, select bank0
  8152     17DC  01B2               	clrf	i1___fldiv@new_exp
  8153     17DD  01B3               	clrf	i1___fldiv@new_exp+1
  8154     17DE                     i1l2710:
  8155     17DE  3000               	movlw	0
  8156     17DF  00A7               	movwf	i1___fldiv@b+3
  8157     17E0  3000               	movlw	0
  8158     17E1  00A6               	movwf	i1___fldiv@b+2
  8159     17E2  3000               	movlw	0
  8160     17E3  00A5               	movwf	i1___fldiv@b+1
  8161     17E4  3000               	movlw	0
  8162     17E5  00A4               	movwf	i1___fldiv@b
  8163     17E6                     i1l2712:
  8164     17E6  01B1               	clrf	i1___fldiv@sign
  8165     17E7                     i1l743:
  8166     17E7  1283               	bcf	3,5	;RP0=0, select bank0
  8167     17E8  1303               	bcf	3,6	;RP1=0, select bank0
  8168     17E9  0832               	movf	i1___fldiv@new_exp,w
  8169     17EA  00B8               	movwf	i1___fldiv@bexp
  8170     17EB                     i1l2714:
  8171     17EB  1C38               	btfss	i1___fldiv@bexp,0
  8172     17EC  2FEE               	goto	u394_21
  8173     17ED  2FEF               	goto	u394_20
  8174     17EE                     u394_21:
  8175     17EE  2FF1               	goto	i1l2718
  8176     17EF                     u394_20:
  8177     17EF                     i1l2716:
  8178     17EF  17A6               	bsf	i1___fldiv@b+2,7
  8179     17F0  2FF5               	goto	i1l745
  8180     17F1                     i1l2718:
  8181     17F1  307F               	movlw	127
  8182     17F2  00A8               	movwf	??i1___fldiv
  8183     17F3  0828               	movf	??i1___fldiv,w
  8184     17F4  05A6               	andwf	i1___fldiv@b+2,f
  8185     17F5                     i1l745:
  8186     17F5  0838               	movf	i1___fldiv@bexp,w
  8187     17F6  00A8               	movwf	??i1___fldiv
  8188     17F7  1003               	clrc
  8189     17F8  0C28               	rrf	??i1___fldiv,w
  8190     17F9  00A7               	movwf	i1___fldiv@b+3
  8191     17FA  0831               	movf	i1___fldiv@sign,w
  8192     17FB  00A8               	movwf	??i1___fldiv
  8193     17FC  0828               	movf	??i1___fldiv,w
  8194     17FD  04A7               	iorwf	i1___fldiv@b+3,f
  8195     17FE  2E9B               	goto	i1l2626
  8196     17FF                     i1l723:
  8197     17FF  0008               	return
  8198     1800                     __end_ofi1___fldiv:
  8199                           
  8200                           	psect	text17
  8201     080A                     __ptext17:	
  8202 ;; *************** function ___xxtofl *****************
  8203 ;; Defined at:
  8204 ;;		line 10 in file "C:\Program Files\Microchip\xc8\v2.40\pic\sources\c90\common\xxtofl.c"
  8205 ;; Parameters:    Size  Location     Type
  8206 ;;  sign            1    wreg     unsigned char 
  8207 ;;  val             4    0[COMMON] long 
  8208 ;; Auto vars:     Size  Location     Type
  8209 ;;  sign            1    8[COMMON] unsigned char 
  8210 ;;  arg             4   10[COMMON] unsigned long 
  8211 ;;  exp             1    9[COMMON] unsigned char 
  8212 ;; Return value:  Size  Location     Type
  8213 ;;                  4    0[COMMON] unsigned char 
  8214 ;; Registers used:
  8215 ;;		wreg, status,2, status,0
  8216 ;; Tracked objects:
  8217 ;;		On entry : 0/0
  8218 ;;		On exit  : 0/0
  8219 ;;		Unchanged: 0/0
  8220 ;; Data sizes:     COMMON   BANK0   BANK1   BANK3   BANK2
  8221 ;;      Params:         4       0       0       0       0
  8222 ;;      Locals:         6       0       0       0       0
  8223 ;;      Temps:          4       0       0       0       0
  8224 ;;      Totals:        14       0       0       0       0
  8225 ;;Total ram usage:       14 bytes
  8226 ;; Hardware stack levels used: 1
  8227 ;; This function calls:
  8228 ;;		Nothing
  8229 ;; This function is called by:
  8230 ;;		_isr
  8231 ;;		_servos
  8232 ;; This function uses a non-reentrant model
  8233 ;;
  8234                           
  8235     080A                     ___xxtofl:	
  8236                           ;psect for function ___xxtofl
  8237                           
  8238                           
  8239                           ;incstack = 0
  8240                           ; Regs used in ___xxtofl: [wreg+status,2+status,0]
  8241                           ;___xxtofl@sign stored from wreg
  8242     080A  00F8               	movwf	___xxtofl@sign
  8243     080B                     i1l3130:
  8244     080B  0878               	movf	___xxtofl@sign,w
  8245     080C  1903               	btfsc	3,2
  8246     080D  280F               	goto	u488_21
  8247     080E  2810               	goto	u488_20
  8248     080F                     u488_21:
  8249     080F  2824               	goto	i1l3136
  8250     0810                     u488_20:
  8251     0810                     i1l3132:
  8252     0810  1FF3               	btfss	___xxtofl@val+3,7
  8253     0811  2813               	goto	u489_21
  8254     0812  2814               	goto	u489_20
  8255     0813                     u489_21:
  8256     0813  2824               	goto	i1l3136
  8257     0814                     u489_20:
  8258     0814                     i1l3134:
  8259     0814  0970               	comf	___xxtofl@val,w
  8260     0815  00FA               	movwf	___xxtofl@arg
  8261     0816  0971               	comf	___xxtofl@val+1,w
  8262     0817  00FB               	movwf	___xxtofl@arg+1
  8263     0818  0972               	comf	___xxtofl@val+2,w
  8264     0819  00FC               	movwf	___xxtofl@arg+2
  8265     081A  0973               	comf	___xxtofl@val+3,w
  8266     081B  00FD               	movwf	___xxtofl@arg+3
  8267     081C  0AFA               	incf	___xxtofl@arg,f
  8268     081D  1903               	skipnz
  8269     081E  0AFB               	incf	___xxtofl@arg+1,f
  8270     081F  1903               	skipnz
  8271     0820  0AFC               	incf	___xxtofl@arg+2,f
  8272     0821  1903               	skipnz
  8273     0822  0AFD               	incf	___xxtofl@arg+3,f
  8274     0823  282C               	goto	i1l805
  8275     0824                     i1l3136:
  8276     0824  0873               	movf	___xxtofl@val+3,w
  8277     0825  00FD               	movwf	___xxtofl@arg+3
  8278     0826  0872               	movf	___xxtofl@val+2,w
  8279     0827  00FC               	movwf	___xxtofl@arg+2
  8280     0828  0871               	movf	___xxtofl@val+1,w
  8281     0829  00FB               	movwf	___xxtofl@arg+1
  8282     082A  0870               	movf	___xxtofl@val,w
  8283     082B  00FA               	movwf	___xxtofl@arg
  8284     082C                     i1l805:
  8285     082C  0873               	movf	___xxtofl@val+3,w
  8286     082D  0472               	iorwf	___xxtofl@val+2,w
  8287     082E  0471               	iorwf	___xxtofl@val+1,w
  8288     082F  0470               	iorwf	___xxtofl@val,w
  8289     0830  1D03               	skipz
  8290     0831  2833               	goto	u490_21
  8291     0832  2834               	goto	u490_20
  8292     0833                     u490_21:
  8293     0833  283D               	goto	i1l3142
  8294     0834                     u490_20:
  8295     0834                     i1l3138:
  8296     0834  3000               	movlw	0
  8297     0835  00F3               	movwf	?___xxtofl+3
  8298     0836  3000               	movlw	0
  8299     0837  00F2               	movwf	?___xxtofl+2
  8300     0838  3000               	movlw	0
  8301     0839  00F1               	movwf	?___xxtofl+1
  8302     083A  3000               	movlw	0
  8303     083B  00F0               	movwf	?___xxtofl
  8304     083C  28C1               	goto	i1l807
  8305     083D                     i1l3142:
  8306     083D  3096               	movlw	150
  8307     083E  00F9               	movwf	___xxtofl@exp
  8308     083F  284D               	goto	i1l3146
  8309     0840                     i1l3144:
  8310     0840  3001               	movlw	1
  8311     0841  00F4               	movwf	??___xxtofl
  8312     0842  0874               	movf	??___xxtofl,w
  8313     0843  07F9               	addwf	___xxtofl@exp,f
  8314     0844  3001               	movlw	1
  8315     0845                     u491_25:
  8316     0845  1003               	clrc
  8317     0846  0CFD               	rrf	___xxtofl@arg+3,f
  8318     0847  0CFC               	rrf	___xxtofl@arg+2,f
  8319     0848  0CFB               	rrf	___xxtofl@arg+1,f
  8320     0849  0CFA               	rrf	___xxtofl@arg,f
  8321     084A  3EFF               	addlw	-1
  8322     084B  1D03               	skipz
  8323     084C  2845               	goto	u491_25
  8324     084D                     i1l3146:
  8325     084D  30FE               	movlw	254
  8326     084E  057D               	andwf	___xxtofl@arg+3,w
  8327     084F  1D03               	btfss	3,2
  8328     0850  2852               	goto	u492_21
  8329     0851  2853               	goto	u492_20
  8330     0852                     u492_21:
  8331     0852  2840               	goto	i1l3144
  8332     0853                     u492_20:
  8333     0853  286F               	goto	i1l811
  8334     0854                     i1l3148:
  8335     0854  3001               	movlw	1
  8336     0855  00F4               	movwf	??___xxtofl
  8337     0856  0874               	movf	??___xxtofl,w
  8338     0857  07F9               	addwf	___xxtofl@exp,f
  8339     0858                     i1l3150:
  8340     0858  3001               	movlw	1
  8341     0859  07FA               	addwf	___xxtofl@arg,f
  8342     085A  3000               	movlw	0
  8343     085B  1803               	skipnc
  8344     085C  3001               	movlw	1
  8345     085D  07FB               	addwf	___xxtofl@arg+1,f
  8346     085E  3000               	movlw	0
  8347     085F  1803               	skipnc
  8348     0860  3001               	movlw	1
  8349     0861  07FC               	addwf	___xxtofl@arg+2,f
  8350     0862  3000               	movlw	0
  8351     0863  1803               	skipnc
  8352     0864  3001               	movlw	1
  8353     0865  07FD               	addwf	___xxtofl@arg+3,f
  8354     0866                     i1l3152:
  8355     0866  3001               	movlw	1
  8356     0867                     u493_25:
  8357     0867  1003               	clrc
  8358     0868  0CFD               	rrf	___xxtofl@arg+3,f
  8359     0869  0CFC               	rrf	___xxtofl@arg+2,f
  8360     086A  0CFB               	rrf	___xxtofl@arg+1,f
  8361     086B  0CFA               	rrf	___xxtofl@arg,f
  8362     086C  3EFF               	addlw	-1
  8363     086D  1D03               	skipz
  8364     086E  2867               	goto	u493_25
  8365     086F                     i1l811:
  8366     086F  30FF               	movlw	255
  8367     0870  057D               	andwf	___xxtofl@arg+3,w
  8368     0871  1D03               	btfss	3,2
  8369     0872  2874               	goto	u494_21
  8370     0873  2875               	goto	u494_20
  8371     0874                     u494_21:
  8372     0874  2854               	goto	i1l3148
  8373     0875                     u494_20:
  8374     0875  2881               	goto	i1l3156
  8375     0876                     i1l3154:
  8376     0876  3001               	movlw	1
  8377     0877  02F9               	subwf	___xxtofl@exp,f
  8378     0878  3001               	movlw	1
  8379     0879  00F4               	movwf	??___xxtofl
  8380     087A                     u495_25:
  8381     087A  1003               	clrc
  8382     087B  0DFA               	rlf	___xxtofl@arg,f
  8383     087C  0DFB               	rlf	___xxtofl@arg+1,f
  8384     087D  0DFC               	rlf	___xxtofl@arg+2,f
  8385     087E  0DFD               	rlf	___xxtofl@arg+3,f
  8386     087F  0BF4               	decfsz	??___xxtofl,f
  8387     0880  287A               	goto	u495_25
  8388     0881                     i1l3156:
  8389     0881  1BFC               	btfsc	___xxtofl@arg+2,7
  8390     0882  2884               	goto	u496_21
  8391     0883  2885               	goto	u496_20
  8392     0884                     u496_21:
  8393     0884  288B               	goto	i1l818
  8394     0885                     u496_20:
  8395     0885                     i1l3158:
  8396     0885  3002               	movlw	2
  8397     0886  0279               	subwf	___xxtofl@exp,w
  8398     0887  1803               	skipnc
  8399     0888  288A               	goto	u497_21
  8400     0889  288B               	goto	u497_20
  8401     088A                     u497_21:
  8402     088A  2876               	goto	i1l3154
  8403     088B                     u497_20:
  8404     088B                     i1l818:
  8405     088B  1879               	btfsc	___xxtofl@exp,0
  8406     088C  288E               	goto	u498_21
  8407     088D  288F               	goto	u498_20
  8408     088E                     u498_21:
  8409     088E  2897               	goto	i1l819
  8410     088F                     u498_20:
  8411     088F                     i1l3160:
  8412     088F  30FF               	movlw	255
  8413     0890  05FA               	andwf	___xxtofl@arg,f
  8414     0891  30FF               	movlw	255
  8415     0892  05FB               	andwf	___xxtofl@arg+1,f
  8416     0893  307F               	movlw	127
  8417     0894  05FC               	andwf	___xxtofl@arg+2,f
  8418     0895  30FF               	movlw	255
  8419     0896  05FD               	andwf	___xxtofl@arg+3,f
  8420     0897                     i1l819:
  8421     0897  1003               	clrc
  8422     0898  0CF9               	rrf	___xxtofl@exp,f
  8423     0899                     i1l3162:
  8424     0899  0879               	movf	___xxtofl@exp,w
  8425     089A  00F4               	movwf	??___xxtofl
  8426     089B  01F5               	clrf	??___xxtofl+1
  8427     089C  01F6               	clrf	??___xxtofl+2
  8428     089D  01F7               	clrf	??___xxtofl+3
  8429     089E  3018               	movlw	24
  8430     089F                     u499_25:
  8431     089F  1003               	clrc
  8432     08A0  0DF4               	rlf	??___xxtofl,f
  8433     08A1  0DF5               	rlf	??___xxtofl+1,f
  8434     08A2  0DF6               	rlf	??___xxtofl+2,f
  8435     08A3  0DF7               	rlf	??___xxtofl+3,f
  8436     08A4                     u499_20:
  8437     08A4  3EFF               	addlw	-1
  8438     08A5  1D03               	skipz
  8439     08A6  289F               	goto	u499_25
  8440     08A7  0874               	movf	??___xxtofl,w
  8441     08A8  04FA               	iorwf	___xxtofl@arg,f
  8442     08A9  0875               	movf	??___xxtofl+1,w
  8443     08AA  04FB               	iorwf	___xxtofl@arg+1,f
  8444     08AB  0876               	movf	??___xxtofl+2,w
  8445     08AC  04FC               	iorwf	___xxtofl@arg+2,f
  8446     08AD  0877               	movf	??___xxtofl+3,w
  8447     08AE  04FD               	iorwf	___xxtofl@arg+3,f
  8448     08AF                     i1l3164:
  8449     08AF  0878               	movf	___xxtofl@sign,w
  8450     08B0  1903               	btfsc	3,2
  8451     08B1  28B3               	goto	u500_21
  8452     08B2  28B4               	goto	u500_20
  8453     08B3                     u500_21:
  8454     08B3  28B9               	goto	i1l3170
  8455     08B4                     u500_20:
  8456     08B4                     i1l3166:
  8457     08B4  1FF3               	btfss	___xxtofl@val+3,7
  8458     08B5  28B7               	goto	u501_21
  8459     08B6  28B8               	goto	u501_20
  8460     08B7                     u501_21:
  8461     08B7  28B9               	goto	i1l3170
  8462     08B8                     u501_20:
  8463     08B8                     i1l3168:
  8464     08B8  17FD               	bsf	___xxtofl@arg+3,7
  8465     08B9                     i1l3170:
  8466     08B9  087D               	movf	___xxtofl@arg+3,w
  8467     08BA  00F3               	movwf	?___xxtofl+3
  8468     08BB  087C               	movf	___xxtofl@arg+2,w
  8469     08BC  00F2               	movwf	?___xxtofl+2
  8470     08BD  087B               	movf	___xxtofl@arg+1,w
  8471     08BE  00F1               	movwf	?___xxtofl+1
  8472     08BF  087A               	movf	___xxtofl@arg,w
  8473     08C0  00F0               	movwf	?___xxtofl
  8474     08C1                     i1l807:
  8475     08C1  0008               	return
  8476     08C2                     __end_of___xxtofl:
  8477                           
  8478                           	psect	text18
  8479     0A95                     __ptext18:	
  8480 ;; *************** function ___fladd *****************
  8481 ;; Defined at:
  8482 ;;		line 10 in file "C:\Program Files\Microchip\xc8\v2.40\pic\sources\c90\common\sprcadd.c"
  8483 ;; Parameters:    Size  Location     Type
  8484 ;;  b               4   52[BANK0 ] unsigned char 
  8485 ;;  a               4   56[BANK0 ] unsigned char 
  8486 ;; Auto vars:     Size  Location     Type
  8487 ;;  grs             1   71[BANK0 ] unsigned char 
  8488 ;;  bexp            1   70[BANK0 ] unsigned char 
  8489 ;;  aexp            1   69[BANK0 ] unsigned char 
  8490 ;;  signs           1   68[BANK0 ] unsigned char 
  8491 ;; Return value:  Size  Location     Type
  8492 ;;                  4   52[BANK0 ] unsigned char 
  8493 ;; Registers used:
  8494 ;;		wreg, status,2, status,0, btemp+1
  8495 ;; Tracked objects:
  8496 ;;		On entry : 0/0
  8497 ;;		On exit  : 0/0
  8498 ;;		Unchanged: 0/0
  8499 ;; Data sizes:     COMMON   BANK0   BANK1   BANK3   BANK2
  8500 ;;      Params:         0       8       0       0       0
  8501 ;;      Locals:         0       4       0       0       0
  8502 ;;      Temps:          0       8       0       0       0
  8503 ;;      Totals:         0      20       0       0       0
  8504 ;;Total ram usage:       20 bytes
  8505 ;; Hardware stack levels used: 1
  8506 ;; This function calls:
  8507 ;;		Nothing
  8508 ;; This function is called by:
  8509 ;;		_isr
  8510 ;;		_servos
  8511 ;; This function uses a non-reentrant model
  8512 ;;
  8513                           
  8514     0A95                     ___fladd:	
  8515                           ;psect for function ___fladd
  8516                           
  8517     0A95                     i1l2936:	
  8518                           ;incstack = 0
  8519                           ; Regs used in ___fladd: [wreg+status,2+status,0+btemp+1]
  8520                           
  8521     0A95  1283               	bcf	3,5	;RP0=0, select bank0
  8522     0A96  1303               	bcf	3,6	;RP1=0, select bank0
  8523     0A97  0857               	movf	___fladd@b+3,w
  8524     0A98  3980               	andlw	128
  8525     0A99  00E4               	movwf	___fladd@signs
  8526     0A9A                     i1l2938:
  8527     0A9A  0857               	movf	___fladd@b+3,w
  8528     0A9B  00DC               	movwf	??___fladd
  8529     0A9C  075C               	addwf	??___fladd,w
  8530     0A9D  00E6               	movwf	___fladd@bexp
  8531     0A9E                     i1l2940:
  8532     0A9E  1FD6               	btfss	___fladd@b+2,7
  8533     0A9F  2AA1               	goto	u442_21
  8534     0AA0  2AA2               	goto	u442_20
  8535     0AA1                     u442_21:
  8536     0AA1  2AA3               	goto	i1l2944
  8537     0AA2                     u442_20:
  8538     0AA2                     i1l2942:
  8539     0AA2  1466               	bsf	___fladd@bexp,0
  8540     0AA3                     i1l2944:
  8541     0AA3  0866               	movf	___fladd@bexp,w
  8542     0AA4  1903               	btfsc	3,2
  8543     0AA5  2AA7               	goto	u443_21
  8544     0AA6  2AA8               	goto	u443_20
  8545     0AA7                     u443_21:
  8546     0AA7  2AB8               	goto	i1l2954
  8547     0AA8                     u443_20:
  8548     0AA8                     i1l2946:
  8549     0AA8  0A66               	incf	___fladd@bexp,w
  8550     0AA9  1D03               	btfss	3,2
  8551     0AAA  2AAC               	goto	u444_21
  8552     0AAB  2AAD               	goto	u444_20
  8553     0AAC                     u444_21:
  8554     0AAC  2AB5               	goto	i1l2950
  8555     0AAD                     u444_20:
  8556     0AAD                     i1l2948:
  8557     0AAD  3000               	movlw	0
  8558     0AAE  00D7               	movwf	___fladd@b+3
  8559     0AAF  3000               	movlw	0
  8560     0AB0  00D6               	movwf	___fladd@b+2
  8561     0AB1  3000               	movlw	0
  8562     0AB2  00D5               	movwf	___fladd@b+1
  8563     0AB3  3000               	movlw	0
  8564     0AB4  00D4               	movwf	___fladd@b
  8565     0AB5                     i1l2950:
  8566     0AB5  17D6               	bsf	___fladd@b+2,7
  8567     0AB6                     i1l2952:
  8568     0AB6  01D7               	clrf	___fladd@b+3
  8569     0AB7  2AC0               	goto	i1l2956
  8570     0AB8                     i1l2954:
  8571     0AB8  3000               	movlw	0
  8572     0AB9  00D7               	movwf	___fladd@b+3
  8573     0ABA  3000               	movlw	0
  8574     0ABB  00D6               	movwf	___fladd@b+2
  8575     0ABC  3000               	movlw	0
  8576     0ABD  00D5               	movwf	___fladd@b+1
  8577     0ABE  3000               	movlw	0
  8578     0ABF  00D4               	movwf	___fladd@b
  8579     0AC0                     i1l2956:
  8580     0AC0  085B               	movf	___fladd@a+3,w
  8581     0AC1  3980               	andlw	128
  8582     0AC2  00E5               	movwf	___fladd@aexp
  8583     0AC3                     i1l2958:
  8584     0AC3  0865               	movf	___fladd@aexp,w
  8585     0AC4  0664               	xorwf	___fladd@signs,w
  8586     0AC5  1903               	skipnz
  8587     0AC6  2AC8               	goto	u445_21
  8588     0AC7  2AC9               	goto	u445_20
  8589     0AC8                     u445_21:
  8590     0AC8  2ACA               	goto	i1l2962
  8591     0AC9                     u445_20:
  8592     0AC9                     i1l2960:
  8593     0AC9  1764               	bsf	___fladd@signs,6
  8594     0ACA                     i1l2962:
  8595     0ACA  085B               	movf	___fladd@a+3,w
  8596     0ACB  00DC               	movwf	??___fladd
  8597     0ACC  075C               	addwf	??___fladd,w
  8598     0ACD  00E5               	movwf	___fladd@aexp
  8599     0ACE                     i1l2964:
  8600     0ACE  1FDA               	btfss	___fladd@a+2,7
  8601     0ACF  2AD1               	goto	u446_21
  8602     0AD0  2AD2               	goto	u446_20
  8603     0AD1                     u446_21:
  8604     0AD1  2AD3               	goto	i1l2968
  8605     0AD2                     u446_20:
  8606     0AD2                     i1l2966:
  8607     0AD2  1465               	bsf	___fladd@aexp,0
  8608     0AD3                     i1l2968:
  8609     0AD3  0865               	movf	___fladd@aexp,w
  8610     0AD4  1903               	btfsc	3,2
  8611     0AD5  2AD7               	goto	u447_21
  8612     0AD6  2AD8               	goto	u447_20
  8613     0AD7                     u447_21:
  8614     0AD7  2AE8               	goto	i1l2978
  8615     0AD8                     u447_20:
  8616     0AD8                     i1l2970:
  8617     0AD8  0A65               	incf	___fladd@aexp,w
  8618     0AD9  1D03               	btfss	3,2
  8619     0ADA  2ADC               	goto	u448_21
  8620     0ADB  2ADD               	goto	u448_20
  8621     0ADC                     u448_21:
  8622     0ADC  2AE5               	goto	i1l2974
  8623     0ADD                     u448_20:
  8624     0ADD                     i1l2972:
  8625     0ADD  3000               	movlw	0
  8626     0ADE  00DB               	movwf	___fladd@a+3
  8627     0ADF  3000               	movlw	0
  8628     0AE0  00DA               	movwf	___fladd@a+2
  8629     0AE1  3000               	movlw	0
  8630     0AE2  00D9               	movwf	___fladd@a+1
  8631     0AE3  3000               	movlw	0
  8632     0AE4  00D8               	movwf	___fladd@a
  8633     0AE5                     i1l2974:
  8634     0AE5  17DA               	bsf	___fladd@a+2,7
  8635     0AE6                     i1l2976:
  8636     0AE6  01DB               	clrf	___fladd@a+3
  8637     0AE7  2AF0               	goto	i1l665
  8638     0AE8                     i1l2978:
  8639     0AE8  3000               	movlw	0
  8640     0AE9  00DB               	movwf	___fladd@a+3
  8641     0AEA  3000               	movlw	0
  8642     0AEB  00DA               	movwf	___fladd@a+2
  8643     0AEC  3000               	movlw	0
  8644     0AED  00D9               	movwf	___fladd@a+1
  8645     0AEE  3000               	movlw	0
  8646     0AEF  00D8               	movwf	___fladd@a
  8647     0AF0                     i1l665:
  8648     0AF0  0866               	movf	___fladd@bexp,w
  8649     0AF1  0265               	subwf	___fladd@aexp,w
  8650     0AF2  1803               	skipnc
  8651     0AF3  2AF5               	goto	u449_21
  8652     0AF4  2AF6               	goto	u449_20
  8653     0AF5                     u449_21:
  8654     0AF5  2B1C               	goto	i1l3014
  8655     0AF6                     u449_20:
  8656     0AF6                     i1l2980:
  8657     0AF6  1F64               	btfss	___fladd@signs,6
  8658     0AF7  2AF9               	goto	u450_21
  8659     0AF8  2AFA               	goto	u450_20
  8660     0AF9                     u450_21:
  8661     0AF9  2AFE               	goto	i1l2984
  8662     0AFA                     u450_20:
  8663     0AFA                     i1l2982:
  8664     0AFA  3080               	movlw	128
  8665     0AFB  00DC               	movwf	??___fladd
  8666     0AFC  085C               	movf	??___fladd,w
  8667     0AFD  06E4               	xorwf	___fladd@signs,f
  8668     0AFE                     i1l2984:
  8669     0AFE  0866               	movf	___fladd@bexp,w
  8670     0AFF  00E7               	movwf	___fladd@grs
  8671     0B00                     i1l2986:
  8672     0B00  0865               	movf	___fladd@aexp,w
  8673     0B01  00E6               	movwf	___fladd@bexp
  8674     0B02                     i1l2988:
  8675     0B02  0867               	movf	___fladd@grs,w
  8676     0B03  00E5               	movwf	___fladd@aexp
  8677     0B04                     i1l2990:
  8678     0B04  0854               	movf	___fladd@b,w
  8679     0B05  00E7               	movwf	___fladd@grs
  8680     0B06                     i1l2992:
  8681     0B06  0858               	movf	___fladd@a,w
  8682     0B07  00D4               	movwf	___fladd@b
  8683     0B08                     i1l2994:
  8684     0B08  0867               	movf	___fladd@grs,w
  8685     0B09  00D8               	movwf	___fladd@a
  8686     0B0A                     i1l2996:
  8687     0B0A  0855               	movf	___fladd@b+1,w
  8688     0B0B  00E7               	movwf	___fladd@grs
  8689     0B0C                     i1l2998:
  8690     0B0C  0859               	movf	___fladd@a+1,w
  8691     0B0D  00D5               	movwf	___fladd@b+1
  8692     0B0E                     i1l3000:
  8693     0B0E  0867               	movf	___fladd@grs,w
  8694     0B0F  00D9               	movwf	___fladd@a+1
  8695     0B10                     i1l3002:
  8696     0B10  0856               	movf	___fladd@b+2,w
  8697     0B11  00E7               	movwf	___fladd@grs
  8698     0B12                     i1l3004:
  8699     0B12  085A               	movf	___fladd@a+2,w
  8700     0B13  00D6               	movwf	___fladd@b+2
  8701     0B14                     i1l3006:
  8702     0B14  0867               	movf	___fladd@grs,w
  8703     0B15  00DA               	movwf	___fladd@a+2
  8704     0B16                     i1l3008:
  8705     0B16  0857               	movf	___fladd@b+3,w
  8706     0B17  00E7               	movwf	___fladd@grs
  8707     0B18                     i1l3010:
  8708     0B18  085B               	movf	___fladd@a+3,w
  8709     0B19  00D7               	movwf	___fladd@b+3
  8710     0B1A                     i1l3012:
  8711     0B1A  0867               	movf	___fladd@grs,w
  8712     0B1B  00DB               	movwf	___fladd@a+3
  8713     0B1C                     i1l3014:
  8714     0B1C  01E7               	clrf	___fladd@grs
  8715     0B1D                     i1l3016:
  8716     0B1D  0865               	movf	___fladd@aexp,w
  8717     0B1E  00DC               	movwf	??___fladd
  8718     0B1F  01DD               	clrf	??___fladd+1
  8719     0B20  085D               	movf	??___fladd+1,w
  8720     0B21  00DF               	movwf	??___fladd+3
  8721     0B22  0866               	movf	___fladd@bexp,w
  8722     0B23  025C               	subwf	??___fladd,w
  8723     0B24  00DE               	movwf	??___fladd+2
  8724     0B25  1C03               	skipc
  8725     0B26  03DF               	decf	??___fladd+3,f
  8726     0B27  085F               	movf	??___fladd+3,w
  8727     0B28  3A80               	xorlw	128
  8728     0B29  00FF               	movwf	btemp+1
  8729     0B2A  3080               	movlw	128
  8730     0B2B  027F               	subwf	btemp+1,w
  8731     0B2C  1D03               	skipz
  8732     0B2D  2B30               	goto	u451_25
  8733     0B2E  301A               	movlw	26
  8734     0B2F  025E               	subwf	??___fladd+2,w
  8735     0B30                     u451_25:
  8736     0B30  1C03               	skipc
  8737     0B31  2B33               	goto	u451_21
  8738     0B32  2B34               	goto	u451_20
  8739     0B33                     u451_21:
  8740     0B33  2B6B               	goto	i1l3032
  8741     0B34                     u451_20:
  8742     0B34                     i1l3018:
  8743     0B34  1283               	bcf	3,5	;RP0=0, select bank0
  8744     0B35  1303               	bcf	3,6	;RP1=0, select bank0
  8745     0B36  0857               	movf	___fladd@b+3,w
  8746     0B37  0456               	iorwf	___fladd@b+2,w
  8747     0B38  0455               	iorwf	___fladd@b+1,w
  8748     0B39  0454               	iorwf	___fladd@b,w
  8749     0B3A  1D03               	skipz
  8750     0B3B  2B3D               	goto	u452_21
  8751     0B3C  2B3F               	goto	u452_20
  8752     0B3D                     u452_21:
  8753     0B3D  3001               	movlw	1
  8754     0B3E  2B40               	goto	u453_20
  8755     0B3F                     u452_20:
  8756     0B3F  3000               	movlw	0
  8757     0B40                     u453_20:
  8758     0B40  00E7               	movwf	___fladd@grs
  8759     0B41  3000               	movlw	0
  8760     0B42  00D7               	movwf	___fladd@b+3
  8761     0B43  3000               	movlw	0
  8762     0B44  00D6               	movwf	___fladd@b+2
  8763     0B45  3000               	movlw	0
  8764     0B46  00D5               	movwf	___fladd@b+1
  8765     0B47  3000               	movlw	0
  8766     0B48  00D4               	movwf	___fladd@b
  8767     0B49  0865               	movf	___fladd@aexp,w
  8768     0B4A  00E6               	movwf	___fladd@bexp
  8769     0B4B  2B73               	goto	i1l669
  8770     0B4C                     i1l671:
  8771     0B4C  1C67               	btfss	___fladd@grs,0
  8772     0B4D  2B4F               	goto	u454_21
  8773     0B4E  2B50               	goto	u454_20
  8774     0B4F                     u454_21:
  8775     0B4F  2B57               	goto	i1l3022
  8776     0B50                     u454_20:
  8777     0B50                     i1l3020:
  8778     0B50  0867               	movf	___fladd@grs,w
  8779     0B51  00DC               	movwf	??___fladd
  8780     0B52  1003               	clrc
  8781     0B53  0C5C               	rrf	??___fladd,w
  8782     0B54  3801               	iorlw	1
  8783     0B55  00E7               	movwf	___fladd@grs
  8784     0B56  2B59               	goto	i1l3024
  8785     0B57                     i1l3022:
  8786     0B57  1003               	clrc
  8787     0B58  0CE7               	rrf	___fladd@grs,f
  8788     0B59                     i1l3024:
  8789     0B59  1C54               	btfss	___fladd@b,0
  8790     0B5A  2B5C               	goto	u455_21
  8791     0B5B  2B5D               	goto	u455_20
  8792     0B5C                     u455_21:
  8793     0B5C  2B5E               	goto	i1l3028
  8794     0B5D                     u455_20:
  8795     0B5D                     i1l3026:
  8796     0B5D  17E7               	bsf	___fladd@grs,7
  8797     0B5E                     i1l3028:
  8798     0B5E  3001               	movlw	1
  8799     0B5F  00DC               	movwf	??___fladd
  8800     0B60                     u456_25:
  8801     0B60  0D57               	rlf	___fladd@b+3,w
  8802     0B61  0CD7               	rrf	___fladd@b+3,f
  8803     0B62  0CD6               	rrf	___fladd@b+2,f
  8804     0B63  0CD5               	rrf	___fladd@b+1,f
  8805     0B64  0CD4               	rrf	___fladd@b,f
  8806     0B65  0BDC               	decfsz	??___fladd& (0+127),f
  8807     0B66  2B60               	goto	u456_25
  8808     0B67                     i1l3030:
  8809     0B67  3001               	movlw	1
  8810     0B68  00DC               	movwf	??___fladd
  8811     0B69  085C               	movf	??___fladd,w
  8812     0B6A  07E6               	addwf	___fladd@bexp,f
  8813     0B6B                     i1l3032:
  8814     0B6B  1283               	bcf	3,5	;RP0=0, select bank0
  8815     0B6C  1303               	bcf	3,6	;RP1=0, select bank0
  8816     0B6D  0865               	movf	___fladd@aexp,w
  8817     0B6E  0266               	subwf	___fladd@bexp,w
  8818     0B6F  1C03               	skipc
  8819     0B70  2B72               	goto	u457_21
  8820     0B71  2B73               	goto	u457_20
  8821     0B72                     u457_21:
  8822     0B72  2B4C               	goto	i1l671
  8823     0B73                     u457_20:
  8824     0B73                     i1l669:
  8825     0B73  1B64               	btfsc	___fladd@signs,6
  8826     0B74  2B76               	goto	u458_21
  8827     0B75  2B77               	goto	u458_20
  8828     0B76                     u458_21:
  8829     0B76  2BC0               	goto	i1l3058
  8830     0B77                     u458_20:
  8831     0B77                     i1l3034:
  8832     0B77  0866               	movf	___fladd@bexp,w
  8833     0B78  1D03               	btfss	3,2
  8834     0B79  2B7B               	goto	u459_21
  8835     0B7A  2B7C               	goto	u459_20
  8836     0B7B                     u459_21:
  8837     0B7B  2B85               	goto	i1l3040
  8838     0B7C                     u459_20:
  8839     0B7C                     i1l3036:
  8840     0B7C  3000               	movlw	0
  8841     0B7D  00D7               	movwf	?___fladd+3
  8842     0B7E  3000               	movlw	0
  8843     0B7F  00D6               	movwf	?___fladd+2
  8844     0B80  3000               	movlw	0
  8845     0B81  00D5               	movwf	?___fladd+1
  8846     0B82  3000               	movlw	0
  8847     0B83  00D4               	movwf	?___fladd
  8848     0B84  2CEC               	goto	i1l678
  8849     0B85                     i1l3040:
  8850     0B85  0858               	movf	___fladd@a,w
  8851     0B86  07D4               	addwf	___fladd@b,f
  8852     0B87  0859               	movf	___fladd@a+1,w
  8853     0B88  1103               	clrz
  8854     0B89  1803               	skipnc
  8855     0B8A  3E01               	addlw	1
  8856     0B8B  1903               	skipnz
  8857     0B8C  2B8E               	goto	u460_21
  8858     0B8D  07D5               	addwf	___fladd@b+1,f
  8859     0B8E                     u460_21:
  8860     0B8E  085A               	movf	___fladd@a+2,w
  8861     0B8F  1103               	clrz
  8862     0B90  1803               	skipnc
  8863     0B91  3E01               	addlw	1
  8864     0B92  1903               	skipnz
  8865     0B93  2B95               	goto	u460_22
  8866     0B94  07D6               	addwf	___fladd@b+2,f
  8867     0B95                     u460_22:
  8868     0B95  085B               	movf	___fladd@a+3,w
  8869     0B96  1103               	clrz
  8870     0B97  1803               	skipnc
  8871     0B98  3E01               	addlw	1
  8872     0B99  1903               	skipnz
  8873     0B9A  2B9C               	goto	u460_23
  8874     0B9B  07D7               	addwf	___fladd@b+3,f
  8875     0B9C                     u460_23:
  8876     0B9C                     i1l3042:
  8877     0B9C  1C57               	btfss	___fladd@b+3,0
  8878     0B9D  2B9F               	goto	u461_21
  8879     0B9E  2BA0               	goto	u461_20
  8880     0B9F                     u461_21:
  8881     0B9F  2C74               	goto	i1l3092
  8882     0BA0                     u461_20:
  8883     0BA0                     i1l3044:
  8884     0BA0  1C67               	btfss	___fladd@grs,0
  8885     0BA1  2BA3               	goto	u462_21
  8886     0BA2  2BA4               	goto	u462_20
  8887     0BA3                     u462_21:
  8888     0BA3  2BAB               	goto	i1l3048
  8889     0BA4                     u462_20:
  8890     0BA4                     i1l3046:
  8891     0BA4  0867               	movf	___fladd@grs,w
  8892     0BA5  00DC               	movwf	??___fladd
  8893     0BA6  1003               	clrc
  8894     0BA7  0C5C               	rrf	??___fladd,w
  8895     0BA8  3801               	iorlw	1
  8896     0BA9  00E7               	movwf	___fladd@grs
  8897     0BAA  2BAD               	goto	i1l3050
  8898     0BAB                     i1l3048:
  8899     0BAB  1003               	clrc
  8900     0BAC  0CE7               	rrf	___fladd@grs,f
  8901     0BAD                     i1l3050:
  8902     0BAD  1C54               	btfss	___fladd@b,0
  8903     0BAE  2BB0               	goto	u463_21
  8904     0BAF  2BB1               	goto	u463_20
  8905     0BB0                     u463_21:
  8906     0BB0  2BB2               	goto	i1l3054
  8907     0BB1                     u463_20:
  8908     0BB1                     i1l3052:
  8909     0BB1  17E7               	bsf	___fladd@grs,7
  8910     0BB2                     i1l3054:
  8911     0BB2  3001               	movlw	1
  8912     0BB3  00DC               	movwf	??___fladd
  8913     0BB4                     u464_25:
  8914     0BB4  0D57               	rlf	___fladd@b+3,w
  8915     0BB5  0CD7               	rrf	___fladd@b+3,f
  8916     0BB6  0CD6               	rrf	___fladd@b+2,f
  8917     0BB7  0CD5               	rrf	___fladd@b+1,f
  8918     0BB8  0CD4               	rrf	___fladd@b,f
  8919     0BB9  0BDC               	decfsz	??___fladd& (0+127),f
  8920     0BBA  2BB4               	goto	u464_25
  8921     0BBB                     i1l3056:
  8922     0BBB  3001               	movlw	1
  8923     0BBC  00DC               	movwf	??___fladd
  8924     0BBD  085C               	movf	??___fladd,w
  8925     0BBE  07E6               	addwf	___fladd@bexp,f
  8926     0BBF  2C74               	goto	i1l3092
  8927     0BC0                     i1l3058:
  8928     0BC0  0857               	movf	___fladd@b+3,w
  8929     0BC1  3A80               	xorlw	128
  8930     0BC2  00FF               	movwf	btemp+1
  8931     0BC3  085B               	movf	___fladd@a+3,w
  8932     0BC4  3A80               	xorlw	128
  8933     0BC5  027F               	subwf	btemp+1,w
  8934     0BC6  1D03               	skipz
  8935     0BC7  2BD2               	goto	u465_23
  8936     0BC8  085A               	movf	___fladd@a+2,w
  8937     0BC9  0256               	subwf	___fladd@b+2,w
  8938     0BCA  1D03               	skipz
  8939     0BCB  2BD2               	goto	u465_23
  8940     0BCC  0859               	movf	___fladd@a+1,w
  8941     0BCD  0255               	subwf	___fladd@b+1,w
  8942     0BCE  1D03               	skipz
  8943     0BCF  2BD2               	goto	u465_23
  8944     0BD0  0858               	movf	___fladd@a,w
  8945     0BD1  0254               	subwf	___fladd@b,w
  8946     0BD2                     u465_23:
  8947     0BD2  1803               	skipnc
  8948     0BD3  2BD5               	goto	u465_21
  8949     0BD4  2BD6               	goto	u465_20
  8950     0BD5                     u465_21:
  8951     0BD5  2C2E               	goto	i1l3068
  8952     0BD6                     u465_20:
  8953     0BD6                     i1l3060:
  8954     0BD6  30FF               	movlw	255
  8955     0BD7  00DC               	movwf	??___fladd
  8956     0BD8  30FF               	movlw	255
  8957     0BD9  00DD               	movwf	??___fladd+1
  8958     0BDA  30FF               	movlw	255
  8959     0BDB  00DE               	movwf	??___fladd+2
  8960     0BDC  30FF               	movlw	255
  8961     0BDD  00DF               	movwf	??___fladd+3
  8962     0BDE  0858               	movf	___fladd@a,w
  8963     0BDF  00E0               	movwf	??___fladd+4
  8964     0BE0  0859               	movf	___fladd@a+1,w
  8965     0BE1  00E1               	movwf	??___fladd+5
  8966     0BE2  085A               	movf	___fladd@a+2,w
  8967     0BE3  00E2               	movwf	??___fladd+6
  8968     0BE4  085B               	movf	___fladd@a+3,w
  8969     0BE5  00E3               	movwf	??___fladd+7
  8970     0BE6  0854               	movf	___fladd@b,w
  8971     0BE7  02E0               	subwf	??___fladd+4,f
  8972     0BE8  0855               	movf	___fladd@b+1,w
  8973     0BE9  1C03               	skipc
  8974     0BEA  0F55               	incfsz	___fladd@b+1,w
  8975     0BEB  2BED               	goto	u466_21
  8976     0BEC  2BEE               	goto	u466_22
  8977     0BED                     u466_21:
  8978     0BED  02E1               	subwf	??___fladd+5,f
  8979     0BEE                     u466_22:
  8980     0BEE  0856               	movf	___fladd@b+2,w
  8981     0BEF  1C03               	skipc
  8982     0BF0  0F56               	incfsz	___fladd@b+2,w
  8983     0BF1  2BF3               	goto	u466_23
  8984     0BF2  2BF4               	goto	u466_24
  8985     0BF3                     u466_23:
  8986     0BF3  02E2               	subwf	??___fladd+6,f
  8987     0BF4                     u466_24:
  8988     0BF4  0857               	movf	___fladd@b+3,w
  8989     0BF5  1C03               	skipc
  8990     0BF6  0F57               	incfsz	___fladd@b+3,w
  8991     0BF7  2BF9               	goto	u466_25
  8992     0BF8  2BFA               	goto	u466_26
  8993     0BF9                     u466_25:
  8994     0BF9  02E3               	subwf	??___fladd+7,f
  8995     0BFA                     u466_26:
  8996     0BFA  0860               	movf	??___fladd+4,w
  8997     0BFB  07DC               	addwf	??___fladd,f
  8998     0BFC  0861               	movf	??___fladd+5,w
  8999     0BFD  1803               	skipnc
  9000     0BFE  0F61               	incfsz	??___fladd+5,w
  9001     0BFF  2C01               	goto	u467_20
  9002     0C00  2C02               	goto	u467_21
  9003     0C01                     u467_20:
  9004     0C01  07DD               	addwf	??___fladd+1,f
  9005     0C02                     u467_21:
  9006     0C02  0862               	movf	??___fladd+6,w
  9007     0C03  1803               	skipnc
  9008     0C04  0F62               	incfsz	??___fladd+6,w
  9009     0C05  2C07               	goto	u467_22
  9010     0C06  2C08               	goto	u467_23
  9011     0C07                     u467_22:
  9012     0C07  07DE               	addwf	??___fladd+2,f
  9013     0C08                     u467_23:
  9014     0C08  0863               	movf	??___fladd+7,w
  9015     0C09  1803               	skipnc
  9016     0C0A  0A63               	incf	??___fladd+7,w
  9017     0C0B  07DF               	addwf	??___fladd+3,f
  9018     0C0C  085F               	movf	??___fladd+3,w
  9019     0C0D  00D7               	movwf	___fladd@b+3
  9020     0C0E  085E               	movf	??___fladd+2,w
  9021     0C0F  00D6               	movwf	___fladd@b+2
  9022     0C10  085D               	movf	??___fladd+1,w
  9023     0C11  00D5               	movwf	___fladd@b+1
  9024     0C12  085C               	movf	??___fladd,w
  9025     0C13  00D4               	movwf	___fladd@b
  9026     0C14                     i1l3062:
  9027     0C14  3080               	movlw	128
  9028     0C15  00DC               	movwf	??___fladd
  9029     0C16  085C               	movf	??___fladd,w
  9030     0C17  06E4               	xorwf	___fladd@signs,f
  9031     0C18  09E7               	comf	___fladd@grs,f
  9032     0C19  0AE7               	incf	___fladd@grs,f
  9033     0C1A                     i1l3064:
  9034     0C1A  0867               	movf	___fladd@grs,w
  9035     0C1B  1D03               	btfss	3,2
  9036     0C1C  2C1E               	goto	u468_21
  9037     0C1D  2C1F               	goto	u468_20
  9038     0C1E                     u468_21:
  9039     0C1E  2C3C               	goto	i1l686
  9040     0C1F                     u468_20:
  9041     0C1F                     i1l3066:
  9042     0C1F  3001               	movlw	1
  9043     0C20  07D4               	addwf	___fladd@b,f
  9044     0C21  3000               	movlw	0
  9045     0C22  1803               	skipnc
  9046     0C23  3001               	movlw	1
  9047     0C24  07D5               	addwf	___fladd@b+1,f
  9048     0C25  3000               	movlw	0
  9049     0C26  1803               	skipnc
  9050     0C27  3001               	movlw	1
  9051     0C28  07D6               	addwf	___fladd@b+2,f
  9052     0C29  3000               	movlw	0
  9053     0C2A  1803               	skipnc
  9054     0C2B  3001               	movlw	1
  9055     0C2C  07D7               	addwf	___fladd@b+3,f
  9056     0C2D  2C3C               	goto	i1l686
  9057     0C2E                     i1l3068:
  9058     0C2E  0858               	movf	___fladd@a,w
  9059     0C2F  02D4               	subwf	___fladd@b,f
  9060     0C30  0859               	movf	___fladd@a+1,w
  9061     0C31  1C03               	skipc
  9062     0C32  0F59               	incfsz	___fladd@a+1,w
  9063     0C33  02D5               	subwf	___fladd@b+1,f
  9064     0C34  085A               	movf	___fladd@a+2,w
  9065     0C35  1C03               	skipc
  9066     0C36  0F5A               	incfsz	___fladd@a+2,w
  9067     0C37  02D6               	subwf	___fladd@b+2,f
  9068     0C38  085B               	movf	___fladd@a+3,w
  9069     0C39  1C03               	skipc
  9070     0C3A  0F5B               	incfsz	___fladd@a+3,w
  9071     0C3B  02D7               	subwf	___fladd@b+3,f
  9072     0C3C                     i1l686:
  9073     0C3C  0857               	movf	___fladd@b+3,w
  9074     0C3D  0456               	iorwf	___fladd@b+2,w
  9075     0C3E  0455               	iorwf	___fladd@b+1,w
  9076     0C3F  0454               	iorwf	___fladd@b,w
  9077     0C40  1D03               	skipz
  9078     0C41  2C43               	goto	u469_21
  9079     0C42  2C44               	goto	u469_20
  9080     0C43                     u469_21:
  9081     0C43  2C70               	goto	i1l3090
  9082     0C44                     u469_20:
  9083     0C44                     i1l3070:
  9084     0C44  0867               	movf	___fladd@grs,w
  9085     0C45  1D03               	btfss	3,2
  9086     0C46  2C48               	goto	u470_21
  9087     0C47  2C49               	goto	u470_20
  9088     0C48                     u470_21:
  9089     0C48  2C70               	goto	i1l3090
  9090     0C49                     u470_20:
  9091     0C49                     i1l3072:
  9092     0C49  3000               	movlw	0
  9093     0C4A  00D7               	movwf	?___fladd+3
  9094     0C4B  3000               	movlw	0
  9095     0C4C  00D6               	movwf	?___fladd+2
  9096     0C4D  3000               	movlw	0
  9097     0C4E  00D5               	movwf	?___fladd+1
  9098     0C4F  3000               	movlw	0
  9099     0C50  00D4               	movwf	?___fladd
  9100     0C51  2CEC               	goto	i1l678
  9101     0C52                     i1l3076:
  9102     0C52  3001               	movlw	1
  9103     0C53  00DC               	movwf	??___fladd
  9104     0C54                     u471_25:
  9105     0C54  1003               	clrc
  9106     0C55  0DD4               	rlf	___fladd@b,f
  9107     0C56  0DD5               	rlf	___fladd@b+1,f
  9108     0C57  0DD6               	rlf	___fladd@b+2,f
  9109     0C58  0DD7               	rlf	___fladd@b+3,f
  9110     0C59  0BDC               	decfsz	??___fladd,f
  9111     0C5A  2C54               	goto	u471_25
  9112     0C5B                     i1l3078:
  9113     0C5B  1FE7               	btfss	___fladd@grs,7
  9114     0C5C  2C5E               	goto	u472_21
  9115     0C5D  2C5F               	goto	u472_20
  9116     0C5E                     u472_21:
  9117     0C5E  2C60               	goto	i1l690
  9118     0C5F                     u472_20:
  9119     0C5F                     i1l3080:
  9120     0C5F  1454               	bsf	___fladd@b,0
  9121     0C60                     i1l690:
  9122     0C60  1C67               	btfss	___fladd@grs,0
  9123     0C61  2C63               	goto	u473_21
  9124     0C62  2C64               	goto	u473_20
  9125     0C63                     u473_21:
  9126     0C63  2C67               	goto	i1l3084
  9127     0C64                     u473_20:
  9128     0C64                     i1l3082:
  9129     0C64  1403               	setc
  9130     0C65  0DE7               	rlf	___fladd@grs,f
  9131     0C66  2C69               	goto	i1l3086
  9132     0C67                     i1l3084:
  9133     0C67  1003               	clrc
  9134     0C68  0DE7               	rlf	___fladd@grs,f
  9135     0C69                     i1l3086:
  9136     0C69  0866               	movf	___fladd@bexp,w
  9137     0C6A  1903               	btfsc	3,2
  9138     0C6B  2C6D               	goto	u474_21
  9139     0C6C  2C6E               	goto	u474_20
  9140     0C6D                     u474_21:
  9141     0C6D  2C70               	goto	i1l3090
  9142     0C6E                     u474_20:
  9143     0C6E                     i1l3088:
  9144     0C6E  3001               	movlw	1
  9145     0C6F  02E6               	subwf	___fladd@bexp,f
  9146     0C70                     i1l3090:
  9147     0C70  1FD6               	btfss	___fladd@b+2,7
  9148     0C71  2C73               	goto	u475_21
  9149     0C72  2C74               	goto	u475_20
  9150     0C73                     u475_21:
  9151     0C73  2C52               	goto	i1l3076
  9152     0C74                     u475_20:
  9153     0C74                     i1l3092:
  9154     0C74  01E5               	clrf	___fladd@aexp
  9155     0C75                     i1l3094:
  9156     0C75  1FE7               	btfss	___fladd@grs,7
  9157     0C76  2C78               	goto	u476_21
  9158     0C77  2C79               	goto	u476_20
  9159     0C78                     u476_21:
  9160     0C78  2C87               	goto	i1l3102
  9161     0C79                     u476_20:
  9162     0C79                     i1l3096:
  9163     0C79  0867               	movf	___fladd@grs,w
  9164     0C7A  397F               	andlw	127
  9165     0C7B  1903               	btfsc	3,2
  9166     0C7C  2C7E               	goto	u477_21
  9167     0C7D  2C7F               	goto	u477_20
  9168     0C7E                     u477_21:
  9169     0C7E  2C82               	goto	i1l696
  9170     0C7F                     u477_20:
  9171     0C7F                     i1l3098:
  9172     0C7F  01E5               	clrf	___fladd@aexp
  9173     0C80  0AE5               	incf	___fladd@aexp,f
  9174     0C81  2C87               	goto	i1l3102
  9175     0C82                     i1l696:
  9176     0C82  1C54               	btfss	___fladd@b,0
  9177     0C83  2C85               	goto	u478_21
  9178     0C84  2C86               	goto	u478_20
  9179     0C85                     u478_21:
  9180     0C85  2C87               	goto	i1l3102
  9181     0C86                     u478_20:
  9182     0C86  2C7F               	goto	i1l3098
  9183     0C87                     i1l3102:
  9184     0C87  0865               	movf	___fladd@aexp,w
  9185     0C88  1903               	btfsc	3,2
  9186     0C89  2C8B               	goto	u479_21
  9187     0C8A  2C8C               	goto	u479_20
  9188     0C8B                     u479_21:
  9189     0C8B  2CC0               	goto	i1l699
  9190     0C8C                     u479_20:
  9191     0C8C                     i1l3104:
  9192     0C8C  3001               	movlw	1
  9193     0C8D  07D4               	addwf	___fladd@b,f
  9194     0C8E  3000               	movlw	0
  9195     0C8F  1803               	skipnc
  9196     0C90  3001               	movlw	1
  9197     0C91  07D5               	addwf	___fladd@b+1,f
  9198     0C92  3000               	movlw	0
  9199     0C93  1803               	skipnc
  9200     0C94  3001               	movlw	1
  9201     0C95  07D6               	addwf	___fladd@b+2,f
  9202     0C96  3000               	movlw	0
  9203     0C97  1803               	skipnc
  9204     0C98  3001               	movlw	1
  9205     0C99  07D7               	addwf	___fladd@b+3,f
  9206     0C9A                     i1l3106:
  9207     0C9A  1C57               	btfss	___fladd@b+3,0
  9208     0C9B  2C9D               	goto	u480_21
  9209     0C9C  2C9E               	goto	u480_20
  9210     0C9D                     u480_21:
  9211     0C9D  2CC0               	goto	i1l699
  9212     0C9E                     u480_20:
  9213     0C9E                     i1l3108:
  9214     0C9E  0854               	movf	___fladd@b,w
  9215     0C9F  00DC               	movwf	??___fladd
  9216     0CA0  0855               	movf	___fladd@b+1,w
  9217     0CA1  00DD               	movwf	??___fladd+1
  9218     0CA2  0856               	movf	___fladd@b+2,w
  9219     0CA3  00DE               	movwf	??___fladd+2
  9220     0CA4  0857               	movf	___fladd@b+3,w
  9221     0CA5  00DF               	movwf	??___fladd+3
  9222     0CA6  3001               	movlw	1
  9223     0CA7  00E0               	movwf	??___fladd+4
  9224     0CA8                     u481_25:
  9225     0CA8  0D5F               	rlf	??___fladd+3,w
  9226     0CA9  0CDF               	rrf	??___fladd+3,f
  9227     0CAA  0CDE               	rrf	??___fladd+2,f
  9228     0CAB  0CDD               	rrf	??___fladd+1,f
  9229     0CAC  0CDC               	rrf	??___fladd,f
  9230     0CAD                     u481_20:
  9231     0CAD  0BE0               	decfsz	??___fladd+4,f
  9232     0CAE  2CA8               	goto	u481_25
  9233     0CAF  085F               	movf	??___fladd+3,w
  9234     0CB0  00D7               	movwf	___fladd@b+3
  9235     0CB1  085E               	movf	??___fladd+2,w
  9236     0CB2  00D6               	movwf	___fladd@b+2
  9237     0CB3  085D               	movf	??___fladd+1,w
  9238     0CB4  00D5               	movwf	___fladd@b+1
  9239     0CB5  085C               	movf	??___fladd,w
  9240     0CB6  00D4               	movwf	___fladd@b
  9241     0CB7  0A66               	incf	___fladd@bexp,w
  9242     0CB8  1903               	btfsc	3,2
  9243     0CB9  2CBB               	goto	u482_21
  9244     0CBA  2CBC               	goto	u482_20
  9245     0CBB                     u482_21:
  9246     0CBB  2CC0               	goto	i1l699
  9247     0CBC                     u482_20:
  9248     0CBC                     i1l3110:
  9249     0CBC  3001               	movlw	1
  9250     0CBD  00DC               	movwf	??___fladd
  9251     0CBE  085C               	movf	??___fladd,w
  9252     0CBF  07E6               	addwf	___fladd@bexp,f
  9253     0CC0                     i1l699:
  9254     0CC0  0A66               	incf	___fladd@bexp,w
  9255     0CC1  1903               	btfsc	3,2
  9256     0CC2  2CC4               	goto	u483_21
  9257     0CC3  2CC5               	goto	u483_20
  9258     0CC4                     u483_21:
  9259     0CC4  2CCA               	goto	i1l3114
  9260     0CC5                     u483_20:
  9261     0CC5                     i1l3112:
  9262     0CC5  0866               	movf	___fladd@bexp,w
  9263     0CC6  1D03               	btfss	3,2
  9264     0CC7  2CC9               	goto	u484_21
  9265     0CC8  2CCA               	goto	u484_20
  9266     0CC9                     u484_21:
  9267     0CC9  2CD8               	goto	i1l3120
  9268     0CCA                     u484_20:
  9269     0CCA                     i1l3114:
  9270     0CCA  3000               	movlw	0
  9271     0CCB  00D7               	movwf	___fladd@b+3
  9272     0CCC  3000               	movlw	0
  9273     0CCD  00D6               	movwf	___fladd@b+2
  9274     0CCE  3000               	movlw	0
  9275     0CCF  00D5               	movwf	___fladd@b+1
  9276     0CD0  3000               	movlw	0
  9277     0CD1  00D4               	movwf	___fladd@b
  9278     0CD2                     i1l3116:
  9279     0CD2  0866               	movf	___fladd@bexp,w
  9280     0CD3  1D03               	btfss	3,2
  9281     0CD4  2CD6               	goto	u485_21
  9282     0CD5  2CD7               	goto	u485_20
  9283     0CD6                     u485_21:
  9284     0CD6  2CD8               	goto	i1l3120
  9285     0CD7                     u485_20:
  9286     0CD7                     i1l3118:
  9287     0CD7  01E4               	clrf	___fladd@signs
  9288     0CD8                     i1l3120:
  9289     0CD8  1C66               	btfss	___fladd@bexp,0
  9290     0CD9  2CDB               	goto	u486_21
  9291     0CDA  2CDC               	goto	u486_20
  9292     0CDB                     u486_21:
  9293     0CDB  2CDE               	goto	i1l3124
  9294     0CDC                     u486_20:
  9295     0CDC                     i1l3122:
  9296     0CDC  17D6               	bsf	___fladd@b+2,7
  9297     0CDD  2CE2               	goto	i1l707
  9298     0CDE                     i1l3124:
  9299     0CDE  307F               	movlw	127
  9300     0CDF  00DC               	movwf	??___fladd
  9301     0CE0  085C               	movf	??___fladd,w
  9302     0CE1  05D6               	andwf	___fladd@b+2,f
  9303     0CE2                     i1l707:
  9304     0CE2  0866               	movf	___fladd@bexp,w
  9305     0CE3  00DC               	movwf	??___fladd
  9306     0CE4  1003               	clrc
  9307     0CE5  0C5C               	rrf	??___fladd,w
  9308     0CE6  00D7               	movwf	___fladd@b+3
  9309     0CE7                     i1l3126:
  9310     0CE7  1FE4               	btfss	___fladd@signs,7
  9311     0CE8  2CEA               	goto	u487_21
  9312     0CE9  2CEB               	goto	u487_20
  9313     0CEA                     u487_21:
  9314     0CEA  2CEC               	goto	i1l708
  9315     0CEB                     u487_20:
  9316     0CEB                     i1l3128:
  9317     0CEB  17D7               	bsf	___fladd@b+3,7
  9318     0CEC                     i1l708:
  9319     0CEC                     i1l678:
  9320     0CEC  0008               	return
  9321     0CED                     __end_of___fladd:
  9322                           
  9323                           	psect	text19
  9324     1001                     __ptext19:	
  9325 ;; *************** function _read_EEPROM *****************
  9326 ;; Defined at:
  9327 ;;		line 384 in file "Progra_IRONMAN.c"
  9328 ;; Parameters:    Size  Location     Type
  9329 ;;  address         1    wreg     unsigned char 
  9330 ;; Auto vars:     Size  Location     Type
  9331 ;;  address         1    0[COMMON] unsigned char 
  9332 ;; Return value:  Size  Location     Type
  9333 ;;                  1    wreg      unsigned char 
  9334 ;; Registers used:
  9335 ;;		wreg
  9336 ;; Tracked objects:
  9337 ;;		On entry : 0/0
  9338 ;;		On exit  : 0/0
  9339 ;;		Unchanged: 0/0
  9340 ;; Data sizes:     COMMON   BANK0   BANK1   BANK3   BANK2
  9341 ;;      Params:         0       0       0       0       0
  9342 ;;      Locals:         1       0       0       0       0
  9343 ;;      Temps:          0       0       0       0       0
  9344 ;;      Totals:         1       0       0       0       0
  9345 ;;Total ram usage:        1 bytes
  9346 ;; Hardware stack levels used: 1
  9347 ;; This function calls:
  9348 ;;		Nothing
  9349 ;; This function is called by:
  9350 ;;		_isr
  9351 ;; This function uses a non-reentrant model
  9352 ;;
  9353                           
  9354     1001                     _read_EEPROM:	
  9355                           ;psect for function _read_EEPROM
  9356                           
  9357                           
  9358                           ;incstack = 0
  9359                           ; Regs used in _read_EEPROM: [wreg]
  9360                           ;read_EEPROM@address stored from wreg
  9361     1001  00F0               	movwf	read_EEPROM@address
  9362     1002                     i1l3264:
  9363     1002                     i1l236:	
  9364                           ;Progra_IRONMAN.c: 385:     while(WR||RD);
  9365                           
  9366     1002  1683               	bsf	3,5	;RP0=1, select bank3
  9367     1003  1703               	bsf	3,6	;RP1=1, select bank3
  9368     1004  188C               	btfsc	12,1	;volsfr
  9369     1005  2807               	goto	u512_21
  9370     1006  2808               	goto	u512_20
  9371     1007                     u512_21:
  9372     1007  2802               	goto	i1l236
  9373     1008                     u512_20:
  9374     1008                     i1l3266:
  9375     1008  180C               	btfsc	12,0	;volsfr
  9376     1009  280B               	goto	u513_21
  9377     100A  280C               	goto	u513_20
  9378     100B                     u513_21:
  9379     100B  2802               	goto	i1l236
  9380     100C                     u513_20:
  9381     100C                     i1l3268:
  9382                           
  9383                           ;Progra_IRONMAN.c: 387:     EEADR = address;
  9384     100C  0870               	movf	read_EEPROM@address,w
  9385     100D  1283               	bcf	3,5	;RP0=0, select bank2
  9386     100E  1703               	bsf	3,6	;RP1=1, select bank2
  9387     100F  008D               	movwf	13	;volatile
  9388     1010                     i1l3270:
  9389                           
  9390                           ;Progra_IRONMAN.c: 388:     EECON1bits.EEPGD = 0;
  9391     1010  1683               	bsf	3,5	;RP0=1, select bank3
  9392     1011  1703               	bsf	3,6	;RP1=1, select bank3
  9393     1012  138C               	bcf	12,7	;volsfr
  9394     1013                     i1l3272:
  9395                           
  9396                           ;Progra_IRONMAN.c: 389:     EECON1bits.RD = 1;
  9397     1013  140C               	bsf	12,0	;volsfr
  9398                           
  9399                           ;Progra_IRONMAN.c: 390:     return EEDAT;
  9400     1014  1283               	bcf	3,5	;RP0=0, select bank2
  9401     1015  1703               	bsf	3,6	;RP1=1, select bank2
  9402     1016  080C               	movf	12,w	;volatile
  9403     1017                     i1l239:
  9404     1017  0008               	return
  9405     1018                     __end_of_read_EEPROM:
  9406                           
  9407                           	psect	text20
  9408     1018                     __ptext20:	
  9409 ;; *************** function _pulse *****************
  9410 ;; Defined at:
  9411 ;;		line 175 in file "Progra_IRONMAN.c"
  9412 ;; Parameters:    Size  Location     Type
  9413 ;;		None
  9414 ;; Auto vars:     Size  Location     Type
  9415 ;;		None
  9416 ;; Return value:  Size  Location     Type
  9417 ;;                  1    wreg      void 
  9418 ;; Registers used:
  9419 ;;		wreg, status,2, status,0
  9420 ;; Tracked objects:
  9421 ;;		On entry : 0/0
  9422 ;;		On exit  : 0/0
  9423 ;;		Unchanged: 0/0
  9424 ;; Data sizes:     COMMON   BANK0   BANK1   BANK3   BANK2
  9425 ;;      Params:         0       0       0       0       0
  9426 ;;      Locals:         0       0       0       0       0
  9427 ;;      Temps:          0       0       0       0       0
  9428 ;;      Totals:         0       0       0       0       0
  9429 ;;Total ram usage:        0 bytes
  9430 ;; Hardware stack levels used: 1
  9431 ;; This function calls:
  9432 ;;		Nothing
  9433 ;; This function is called by:
  9434 ;;		_isr
  9435 ;; This function uses a non-reentrant model
  9436 ;;
  9437                           
  9438     1018                     _pulse:	
  9439                           ;psect for function _pulse
  9440                           
  9441     1018                     i1l3196:	
  9442                           ;incstack = 0
  9443                           ; Regs used in _pulse: [wreg+status,2+status,0]
  9444                           
  9445                           
  9446                           ;Progra_IRONMAN.c: 176:     if(servo == 1){
  9447     1018  1683               	bsf	3,5	;RP0=1, select bank1
  9448     1019  1303               	bcf	3,6	;RP1=0, select bank1
  9449     101A  0362               	decf	_servo^(0+128),w
  9450     101B  1D03               	btfss	3,2
  9451     101C  281E               	goto	u504_21
  9452     101D  281F               	goto	u504_20
  9453     101E                     u504_21:
  9454     101E  2835               	goto	i1l3208
  9455     101F                     u504_20:
  9456     101F                     i1l3198:
  9457                           
  9458                           ;Progra_IRONMAN.c: 177:         if (PORTCbits.RC4 == 1)
  9459     101F  1283               	bcf	3,5	;RP0=0, select bank0
  9460     1020  1303               	bcf	3,6	;RP1=0, select bank0
  9461     1021  1E07               	btfss	7,4	;volatile
  9462     1022  2824               	goto	u505_21
  9463     1023  2825               	goto	u505_20
  9464     1024                     u505_21:
  9465     1024  282D               	goto	i1l3204
  9466     1025                     u505_20:
  9467     1025                     i1l3200:
  9468                           
  9469                           ;Progra_IRONMAN.c: 178:             {;Progra_IRONMAN.c: 179:                 TMR0 = ang1
      +                          ;
  9470     1025  1683               	bsf	3,5	;RP0=1, select bank3
  9471     1026  1703               	bsf	3,6	;RP1=1, select bank3
  9472     1027  0867               	movf	_ang1^(0+384),w
  9473     1028  1283               	bcf	3,5	;RP0=0, select bank0
  9474     1029  1303               	bcf	3,6	;RP1=0, select bank0
  9475     102A  0081               	movwf	1	;volatile
  9476     102B                     i1l3202:
  9477                           
  9478                           ;Progra_IRONMAN.c: 180:                 PORTCbits.RC4 = 0;
  9479     102B  1207               	bcf	7,4	;volatile
  9480                           
  9481                           ;Progra_IRONMAN.c: 181:             }
  9482     102C  2850               	goto	i1l185
  9483     102D                     i1l3204:
  9484                           
  9485                           ;Progra_IRONMAN.c: 183:             {;Progra_IRONMAN.c: 184:                 TMR0 = (255
      +                          -ang1);
  9486     102D  1683               	bsf	3,5	;RP0=1, select bank3
  9487     102E  1703               	bsf	3,6	;RP1=1, select bank3
  9488     102F  0967               	comf	_ang1^(0+384),w
  9489     1030  1283               	bcf	3,5	;RP0=0, select bank0
  9490     1031  1303               	bcf	3,6	;RP1=0, select bank0
  9491     1032  0081               	movwf	1	;volatile
  9492     1033                     i1l3206:
  9493                           
  9494                           ;Progra_IRONMAN.c: 185:                 PORTCbits.RC4 = 1;
  9495     1033  1607               	bsf	7,4	;volatile
  9496     1034  2850               	goto	i1l185
  9497     1035                     i1l3208:
  9498     1035  3002               	movlw	2
  9499     1036  0662               	xorwf	_servo^(0+128),w
  9500     1037  1D03               	btfss	3,2
  9501     1038  283A               	goto	u506_21
  9502     1039  283B               	goto	u506_20
  9503     103A                     u506_21:
  9504     103A  2850               	goto	i1l185
  9505     103B                     u506_20:
  9506     103B                     i1l3210:
  9507                           
  9508                           ;Progra_IRONMAN.c: 189:         if (PORTCbits.RC5 == 1)
  9509     103B  1283               	bcf	3,5	;RP0=0, select bank0
  9510     103C  1303               	bcf	3,6	;RP1=0, select bank0
  9511     103D  1E87               	btfss	7,5	;volatile
  9512     103E  2840               	goto	u507_21
  9513     103F  2841               	goto	u507_20
  9514     1040                     u507_21:
  9515     1040  2849               	goto	i1l3216
  9516     1041                     u507_20:
  9517     1041                     i1l3212:
  9518                           
  9519                           ;Progra_IRONMAN.c: 190:             {;Progra_IRONMAN.c: 191:                 TMR0 = ang2
      +                          ;
  9520     1041  1683               	bsf	3,5	;RP0=1, select bank3
  9521     1042  1703               	bsf	3,6	;RP1=1, select bank3
  9522     1043  0866               	movf	_ang2^(0+384),w
  9523     1044  1283               	bcf	3,5	;RP0=0, select bank0
  9524     1045  1303               	bcf	3,6	;RP1=0, select bank0
  9525     1046  0081               	movwf	1	;volatile
  9526     1047                     i1l3214:
  9527                           
  9528                           ;Progra_IRONMAN.c: 192:                 PORTCbits.RC5 = 0;
  9529     1047  1287               	bcf	7,5	;volatile
  9530                           
  9531                           ;Progra_IRONMAN.c: 193:             }
  9532     1048  2850               	goto	i1l185
  9533     1049                     i1l3216:
  9534                           
  9535                           ;Progra_IRONMAN.c: 195:             {;Progra_IRONMAN.c: 196:                 TMR0 = (255
      +                          -ang2);
  9536     1049  1683               	bsf	3,5	;RP0=1, select bank3
  9537     104A  1703               	bsf	3,6	;RP1=1, select bank3
  9538     104B  0966               	comf	_ang2^(0+384),w
  9539     104C  1283               	bcf	3,5	;RP0=0, select bank0
  9540     104D  1303               	bcf	3,6	;RP1=0, select bank0
  9541     104E  0081               	movwf	1	;volatile
  9542     104F                     i1l3218:
  9543                           
  9544                           ;Progra_IRONMAN.c: 197:                 PORTCbits.RC5 = 1;
  9545     104F  1687               	bsf	7,5	;volatile
  9546     1050                     i1l185:
  9547     1050  0008               	return
  9548     1051                     __end_of_pulse:
  9549                           
  9550                           	psect	text21
  9551     1F89                     __ptext21:	
  9552 ;; *************** function _TXT *****************
  9553 ;; Defined at:
  9554 ;;		line 426 in file "Progra_IRONMAN.c"
  9555 ;; Parameters:    Size  Location     Type
  9556 ;;		None
  9557 ;; Auto vars:     Size  Location     Type
  9558 ;;		None
  9559 ;; Return value:  Size  Location     Type
  9560 ;;                  1    wreg      void 
  9561 ;; Registers used:
  9562 ;;		wreg, fsr0l, fsr0h, status,2, status,0, pclath, cstack
  9563 ;; Tracked objects:
  9564 ;;		On entry : 0/0
  9565 ;;		On exit  : 0/0
  9566 ;;		Unchanged: 0/0
  9567 ;; Data sizes:     COMMON   BANK0   BANK1   BANK3   BANK2
  9568 ;;      Params:         0       0       0       0       0
  9569 ;;      Locals:         0       0       0       0       0
  9570 ;;      Temps:          8       0       0       0       0
  9571 ;;      Totals:         8       0       0       0       0
  9572 ;;Total ram usage:        8 bytes
  9573 ;; Hardware stack levels used: 1
  9574 ;; Hardware stack levels required when called: 1
  9575 ;; This function calls:
  9576 ;;		___wmul
  9577 ;; This function is called by:
  9578 ;;		_isr
  9579 ;; This function uses a non-reentrant model
  9580 ;;
  9581                           
  9582     1F89                     _TXT:	
  9583                           ;psect for function _TXT
  9584                           
  9585     1F89                     i1l3222:	
  9586                           ;incstack = 0
  9587                           ; Regs used in _TXT: [wreg-fsr0h+status,2+status,0+pclath+cstack]
  9588                           
  9589                           
  9590                           ;Progra_IRONMAN.c: 428:     if (modo == 2){
  9591     1F89  3002               	movlw	2
  9592     1F8A  1683               	bsf	3,5	;RP0=1, select bank1
  9593     1F8B  1303               	bcf	3,6	;RP1=0, select bank1
  9594     1F8C  065B               	xorwf	_modo^(0+128),w
  9595     1F8D  045C               	iorwf	(_modo+1)^(0+128),w
  9596     1F8E  1D03               	btfss	3,2
  9597     1F8F  2F91               	goto	u508_21
  9598     1F90  2F92               	goto	u508_20
  9599     1F91                     u508_21:
  9600     1F91  2FFF               	goto	i1l253
  9601     1F92                     u508_20:
  9602     1F92                     i1l249:
  9603     1F92  1283               	bcf	3,5	;RP0=0, select bank0
  9604     1F93  1E8C               	btfss	12,5	;volatile
  9605     1F94  2F96               	goto	u509_21
  9606     1F95  2F97               	goto	u509_20
  9607     1F96                     u509_21:
  9608     1F96  2F92               	goto	i1l249
  9609     1F97                     u509_20:
  9610     1F97                     i1l3226:
  9611                           
  9612                           ;Progra_IRONMAN.c: 431:         i++;
  9613     1F97  3001               	movlw	1
  9614     1F98  1683               	bsf	3,5	;RP0=1, select bank1
  9615     1F99  1303               	bcf	3,6	;RP1=0, select bank1
  9616     1F9A  07E0               	addwf	_i^(0+128),f
  9617     1F9B  1803               	skipnc
  9618     1F9C  0AE1               	incf	(_i+1)^(0+128),f
  9619     1F9D  3000               	movlw	0
  9620     1F9E  07E1               	addwf	(_i+1)^(0+128),f
  9621     1F9F                     i1l3228:
  9622                           
  9623                           ;Progra_IRONMAN.c: 436:         caracter[i] = RCREG;
  9624     1F9F  0860               	movf	_i^(0+128),w
  9625     1FA0  3ECD               	addlw	(low (_caracter| 0))& (0+255)
  9626     1FA1  0084               	movwf	4
  9627     1FA2  1283               	bcf	3,5	;RP0=0, select bank0
  9628     1FA3  1303               	bcf	3,6	;RP1=0, select bank0
  9629     1FA4  081A               	movf	26,w	;volatile
  9630     1FA5  1383               	bcf	3,7	;select IRP bank1
  9631     1FA6  0080               	movwf	0
  9632     1FA7                     i1l3230:
  9633                           
  9634                           ;Progra_IRONMAN.c: 437:         entero = caracter[i] - '0';
  9635     1FA7  1683               	bsf	3,5	;RP0=1, select bank1
  9636     1FA8  1303               	bcf	3,6	;RP1=0, select bank1
  9637     1FA9  0860               	movf	_i^(0+128),w
  9638     1FAA  3ECD               	addlw	(low (_caracter| 0))& (0+255)
  9639     1FAB  0084               	movwf	4
  9640     1FAC  0800               	movf	0,w
  9641     1FAD  3ED0               	addlw	208
  9642     1FAE  00C9               	movwf	_entero^(0+128)
  9643     1FAF  30FF               	movlw	255
  9644     1FB0  1803               	skipnc
  9645     1FB1  3000               	movlw	0
  9646     1FB2  00CA               	movwf	(_entero^(0+128)+1)
  9647     1FB3                     i1l3232:
  9648                           
  9649                           ;Progra_IRONMAN.c: 438:         numero[i] = entero;
  9650     1FB3  0860               	movf	_i^(0+128),w
  9651     1FB4  3ED1               	addlw	(low (_numero| 0))& (0+255)
  9652     1FB5  0084               	movwf	4
  9653     1FB6  0849               	movf	_entero^(0+128),w
  9654     1FB7  0080               	movwf	0
  9655     1FB8                     i1l3234:
  9656                           
  9657                           ;Progra_IRONMAN.c: 446:         if (i == 2){
  9658     1FB8  3002               	movlw	2
  9659     1FB9  0660               	xorwf	_i^(0+128),w
  9660     1FBA  0461               	iorwf	(_i+1)^(0+128),w
  9661     1FBB  1D03               	btfss	3,2
  9662     1FBC  2FBE               	goto	u510_21
  9663     1FBD  2FBF               	goto	u510_20
  9664     1FBE                     u510_21:
  9665     1FBE  2FFF               	goto	i1l253
  9666     1FBF                     u510_20:
  9667     1FBF                     i1l3236:
  9668                           
  9669                           ;Progra_IRONMAN.c: 447:             i = -1;
  9670     1FBF  30FF               	movlw	255
  9671     1FC0  00E0               	movwf	_i^(0+128)
  9672     1FC1  30FF               	movlw	255
  9673     1FC2  00E1               	movwf	(_i^(0+128)+1)
  9674                           
  9675                           ;Progra_IRONMAN.c: 448:             flag = 1;
  9676     1FC3  3001               	movlw	1
  9677     1FC4  00CB               	movwf	_flag^(0+128)
  9678     1FC5  3000               	movlw	0
  9679     1FC6  00CC               	movwf	(_flag^(0+128)+1)
  9680     1FC7                     i1l3238:
  9681                           
  9682                           ;Progra_IRONMAN.c: 449:             valor_entero = numero[0]*100 + numero[1]*10 + numero
      +                          [2]*1;
  9683     1FC7  0851               	movf	_numero^(0+128),w
  9684     1FC8  00F6               	movwf	??_TXT
  9685     1FC9  01F7               	clrf	??_TXT+1
  9686     1FCA  0876               	movf	??_TXT,w
  9687     1FCB  00F0               	movwf	___wmul@multiplier
  9688     1FCC  0877               	movf	??_TXT+1,w
  9689     1FCD  00F1               	movwf	___wmul@multiplier+1
  9690     1FCE  3064               	movlw	100
  9691     1FCF  00F2               	movwf	___wmul@multiplicand
  9692     1FD0  3000               	movlw	0
  9693     1FD1  00F3               	movwf	___wmul@multiplicand+1
  9694     1FD2  160A  158A  2681  160A  158A  	fcall	___wmul
  9695     1FD7  0870               	movf	?___wmul,w
  9696     1FD8  00F8               	movwf	??_TXT+2
  9697     1FD9  0871               	movf	?___wmul+1,w
  9698     1FDA  00F9               	movwf	??_TXT+3
  9699     1FDB  1683               	bsf	3,5	;RP0=1, select bank1
  9700     1FDC  1303               	bcf	3,6	;RP1=0, select bank1
  9701     1FDD  0852               	movf	(_numero^(0+128)+1),w
  9702     1FDE  00FA               	movwf	??_TXT+4
  9703     1FDF  01FB               	clrf	??_TXT+5
  9704     1FE0  087A               	movf	??_TXT+4,w
  9705     1FE1  00F0               	movwf	___wmul@multiplier
  9706     1FE2  087B               	movf	??_TXT+5,w
  9707     1FE3  00F1               	movwf	___wmul@multiplier+1
  9708     1FE4  300A               	movlw	10
  9709     1FE5  00F2               	movwf	___wmul@multiplicand
  9710     1FE6  3000               	movlw	0
  9711     1FE7  00F3               	movwf	___wmul@multiplicand+1
  9712     1FE8  160A  158A  2681  160A  158A  	fcall	___wmul
  9713     1FED  0870               	movf	?___wmul,w
  9714     1FEE  0778               	addwf	??_TXT+2,w
  9715     1FEF  00FC               	movwf	??_TXT+6
  9716     1FF0  0871               	movf	?___wmul+1,w
  9717     1FF1  1803               	skipnc
  9718     1FF2  0A71               	incf	?___wmul+1,w
  9719     1FF3  0779               	addwf	??_TXT+3,w
  9720     1FF4  00FD               	movwf	??_TXT+7
  9721     1FF5  1683               	bsf	3,5	;RP0=1, select bank1
  9722     1FF6  1303               	bcf	3,6	;RP1=0, select bank1
  9723     1FF7  0853               	movf	(_numero^(0+128)+2),w
  9724     1FF8  077C               	addwf	??_TXT+6,w
  9725     1FF9  00CF               	movwf	_valor_entero^(0+128)
  9726     1FFA  3000               	movlw	0
  9727     1FFB  1803               	skipnc
  9728     1FFC  3001               	movlw	1
  9729     1FFD  077D               	addwf	??_TXT+7,w
  9730     1FFE  00D0               	movwf	(_valor_entero+1)^(0+128)
  9731     1FFF                     i1l253:
  9732     1FFF  0008               	return
  9733     2000                     __end_of_TXT:
  9734                           
  9735                           	psect	text22
  9736     1E81                     __ptext22:	
  9737 ;; *************** function ___wmul *****************
  9738 ;; Defined at:
  9739 ;;		line 15 in file "C:\Program Files\Microchip\xc8\v2.40\pic\sources\c90\common\Umul16.c"
  9740 ;; Parameters:    Size  Location     Type
  9741 ;;  multiplier      2    0[COMMON] unsigned int 
  9742 ;;  multiplicand    2    2[COMMON] unsigned int 
  9743 ;; Auto vars:     Size  Location     Type
  9744 ;;  product         2    4[COMMON] unsigned int 
  9745 ;; Return value:  Size  Location     Type
  9746 ;;                  2    0[COMMON] unsigned int 
  9747 ;; Registers used:
  9748 ;;		wreg, status,2, status,0
  9749 ;; Tracked objects:
  9750 ;;		On entry : 0/0
  9751 ;;		On exit  : 0/0
  9752 ;;		Unchanged: 0/0
  9753 ;; Data sizes:     COMMON   BANK0   BANK1   BANK3   BANK2
  9754 ;;      Params:         4       0       0       0       0
  9755 ;;      Locals:         2       0       0       0       0
  9756 ;;      Temps:          0       0       0       0       0
  9757 ;;      Totals:         6       0       0       0       0
  9758 ;;Total ram usage:        6 bytes
  9759 ;; Hardware stack levels used: 1
  9760 ;; This function calls:
  9761 ;;		Nothing
  9762 ;; This function is called by:
  9763 ;;		_TXT
  9764 ;; This function uses a non-reentrant model
  9765 ;;
  9766                           
  9767     1E81                     ___wmul:	
  9768                           ;psect for function ___wmul
  9769                           
  9770     1E81                     i1l2922:	
  9771                           ;incstack = 0
  9772                           ; Regs used in ___wmul: [wreg+status,2+status,0]
  9773                           
  9774     1E81  01F4               	clrf	___wmul@product
  9775     1E82  01F5               	clrf	___wmul@product+1
  9776     1E83                     i1l2924:
  9777     1E83  1C70               	btfss	___wmul@multiplier,0
  9778     1E84  2E86               	goto	u438_21
  9779     1E85  2E87               	goto	u438_20
  9780     1E86                     u438_21:
  9781     1E86  2E8D               	goto	i1l372
  9782     1E87                     u438_20:
  9783     1E87                     i1l2926:
  9784     1E87  0872               	movf	___wmul@multiplicand,w
  9785     1E88  07F4               	addwf	___wmul@product,f
  9786     1E89  1803               	skipnc
  9787     1E8A  0AF5               	incf	___wmul@product+1,f
  9788     1E8B  0873               	movf	___wmul@multiplicand+1,w
  9789     1E8C  07F5               	addwf	___wmul@product+1,f
  9790     1E8D                     i1l372:
  9791     1E8D  3001               	movlw	1
  9792     1E8E                     u439_25:
  9793     1E8E  1003               	clrc
  9794     1E8F  0DF2               	rlf	___wmul@multiplicand,f
  9795     1E90  0DF3               	rlf	___wmul@multiplicand+1,f
  9796     1E91  3EFF               	addlw	-1
  9797     1E92  1D03               	skipz
  9798     1E93  2E8E               	goto	u439_25
  9799     1E94                     i1l2928:
  9800     1E94  3001               	movlw	1
  9801     1E95                     u440_25:
  9802     1E95  1003               	clrc
  9803     1E96  0CF1               	rrf	___wmul@multiplier+1,f
  9804     1E97  0CF0               	rrf	___wmul@multiplier,f
  9805     1E98  3EFF               	addlw	-1
  9806     1E99  1D03               	skipz
  9807     1E9A  2E95               	goto	u440_25
  9808     1E9B                     i1l2930:
  9809     1E9B  0870               	movf	___wmul@multiplier,w
  9810     1E9C  0471               	iorwf	___wmul@multiplier+1,w
  9811     1E9D  1D03               	btfss	3,2
  9812     1E9E  2EA0               	goto	u441_21
  9813     1E9F  2EA1               	goto	u441_20
  9814     1EA0                     u441_21:
  9815     1EA0  2E83               	goto	i1l2924
  9816     1EA1                     u441_20:
  9817     1EA1                     i1l2932:
  9818     1EA1  0875               	movf	___wmul@product+1,w
  9819     1EA2  00F1               	movwf	?___wmul+1
  9820     1EA3  0874               	movf	___wmul@product,w
  9821     1EA4  00F0               	movwf	?___wmul
  9822     1EA5                     i1l374:
  9823     1EA5  0008               	return
  9824     1EA6                     __end_of___wmul:
  9825     007E                     btemp	set	126	;btemp
  9826     007E                     wtemp0	set	126
  9827                           
  9828                           	psect	idloc
  9829                           
  9830                           ;Config register IDLOC0 @ 0x2000
  9831                           ;	unspecified, using default values
  9832     2000                     	org	8192
  9833     2000  3FFF               	dw	16383
  9834                           
  9835                           ;Config register IDLOC1 @ 0x2001
  9836                           ;	unspecified, using default values
  9837     2001                     	org	8193
  9838     2001  3FFF               	dw	16383
  9839                           
  9840                           ;Config register IDLOC2 @ 0x2002
  9841                           ;	unspecified, using default values
  9842     2002                     	org	8194
  9843     2002  3FFF               	dw	16383
  9844                           
  9845                           ;Config register IDLOC3 @ 0x2003
  9846                           ;	unspecified, using default values
  9847     2003                     	org	8195
  9848     2003  3FFF               	dw	16383
  9849                           
  9850                           	psect	config
  9851                           
  9852                           ;Config register CONFIG1 @ 0x2007
  9853                           ;	Oscillator Selection bits
  9854                           ;	FOSC = INTRC_NOCLKOUT, INTOSCIO oscillator: I/O function on RA6/OSC2/CLKOUT pin, I/O f
      +                          unction on RA7/OSC1/CLKIN
  9855                           ;	Watchdog Timer Enable bit
  9856                           ;	WDTE = OFF, WDT disabled and can be enabled by SWDTEN bit of the WDTCON register
  9857                           ;	Power-up Timer Enable bit
  9858                           ;	PWRTE = OFF, PWRT disabled
  9859                           ;	RE3/MCLR pin function select bit
  9860                           ;	MCLRE = OFF, RE3/MCLR pin function is digital input, MCLR internally tied to VDD
  9861                           ;	Code Protection bit
  9862                           ;	CP = OFF, Program memory code protection is disabled
  9863                           ;	Data Code Protection bit
  9864                           ;	CPD = OFF, Data memory code protection is disabled
  9865                           ;	Brown Out Reset Selection bits
  9866                           ;	BOREN = OFF, BOR disabled
  9867                           ;	Internal External Switchover bit
  9868                           ;	IESO = OFF, Internal/External Switchover mode is disabled
  9869                           ;	Fail-Safe Clock Monitor Enabled bit
  9870                           ;	FCMEN = OFF, Fail-Safe Clock Monitor is disabled
  9871                           ;	Low Voltage Programming Enable bit
  9872                           ;	LVP = OFF, RB3 pin has digital I/O, HV on MCLR must be used for programming
  9873                           ;	In-Circuit Debugger Mode bit
  9874                           ;	DEBUG = 0x1, unprogramme  9875     2007                     	org	8199
  9876     2007  20D4               	dw	8404
  9877                           
  9878                           ;Config register CONFIG2 @ 0x2008
  9879                           ;	Brown-out Reset Selection bit
  9880                           ;	BOR4V = BOR40V, Brown-out Reset set to 4.0V
  9881                           ;	Flash Program Memory Self Write Enable bits
  9882                           ;	WRT = OFF, Write protection off
  9883     2008                     	org	8200
  9884     2008  3FFF               	dw	16383

Data Sizes:
    Strings     0
    Constant    0
    Data        3
    BSS         29
    Persistent  2
    Stack       0

Auto Spaces:
    Space          Size  Autos    Used
    COMMON           14     14      14
    BANK0            80     80      80
    BANK1            80     37      67
    BANK3            96     86      90
    BANK2            96     12      12

Pointer List with Targets:

    None.

Critical Paths under _main in COMMON

    None.

Critical Paths under _isr in COMMON

    _isr->_TXT
    _isr->___xxtofl
    _servos->___xxtofl
    i1___fltol->___xxtofl
    i1___flmul->___xxtofl
    i1___fldiv->___xxtofl
    ___fladd->___xxtofl
    _TXT->___wmul

Critical Paths under _main in BANK0

    None.

Critical Paths under _isr in BANK0

    _isr->i1___fltol
    _servos->i1___fltol
    i1_PWM_duty->i1___fltol
    i1___fltol->___fladd
    i1___flmul->i1___fldiv
    ___fladd->i1___flmul

Critical Paths under _main in BANK1

    None.

Critical Paths under _isr in BANK1

    _isr->_servos
    _servos->i1_PWM_duty
    i1_PWM_duty->i1___fltol

Critical Paths under _main in BANK3

    _main->_setup
    _setup->_PWM_duty
    _PWM_duty->___fltol
    ___flmul->__Umul8_16
    _PWM_config->___fltol
    ___fltol->___fldiv
    ___fldiv->___flmul

Critical Paths under _isr in BANK3

    None.

Critical Paths under _main in BANK2

    None.

Critical Paths under _isr in BANK2

    None.

Call Graph Tables:

 ---------------------------------------------------------------------------------
 (Depth) Function   	        Calls       Base Space   Used Autos Params    Refs
 ---------------------------------------------------------------------------------
 (0) _main                                                14    14      0   13537
                                             84 BANK3      2     2      0
                                              0 BANK2     12    12      0
                           _initUART
                              _setup
 ---------------------------------------------------------------------------------
 (1) _setup                                                1     1      0   13073
                                             83 BANK3      1     1      0
                         _PWM_config
                           _PWM_duty
 ---------------------------------------------------------------------------------
 (2) _PWM_duty                                            12     8      4    9114
                                             71 BANK3     12     8      4
                            ___fldiv
                            ___flmul
                            ___fltol
 ---------------------------------------------------------------------------------
 (3) ___flmul                                             26    18      8    4743
                                              9 BANK3     26    18      8
                          __Umul8_16
 ---------------------------------------------------------------------------------
 (4) __Umul8_16                                            9     7      2     980
                                              0 BANK3      9     7      2
 ---------------------------------------------------------------------------------
 (2) _PWM_config                                           5     1      4    3959
                                             71 BANK3      5     1      4
                            ___fldiv
                            ___fltol
 ---------------------------------------------------------------------------------
 (3) ___fltol                                             10     6      4     992
                                             61 BANK3     10     6      4
                            ___fldiv (ARG)
                            ___flmul (ARG)
 ---------------------------------------------------------------------------------
 (3) ___fldiv                                             26    18      8    2663
                                             35 BANK3     26    18      8
                            ___flmul (ARG)
 ---------------------------------------------------------------------------------
 (1) _initUART                                             0     0      0       0
 ---------------------------------------------------------------------------------
 Estimated maximum stack depth 4
 ---------------------------------------------------------------------------------
 (Depth) Function   	        Calls       Base Space   Used Autos Params    Refs
 ---------------------------------------------------------------------------------
 (5) _isr                                                 12    12      0   26791
                                             25 BANK1     12    12      0
                                _TXT
                            ___fladd
                           ___xxtofl
                              _pulse
                        _read_EEPROM
                             _servos
                       _write_EEPROM
                         i1_PWM_duty
                          i1___fldiv
                          i1___flmul
                          i1___fltol
 ---------------------------------------------------------------------------------
 (6) _write_EEPROM                                         3     2      1     143
                                              0 COMMON     3     2      1
 ---------------------------------------------------------------------------------
 (6) _servos                                              11     9      2   13208
                                             14 BANK1     11     9      2
                            ___fladd
                           ___xxtofl
                         i1_PWM_duty
                          i1___fldiv
                          i1___flmul
                          i1___fltol
 ---------------------------------------------------------------------------------
 (6) i1_PWM_duty                                          12     8      4    4713
                                              2 BANK1     12     8      4
                          i1___fldiv
                          i1___flmul
                          i1___fltol
 ---------------------------------------------------------------------------------
 (6) i1___fltol                                           10     6      4     463
                                             72 BANK0      8     4      4
                                              0 BANK1      2     2      0
                            ___fladd (ARG)
                           ___xxtofl (ARG)
                          i1___fldiv (ARG)
                          i1___flmul (ARG)
 ---------------------------------------------------------------------------------
 (6) i1___flmul                                           26    18      8    2491
                                             26 BANK0     26    18      8
                           ___xxtofl (ARG)
                        i1__Umul8_16
                          i1___fldiv (ARG)
 ---------------------------------------------------------------------------------
 (7) i1__Umul8_16                                          9     7      2     349
                                              0 COMMON     9     7      2
 ---------------------------------------------------------------------------------
 (6) i1___fldiv                                           26    18      8    1433
                                              0 BANK0     26    18      8
                           ___xxtofl (ARG)
                        i1__Umul8_16 (ARG)
 ---------------------------------------------------------------------------------
 (7) ___xxtofl                                            14    10      4    1158
                                              0 COMMON    14    10      4
 ---------------------------------------------------------------------------------
 (7) ___fladd                                             20    12      8    2718
                                             52 BANK0     20    12      8
                           ___xxtofl (ARG)
                          i1___flmul (ARG)
 ---------------------------------------------------------------------------------
 (6) _read_EEPROM                                          1     1      0      22
                                              0 COMMON     1     1      0
 ---------------------------------------------------------------------------------
 (6) _pulse                                                0     0      0       0
 ---------------------------------------------------------------------------------
 (6) _TXT                                                  8     8      0     396
                                              6 COMMON     8     8      0
                             ___wmul
 ---------------------------------------------------------------------------------
 (7) ___wmul                                               6     2      4     396
                                              0 COMMON     6     2      4
 ---------------------------------------------------------------------------------
 Estimated maximum stack depth 7
 ---------------------------------------------------------------------------------

 Call Graph Graphs:

 _main (ROOT)
   _initUART
   _setup
     _PWM_config
       ___fldiv
         ___flmul (ARG)
           __Umul8_16
       ___fltol
         ___fldiv (ARG)
         ___flmul (ARG)
     _PWM_duty
       ___fldiv
       ___flmul
       ___fltol

 _isr (ROOT)
   _TXT
     ___wmul
   ___fladd
     ___xxtofl (ARG)
     i1___flmul (ARG)
       ___xxtofl (ARG)
       i1__Umul8_16 (ARG)
       i1___fldiv (ARG)
         ___xxtofl (ARG)
         i1__Umul8_16 (ARG)
   ___xxtofl
   _pulse
   _read_EEPROM
   _servos
     ___fladd
     ___xxtofl
     i1_PWM_duty
       i1___fldiv
       i1___flmul
       i1___fltol
         ___fladd (ARG)
         ___xxtofl (ARG)
         i1___fldiv (ARG)
         i1___flmul (ARG)
     i1___fldiv
     i1___flmul
     i1___fltol
   _write_EEPROM
   i1_PWM_duty
   i1___fldiv
   i1___flmul
   i1___fltol

 Address spaces:
Name               Size   Autos  Total    Cost      Usage
BANK3               60     56      5A       9       93.8%
BITBANK3            60      0       0       8        0.0%
SFR3                 0      0       0       4        0.0%
BITSFR3              0      0       0       4        0.0%
BANK2               60      C       C      11       12.5%
BITBANK2            60      0       0      10        0.0%
SFR2                 0      0       0       5        0.0%
BITSFR2              0      0       0       5        0.0%
BANK1               50     25      43       7       83.8%
BITBANK1            50      0       0       6        0.0%
SFR1                 0      0       0       2        0.0%
BITSFR1              0      0       0       2        0.0%
BANK0               50     50      50       5      100.0%
BITBANK0            50      0       0       4        0.0%
SFR0                 0      0       0       1        0.0%
BITSFR0              0      0       0       1        0.0%
COMMON               E      E       E       1      100.0%
BITCOMMON            E      0       0       0        0.0%
CODE                 0      0       0       0        0.0%
DATA                 0      0     107      12        0.0%
ABS                  0      0     107       3        0.0%
NULL                 0      0       0       0        0.0%
STACK                0      0       0       2        0.0%
EEDATA             100      0       0       0        0.0%


Microchip Technology PIC Macro Assembler V2.40 build 20220703182018 
Symbol Table                                                                                   Tue May 30 16:35:10 2023

            ___fldiv@aexp 01CC              ___fldiv@bexp 01CB                         _i 00E0  
            ___fldiv@sign 01C4               i1___fldiv@a 0020               i1___fldiv@b 0024  
                      _RD 0C60                        _WR 0C61               i1___flmul@a 003E  
             i1___flmul@b 003A                        fsr 0004       ___wmul@multiplicand 0072  
     __Umul8_16@word_mpld 0196                       l210 13B6                       l202 1360  
                     l230 11E7                       l214 13E3                       l206 138D  
                     l233 1ECA                       l219 144D                       l280 1F88  
                     l275 1F75                       l277 1F79                       l278 1F85  
                     l286 12ED                       l721 0918                       l723 0A94  
                     l565 10B3                       l558 10C8                       l743 0A7C  
                     l568 10C8                       l745 0A8A                       l737 0A0A  
                     l761 037E                       l780 1F08                       l773 0372  
                     l782 1F1A                       l767 02EE                       _GIE 005F  
                     _PR2 0092                       _TXT 1F89                _PWM_config 1F1B  
                     _isr 0CED                       fsr0 0004                       indf 0000  
            i1___fltol@f1 0068              ___flmul@aexp 01A7              ___flmul@bexp 01AC  
            ___flmul@sign 01A6              ___flmul@temp 01B1              ___flmul@prod 01AD  
           i1___fldiv@grs 0034                      ?_TXT 0070             i1___fldiv@rem 002D  
            ___fltol@exp1 01D6                      l4000 1EBE                      l4002 1EC1  
                    l4010 12FE                      l4004 1EC4                      l4020 1315  
                    l4012 1303                      l4006 1EC7                      l4030 1331  
                    l4022 1319                      l4014 1308                      l4040 135A  
                    l4032 1333                      l4024 1321                      l4016 130B  
                    l4008 12EE                      l4050 13CD                      l4042 1377  
                    l4034 1339                      l4026 1322                      l4018 1313  
                    l4060 13FF                      l4052 13DD                      l4044 1387  
                    l4036 133B                      l4028 1328                      l4070 1434  
                    l4062 140C                      l4054 13E7                      l4046 13A0  
                    l4038 134A                      l3600 08FB                      l4072 143B  
                    l4064 1413                      l4056 13ED                      l4048 13B0  
                    l3602 0900                      l3610 0910                      l3530 1F11  
                    l3522 1EF5                      l4074 1448                      l4066 1420  
                    l4058 13F8                      l3700 0A73                      l3612 0920  
                    l3620 0939                      l3604 0905                      l3532 1F16  
                    l3524 1EF7                      l4068 1427                      l4076 144D  
                    l3702 0A7B                      l3630 0961                      l3622 093E  
                    l3614 092C                      l3606 090D                      l3550 1083  
                    l3542 1065                      l3526 1EFE                      l4078 1455  
                    l3704 0A80                      l3640 098A                      l3632 0969  
                    l3616 0930                      l3608 090E                      l3552 1087  
                    l3560 10A1                      l3544 1078                      l3536 1051  
                    l3528 1F02                      l3800 02B1                      l3720 0047  
                    l3706 0A84                      l3650 09AB                      l3642 098E  
                    l3634 0971                      l3626 0947                      l3570 10BD  
                    l3546 1079                      l3538 105C                      l3802 02BA  
                    l3810 02CE                      l3730 005C                      l3722 0048  
                    l3714 003A                      l3708 0A86                      l3660 09CD  
                    l3652 09B9                      l3644 098F                      l3636 0973  
                    l3628 0959                      l3580 08D0                      l3572 08C2  
                    l3548 1081                      l3900 1F6E                      l3812 02D2  
                    l3804 02BE                      l3740 0072                      l3732 0064  
                    l3724 004D                      l3716 003F                      l3662 09D6  
                    l3670 09EA                      l3638 0978                      l3646 0998  
                    l3654 09BD                      l3582 08D5                      l3590 08E5  
                    l3574 08C7                      l3566 10A8                      l3558 108F  
                    l3910 1F81                      l3902 1F6F                      l3830 0323  
                    l3822 02F3                      l3814 02D3                      l3806 02BF  
                    l3750 008E                      l3742 0077                      l3734 0069  
                    l3726 0052                      l3718 0043                      l3672 09EE  
                    l3664 09DA                      l3656 09C3                      l3648 09AA  
                    l3592 08ED                      l3584 08DA                      l3576 08CB  
                    l3568 10B8                      l3904 1F72                      l3840 035A  
                    l3824 02F8                      l3832 0329                      l3816 02D7  
                    l3808 02C8                      l3760 00AF                      l3752 0093  
                    l3744 007C                      l3736 006D                      l3728 005A  
                    l3920 116E                      l3912 1157                      l3690 0A3F  
                    l3682 0A0F                      l3674 09EF                      l3666 09DB  
                    l3658 09CB                      l3594 08F2                      l3586 08E2  
                    l3578 08CF                      l3906 1F74                      l3850 0376  
                    l3842 035C                      l3834 0336                      l3826 0306  
                    l3818 02EB                      l3770 0139                      l3762 00BC  
                    l3754 0098                      l3746 0084                      l3738 0071  
                    l3930 1179                      l3922 1171                      l3914 115E  
                    l3684 0A14                      l3692 0A45                      l3676 09F3  
                    l3668 09E4                      l3596 08F6                      l3588 08E3  
                    l3908 1F7A                      l3844 0368                      l3836 0341  
                    l3828 030A                      l3780 0197                      l3772 0155  
                    l3764 00D7                      l3748 0086                      l3860 1242  
                    l3940 1180                      l3932 117A                      l3924 1173  
                    l3916 115F                      l3694 0A52                      l3686 0A22  
                    l3678 0A07                      l3598 08FA                      l3846 036C  
                    l3838 0350                      l3790 0221                      l3782 01B4  
                    l3774 015E                      l3766 00F3                      l3758 00A1  
                    l3870 12C3                      l3862 1253                      l3854 11EB  
                    l3950 1185                      l3942 1181                      l3934 117B  
                    l3926 1177                      l3918 1163                      l3696 0A60  
                    l3688 0A26                      l3880 1F4F                      l3848 036D  
                    l3792 024C                      l3784 01CB                      l3776 016C  
                    l3768 011D                      l3872 12D4                      l3856 11F0  
                    l3864 126D                      l3960 118F                      l3952 1186  
                    l3944 1182                      l3936 117C                      l3928 1178  
                    l3698 0A6F                      l3882 1F52                      l3890 1F5F  
                    l3794 0272                      l3786 01E8                      l3778 0189  
                    l3866 1273                      l3858 1231                      l3970 119F  
                    l3962 1192                      l3954 1189                      l3946 1183  
                    l3938 117D                      l3892 1F65                      l3884 1F5A  
                    l3876 1F1E                      l3796 029A                      l3788 0213  
                    l3868 12B4                      l3972 11A7                      l3964 1193  
                    l3956 118A                      l3948 1184                      l3990 1EAF  
                    l3982 1EA6                      l3894 1F68                      l3886 1F5C  
                    l3878 1F48                      l3798 02A3                      l3974 11B7  
                    l3966 1199                      l3958 118D                      l3992 1EB2  
                    l3984 1EAA                      l3896 1F6C                      l3888 1F5D  
                    l3976 11C7                      l3968 119C                      l3994 1EB5  
                    l3986 1EAB                      l3898 1F6D                      l3978 11D7  
                    l3996 1EB8                      l3988 1EAC                      ?_isr 0070  
                    l3998 1EBB                      _BRGH 04C2                      _CREN 00C4  
                    _IOCB 0096                      u6001 0147                      u6002 014E  
                    u6003 0155                      u6100 0280                      u6021 017B  
                    u6022 0182                      u6111 028C                      u6031 01A6  
                    u6023 0189                      u6015 0157                      u6200 02F8  
                    u6112 0293                      u6032 01AD                      u6201 02F7  
                    u6113 029A                      u6105 027B                      u6033 01B4  
                    u6210 030A                      u6211 0309                      u6051 01DA  
                    u5500 105C                      u6300 1F79                      u6220 0319  
                    u6140 02BE                      u6052 01E1                      u5501 105B  
                    u6301 1F78                      u6141 02BD                      u6125 029C  
                    u6061 0205                      u6053 01E8                      u6045 01B6  
                    u5510 1073                      u6310 1F81                      u6230 0336  
                    u6062 020C                      u6311 1F80                      u6231 0335  
                    u6135 02B3                      u6071 0230                      u6063 0213  
                    u5600 08CF                      u5520 1087                      u6240 0350  
                    u6160 02D2                      u6080 0258                      u6072 0237  
                    u6400 13ED                      u6320 1313                      u5601 08CE  
                    u5521 1086                      u6241 034F                      u6225 0314  
                    u6161 02D1                      u6073 023E                      u6401 13EC  
                    u6321 1312                      u5610 08D5                      u5530 108E  
                    u6250 036C                      u6170 02D7                      u6410 13F8  
                    u6330 1321                      u5611 08D4                      u5531 108D  
                    u5515 106E                      u6251 036B                      u6235 0332  
                    u6171 02D6                      u6155 02C1                      u6091 0264  
                    u6411 13F7                      u6331 1320                      u5620 08DA  
                    u6180 02EB                      u6092 026B                      u6260 11F0  
                    u6420 140C                      u6340 1331                      u5621 08D9  
                    u6245 034C                      u6181 02EA                      u6093 0272  
                    u6085 0253                      u6261 11EF                      u6421 140B  
                    u6341 1330                      u5710 098E                      u5630 08FA  
                    u5550 10A0                      u5470 1F02                      u6190 02F2  
                    u6270 1273                      u6430 1420                      u6350 1339  
                    u5711 098D                      u5631 08F9                      u5551 109F  
                    u5471 1F01                      u6191 02F1                      u6271 1272  
                    u6431 141F                      u6351 1338                      u5800 09F3  
                    u5640 0900                      u5560 10A7                      u6280 1F4F  
                    u6440 1434                      u6360 134A                      u5801 09F2  
                    u5705 0983                      u5641 08FF                      u5561 10A6  
                    u5545 1090                      u6281 1F4E                      u6441 1433  
                    u6361 1349                      u5810 0A07                      u5730 09AA  
                    u5650 0905                      u6290 1F65                      u5490 1F16  
                    u6450 1448                      u6370 1377                      u5811 0A06  
                    u5731 09A9                      u5651 0904                      u6291 1F64  
                    u5491 1F15                      u6451 1447                      u6371 1376  
                    u5820 0A0E                      u5740 09C3                      u5660 0920  
                    u5580 10B8                      u5900 004D                      u6380 13A0  
                    u5821 0A0D                      u5741 09C2                      u5725 0991  
                    u5661 091F                      u5581 10B7                      u5485 1F09  
                    u5901 004C                      u6381 139F                      u6365 1346  
                    u5830 0A14                      u5750 09CB                      u5670 093E  
                    u5590 10BD                      u5910 0052                      u6390 13CD  
                    u5831 0A13                      u5751 09CA                      u5735 09A6  
                    u5671 093D                      u5591 10BC                      u5575 10AA  
                    u5911 0051                      u6391 13CC                      u6375 1373  
                    u5840 0A26                      u5680 0978                      u5920 0071  
                    u5841 0A25                      u5681 0977                      u5921 0070  
                    u6385 139C                      u5850 0A35                      u5770 09DA  
                    u5930 0077                      u5771 09D9                      u5931 0076  
                    u6467 1451                      u6395 13C9                      u5860 0A52  
                    u5940 007C                      u5861 0A51                      u5765 09CF  
                    u5941 007B                      u6477 11A3                      u5870 0A6F  
                    u5790 09EE                      u5950 0093                      u5871 0A6E  
                    u5855 0A30                      u5791 09ED                      u5695 097A  
                    u5951 0092                      u5880 0A84                      u5960 0098  
                    u5881 0A83                      u5865 0A4E                      u5785 09DD  
                    u5961 0097                      u5890 0047                      u5875 0A6B  
                    u5971 00E5                      u5891 0046                      u5972 00EC  
                    u5981 0101                      u5973 00F3                      u5982 0108  
                    u5991 012B                      u5983 010F                      u5992 0132  
                    u5993 0139                      _TMR0 0001                      _SPEN 00C7  
                    _TXEN 04C5                      _TXIF 0064                      _SYNC 04C4  
                    _ang1 01E7                      _ang2 01E6                      _data 00DE  
                    _flag 00CB                      _main 12EE                      _modo 00DB  
           i1___flmul@grs 0048                      btemp 007E                      start 0012  
         ___fldiv@new_exp 01C5              ?_read_EEPROM 0070                     ??_TXT 0076  
                   ??_isr 00B9            i1___fldiv@aexp 0039            i1___fldiv@bexp 0038  
          i1___fldiv@sign 0031               ?i1_PWM_duty 00A2             ___fltol@sign1 01D5  
         __end_of___fladd 0CED                     ?_main 0070           __end_of___fldiv 0A95  
                   _EEADR 010D                     _EEDAT 010C                     _BRG16 0C3B  
         __end_of___flmul 037F           __end_of___fltol 10C9                     i1l150 0D17  
                   i1l160 0D68                     i1l152 0D21                     i1l242 1E60  
                   i1l154 0D30                     i1l236 1002                     i1l156 0D39  
                   i1l253 1FFF                     i1l245 1E80                     i1l157 0D73  
                   i1l166 0FD2                     i1l158 0D48                     i1l239 1017  
                   i1l175 0FF3                     i1l249 1F92                     i1l185 1050  
                   i1l372 1E8D                     i1l189 162C                     i1l374 1EA5  
                   i1l286 07F1                     i1l721 1683                     i1l707 0CE2  
                   i1l811 086F                     i1l723 17FF                     i1l708 0CEC  
                   i1l805 082C                     i1l565 113F                     i1l558 1156  
                   i1l671 0B4C                     i1l807 08C1                     i1l743 17E7  
                   i1l568 1156                     i1l665 0AF0                     i1l745 17F5  
                   i1l737 1775                     i1l761 06C3                     i1l690 0C60  
                   i1l818 088B                     i1l819 0897                     i1l780 1EDF  
                   i1l669 0B73                     i1l773 06B7                     i1l686 0C3C  
                   i1l678 0CEC                     i1l782 1EF1                     i1l767 0633  
                   i1l696 0C82                     i1l699 0CC0                     _RCREG 001A  
                   _SPBRG 0099                     _PORTA 0005                     _PORTB 0006  
                   _PORTC 0007                     _PORTD 0008                     _PORTE 0009  
                   _TRISA 0085                     _TRISB 0086                     _TRISD 0088  
                   _TRISE 0089            i1___flmul@aexp 004C            i1___flmul@bexp 004D  
          i1___flmul@sign 0047            i1___flmul@temp 0052            i1___flmul@prod 004E  
                   _servo 00E2                     _setup 1157                     _pulse 1018  
                   pclath 000A            i1___fltol@exp1 00A1          __end_of_PWM_duty 12EE  
                   status 0003                     wtemp0 007E           __initialization 0015  
            __end_of_main 145C                    ??_main 01E4               ?_PWM_config 01D7  
            _write_EEPROM 1E5F                    _ADRESH 001E                    _CCPR1L 0015  
                  _CCPR2L 001B                    _EECON2 018D                    ?_setup 0070  
                  ?_pulse 0070                    _ANSELH 0189                    i1l3000 0B0E  
                  i1l3010 0B18                    i1l3002 0B10                    i1l3020 0B50  
                  i1l3012 0B1A                    i1l3004 0B12                    i1l2220 1ED9  
                  i1l3110 0CBC                    i1l3102 0C87                    i1l3030 0B67  
                  i1l3022 0B57                    i1l3006 0B14                    i1l3014 0B1C  
                  i1l2222 1EE8                    i1l2214 1ECC                    i1l3200 1025  
                  i1l3120 0CD8                    i1l3112 0CC5                    i1l3104 0C8C  
                  i1l3040 0B85                    i1l3024 0B59                    i1l3032 0B6B  
                  i1l3016 0B1D                    i1l3008 0B16                    i1l2224 1EED  
                  i1l2216 1ECE                    i1l3210 103B                    i1l3202 102B  
                  i1l3122 0CDC                    i1l3114 0CCA                    i1l3106 0C9A  
                  i1l3050 0BAD                    i1l3042 0B9C                    i1l3034 0B77  
                  i1l3026 0B5D                    i1l3018 0B34                    i1l3130 080B  
                  i1l2218 1ED5                    i1l3212 1041                    i1l3204 102D  
                  i1l3124 0CDE                    i1l3116 0CD2                    i1l3108 0C9E  
                  i1l3060 0BD6                    i1l3052 0BB1                    i1l3044 0BA0  
                  i1l3036 0B7C                    i1l3028 0B5E                    i1l3132 0810  
                  i1l3230 1FA7                    i1l3222 1F89                    i1l3214 1047  
                  i1l3206 1033                    i1l3126 0CE7                    i1l3118 0CD7  
                  i1l3070 0C44                    i1l3062 0C14                    i1l3054 0BB2  
                  i1l3046 0BA4                    i1l3150 0858                    i1l3142 083D  
                  i1l3134 0814                    i1l3232 1FB3                    i1l3216 1049  
                  i1l3208 1035                    i1l3128 0CEB                    i1l3080 0C5F  
                  i1l3072 0C49                    i1l3064 0C1A                    i1l3056 0BBB  
                  i1l3048 0BAB                    i1l3160 088F                    i1l3152 0866  
                  i1l3144 0840                    i1l3136 0824                    i1l2600 1650  
                  i1l3400 0D34                    i1l3234 1FB8                    i1l3226 1F97  
                  i1l3218 104F                    i1l3082 0C64                    i1l3090 0C70  
                  i1l3066 0C1F                    i1l3058 0BC0                    i1l3170 08B9  
                  i1l3162 0899                    i1l3154 0876                    i1l3146 084D  
                  i1l3138 0834                    i1l2610 1666                    i1l2602 1658  
                  i1l3250 1E70                    i1l3242 1E60                    i1l3410 0D57  
                  i1l3236 1FBF                    i1l3228 1F9F                    i1l3084 0C67  
                  i1l3076 0C52                    i1l3068 0C2E                    i1l3092 0C74  
                  i1l3164 08AF                    i1l3156 0881                    i1l3148 0854  
                  i1l2700 17AA                    i1l2612 166B                    i1l2620 167B  
                  i1l2604 165D                    i1l3180 0732                    i1l3260 1E7A  
                  i1l3252 1E74                    i1l3244 1E66                    i1l3420 0D7A  
                  i1l3412 0D5B                    i1l3404 0D3D                    i1l3238 1FC7  
                  i1l3270 1010                    i1l3094 0C75                    i1l3086 0C69  
                  i1l3078 0C5B                    i1l3166 08B4                    i1l3158 0885  
                  i1l2710 17DE                    i1l2702 17B0                    i1l2622 168B  
                  i1l2630 16A4                    i1l2614 1670                    i1l2606 1661  
                  i1l3190 07C7                    i1l3182 0743                    i1l3174 06C7  
                  i1l3262 1E7B                    i1l3254 1E75                    i1l3246 1E6C  
                  i1l3430 0EA8                    i1l3422 0D82                    i1l3414 0D6C  
                  i1l3272 1013                    i1l3264 1002                    i1l3096 0C79  
                  i1l3088 0C6E                    i1l3168 08B8                    i1l2712 17E6  
                  i1l2704 17BD                    i1l2640 16CC                    i1l2632 16A9  
                  i1l2624 1697                    i1l2616 1678                    i1l2608 1665  
                  i1l2800 0566                    i1l2560 1107                    i1l2552 10E1  
                  i1l3192 07D8                    i1l3176 06CC                    i1l3184 075D  
                  i1l3256 1E77                    i1l3248 1E6F                    i1l3440 0FD9  
                  i1l3432 0EB5                    i1l3424 0D8F                    i1l3408 0D4C  
                  i1l3416 0D73                    i1l3266 1008                    i1l3098 0C7F  
                  i1l2714 17EB                    i1l2706 17CB                    i1l2650 16F5  
                  i1l2642 16D4                    i1l2626 169B                    i1l2618 1679  
                  i1l2810 05F6                    i1l2802 0591                    i1l2730 038C  
                  i1l2562 110B                    i1l2570 1129                    i1l2554 10F8  
                  i1l2546 10C9                    i1l3186 0763                    i1l3178 0721  
                  i1l3258 1E79                    i1l3442 0FE6                    i1l3434 0F10  
                  i1l3426 0E40                    i1l3418 0D74                    i1l3196 1018  
                  i1l3268 100C                    i1l2716 17EF                    i1l2708 17DA  
                  i1l2660 1716                    i1l2652 16F9                    i1l2644 16DC  
                  i1l2636 16B2                    i1l2812 05FF                    i1l2820 0613  
                  i1l2804 05B7                    i1l2740 03A1                    i1l2732 038D  
                  i1l2724 037F                    i1l2580 1149                    i1l2556 10FB  
                  i1l2548 10D6                    i1l3188 07B8                    i1l3276 145F  
                  i1l3444 0FEC                    i1l3436 0F1D                    i1l3428 0E4D  
                  i1l3380 0CF1                    i1l3198 101F                    i1l2718 17F1  
                  i1l2670 1738                    i1l2662 1724                    i1l2654 16FA  
                  i1l2646 16DE                    i1l2638 16C4                    i1l2590 163B  
                  i1l2582 162D                    i1l2822 0617                    i1l2814 0603  
                  i1l2806 05DF                    i1l2750 03B7                    i1l2742 03A9  
                  i1l2734 0392                    i1l2726 0384                    i1l2558 1103  
                  i1l3278 1465                    i1l3446 0FF0                    i1l3438 0FD3  
                  i1l3390 0D06                    i1l3382 0CF6                    i1l2672 1741  
                  i1l2680 1755                    i1l2648 16E3                    i1l2656 1703  
                  i1l2664 1728                    i1l2592 1640                    i1l2584 1632  
                  i1l2840 0668                    i1l2832 0638                    i1l2824 0618  
                  i1l2816 0604                    i1l2808 05E8                    i1l2760 03D3  
                  i1l2752 03BC                    i1l2744 03AE                    i1l2736 0397  
                  i1l2728 0388                    i1l2576 1130                    i1l2568 1113  
                  i1l3392 0D0C                    i1l3384 0CF7                    i1l2930 1E9B  
                  i1l2922 1E81                    i1l2682 1759                    i1l2674 1745  
                  i1l2666 172E                    i1l2658 1715                    i1l2594 1645  
                  i1l2586 1636                    i1l2850 069F                    i1l2834 063D  
                  i1l2842 066E                    i1l2826 061C                    i1l2818 060D  
                  i1l2770 03F4                    i1l2762 03D8                    i1l2754 03C1  
                  i1l2746 03B2                    i1l2738 039F                    i1l2578 1144  
                  i1l3394 0D1B                    i1l3386 0CFD                    i1l3378 0CED  
                  i1l2932 1EA1                    i1l2924 1E83                    i1l2940 0A9E  
                  i1l2692 177A                    i1l2684 175A                    i1l2676 1746  
                  i1l2668 1736                    i1l2596 164D                    i1l2588 163A  
                  i1l2860 06BB                    i1l2852 06A1                    i1l2844 067B  
                  i1l2836 064B                    i1l2828 0630                    i1l2780 047E  
                  i1l2772 0401                    i1l2764 03DD                    i1l2756 03C9  
                  i1l2748 03B6                    i1l3396 0D25                    i1l3388 0D02  
                  i1l2926 1E87                    i1l2950 0AB5                    i1l2942 0AA2  
                  i1l2694 177F                    i1l2686 175E                    i1l2678 174F  
                  i1l2598 164E                    i1l2854 06AD                    i1l2846 0686  
                  i1l2838 064F                    i1l2790 04DC                    i1l2782 049A  
                  i1l2774 041C                    i1l2758 03CB                    i1l3398 0D2B  
                  i1l2928 1E94                    i1l2960 0AC9                    i1l2952 0AB6  
                  i1l2944 0AA3                    i1l2936 0A95                    i1l2696 178D  
                  i1l2688 1772                    i1l2856 06B1                    i1l2848 0695  
                  i1l2792 04F9                    i1l2784 04A3                    i1l2776 0438  
                  i1l2768 03E6                    i1l2970 0AD8                    i1l2962 0ACA  
                  i1l2946 0AA8                    i1l2954 0AB8                    i1l2938 0A9A  
                  i1l2698 1791                    i1l2858 06B2                    i1l2794 0510  
                  i1l2786 04B1                    i1l2778 0462                    i1l2980 0AF6  
                  i1l2972 0ADD                    i1l2964 0ACE                    i1l2956 0AC0  
                  i1l2948 0AAD                    i1l2796 052D                    i1l2788 04CE  
                  i1l2990 0B04                    i1l2982 0AFA                    i1l2974 0AE5  
                  i1l2966 0AD2                    i1l2958 0AC3                    i1l2798 0558  
                  i1l2992 0B06                    i1l2984 0AFE                    i1l2976 0AE6  
                  i1l2968 0AD3                    i1l2994 0B08                    i1l2986 0B00  
                  i1l2978 0AE8                    i1l2996 0B0A                    i1l2988 0B02  
                  i1l2998 0B0C                    u400_20 03C1                    u400_21 03C0  
                  u401_20 03D8                    u401_21 03D7                    u402_20 03DD  
                  u402_21 03DC                    u410_25 04FB                    u411_21 051F  
                  u403_21 042A                    u411_22 0526                    u403_22 0431  
                  u411_23 052D                    u403_23 0438                    u500_20 08B4  
                  u420_20 0603                    u500_21 08B3                    u420_21 0602  
                  u412_21 054A                    u404_21 0446                    u412_22 0551  
                  u404_22 044D                    u412_23 0558                    u404_23 0454  
                  u501_20 08B8                    u501_21 08B7                    u413_21 0575  
                  u405_21 0470                    u413_22 057C                    u405_22 0477  
                  u413_23 0583                    u405_23 047E                    u421_25 0606  
                  u510_20 1FBF                    u430_20 0695                    u422_20 0617  
                  u414_20 059D                    u502_20 06CC                    u510_21 1FBE  
                  u430_21 0694                    u422_21 0616                    u406_21 048C  
                  u502_21 06CB                    u406_22 0493                    u406_23 049A  
                  u430_25 0691                    u414_25 0598                    u431_20 06B1  
                  u423_20 061C                    u503_20 0763                    u511_20 1E66  
                  u431_21 06B0                    u423_21 061B                    u415_21 05A9  
                  u503_21 0762                    u511_21 1E65                    u415_22 05B0  
                  u415_23 05B7                    u407_25 049C                    u504_20 101F  
                  u512_20 1008                    u424_20 0630                    u416_20 05C5  
                  u520_20 0D25                    u504_21 101E                    u512_21 1007  
                  u424_21 062F                    u408_21 04C0                    u520_21 0D24  
                  u408_22 04C7                    u408_23 04CE                    u440_25 1E95  
                  u416_25 05C0                    u360_25 1114                    u441_20 1EA1  
                  u505_20 1025                    u513_20 100C                    u425_20 0637  
                  u361_20 1128                    u521_20 0D34                    u441_21 1EA0  
                  u505_21 1024                    u513_21 100B                    u425_21 0636  
                  u417_21 05D1                    u409_21 04EB                    u361_21 1127  
                  u521_21 0D33                    u417_22 05D8                    u409_22 04F2  
                  u417_23 05DF                    u409_23 04F9                    u506_20 103B  
                  u450_20 0AFA                    u442_20 0AA2                    u370_20 166B  
                  u426_20 063D                    u362_20 112F                    u514_20 1465  
                  u530_20 0F1D                    u522_20 0D3D                    u506_21 103A  
                  u450_21 0AF9                    u442_21 0AA1                    u370_21 166A  
                  u426_21 063C                    u362_21 112E                    u514_21 1464  
                  u530_21 0F1C                    u522_21 0D3C                    u418_25 05E1  
                  u507_20 1041                    u451_20 0B34                    u443_20 0AA8  
                  u371_20 1670                    u427_20 064F                    u531_20 0FD9  
                  u523_20 0D4C                    u515_20 0CF1                    u507_21 1040  
                  u451_21 0B33                    u443_21 0AA7                    u371_21 166F  
                  u427_21 064E                    u531_21 0FD8                    u523_21 0D4B  
                  u515_21 0CF0                    u451_25 0B30                    u419_25 05F8  
                  u363_25 1134                    u508_20 1F92                    u452_20 0B3F  
                  u444_20 0AAD                    u380_20 172E                    u372_20 168B  
                  u428_20 065E                    u364_20 1144                    u356_20 10D6  
                  u532_20 0FE6                    u524_20 0D6C                    u516_20 0CFD  
                  u508_21 1F91                    u460_21 0B8E                    u452_21 0B3D  
                  u444_21 0AAC                    u380_21 172D                    u372_21 168A  
                  u364_21 1143                    u356_21 10D5                    u532_21 0FE5  
                  u524_21 0D6B                    u516_21 0CFC                    u460_22 0B95  
                  u460_23 0B9C                    u428_25 0659                    u509_20 1F97  
                  u461_20 0BA0                    u453_20 0B40                    u445_20 0AC9  
                  u381_20 1736                    u373_20 16A9                    u277_20 1ED9  
                  u429_20 067B                    u365_20 1149                    u357_20 10F1  
                  u525_20 0D7A                    u517_20 0D06                    u509_21 1F96  
                  u461_21 0B9F                    u445_21 0AC8                    u381_21 1735  
                  u373_21 16A8                    u277_21 1ED8                    u429_21 067A  
                  u365_21 1148                    u525_21 0D79                    u517_21 0D05  
                  u429_25 0677                    u357_25 10EC                    u438_20 1E87  
                  u470_20 0C49                    u462_20 0BA4                    u454_20 0B50  
                  u446_20 0AD2                    u390_20 1791                    u374_20 16E3  
                  u366_20 163A                    u358_20 110B                    u526_20 0D82  
                  u518_20 0D0C                    u438_21 1E86                    u470_21 0C48  
                  u462_21 0BA3                    u454_21 0B4F                    u446_21 0AD1  
                  u390_21 1790                    u374_21 16E2                    u366_21 1639  
                  u358_21 110A                    u526_21 0D81                    u518_21 0D0B  
                  u382_25 173A                    u278_25 1EE0                    u463_20 0BB1  
                  u455_20 0B5D                    u447_20 0AD8                    u391_20 17A0  
                  u383_20 1745                    u367_20 1640                    u279_20 1EED  
                  u359_20 1112                    u527_20 0D8F                    u519_20 0D1B  
                  u463_21 0BB0                    u455_21 0B5C                    u447_21 0AD7  
                  u383_21 1744                    u367_21 163F                    u279_21 1EEC  
                  u359_21 1111                    u527_21 0D8E                    u519_21 0D1A  
                  u439_25 1E8E                    u471_25 0C54                    u391_25 179B  
                  u375_25 16E5                    u480_20 0C9E                    u472_20 0C5F  
                  u448_20 0ADD                    u392_20 17BD                    u368_20 1645  
                  u528_20 0E4D                    u480_21 0C9D                    u472_21 0C5E  
                  u448_21 0ADC                    u392_21 17BC                    u368_21 1644  
                  u528_21 0E4C                    u464_25 0BB4                    u456_25 0B60  
                  u392_25 17B9                    u384_25 1748                    u376_25 16EE  
                  u481_20 0CAD                    u473_20 0C64                    u465_20 0BD6  
                  u457_20 0B73                    u449_20 0AF6                    u393_20 17DA  
                  u385_20 1759                    u377_20 16F9                    u369_20 1665  
                  u529_20 0EB5                    u473_21 0C63                    u465_21 0BD5  
                  u457_21 0B72                    u449_21 0AF5                    u393_21 17D9  
                  u385_21 1758                    u377_21 16F8                    u369_21 1664  
                  u529_21 0EB4                    u465_23 0BD2                    u481_25 0CA8  
                  u393_25 17D6                    u482_20 0CBC                    u474_20 0C6E  
                  u458_20 0B77                    u490_20 0834                    u394_20 17EF  
                  u386_20 175E                    u482_21 0CBB                    u474_21 0C6D  
                  u466_21 0BED                    u458_21 0B76                    u490_21 0833  
                  u394_21 17EE                    u386_21 175D                    u466_22 0BEE  
                  u466_23 0BF3                    u466_24 0BF4                    u466_25 0BF9  
                  u378_25 16FC                    u466_26 0BFA                    u483_20 0CC5  
                  u475_20 0C74                    u467_20 0C01                    u459_20 0B7C  
                  u387_20 1772                    u379_20 1715                    u395_20 038C  
                  u483_21 0CC4                    u475_21 0C73                    u467_21 0C02  
                  u459_21 0B7B                    u387_21 1771                    u379_21 1714  
                  u395_21 038B                    u467_22 0C07                    u467_23 0C08  
                  u491_25 0845                    u379_25 1711                    u484_20 0CCA  
                  u476_20 0C79                    u468_20 0C1F                    u492_20 0853  
                  u388_20 1779                    u396_20 0392                    u484_21 0CC9  
                  u476_21 0C78                    u468_21 0C1E                    u492_21 0852  
                  u388_21 1778                    u396_21 0391                    u485_20 0CD7  
                  u477_20 0C7F                    u469_20 0C44                    u389_20 177F  
                  u397_20 0397                    u485_21 0CD6                    u477_21 0C7E  
                  u469_21 0C43                    u389_21 177E                    u397_21 0396  
                  u493_25 0867                    u486_20 0CDC                    u478_20 0C86  
                  u494_20 0875                    u398_20 03B6                    u486_21 0CDB  
                  u478_21 0C85                    u494_21 0874                    u398_21 03B5  
                  u487_20 0CEB                    u479_20 0C8C                    u399_20 03BC  
                  u487_21 0CEA                    u479_21 0C8B                    u399_21 03BB  
                  u495_25 087A                    u496_20 0885                    u488_20 0810  
                  u496_21 0884                    u488_21 080F                    u497_20 088B  
                  u489_20 0814                    u497_21 088A                    u489_21 0813  
                  u498_20 088F                    u498_21 088E                    u499_20 08A4  
                  u499_25 089F                    _SPBRGH 009A          __end_of___xxtofl 08C2  
               ??___fladd 005C                    ___wmul 1E81                 ??___fldiv 01BB  
               ??___flmul 01A1                 ??___fltol 01D1          __end_of_initUART 1ECB  
                  _entero 00C9                    _numero 00D1                    _servos 145C  
       __end_ofi1___fldiv 1800         __end_ofi1___flmul 06C4         __end_ofi1___fltol 1157  
                  saved_w 007E           i1___fltol@sign1 00A0              ___xxtofl@arg 007A  
            ___xxtofl@exp 0079              ___xxtofl@val 0070   __end_of__initialization 0036  
              ___fltol@f1 01CD              ?i1__Umul8_16 0070            __pcstackCOMMON 0070  
            __pidataBANK1 07FA             __end_of_setup 11E8             __end_of_pulse 1051  
               ?_PWM_duty 01D7        read_EEPROM@address 0070            _OPTION_REGbits 0081  
        write_EEPROM@data 0070                   ??_setup 01E3                   ??_pulse 0070  
              __pbssBANK1 00C5                __pbssBANK3 01E8         __end_of__Umul8_16 1F1B  
              __pmaintext 12EE                   ?___wmul 0070                __pintentry 0004  
            ??i1_PWM_duty 00A6                   ?_servos 00AE                ??_PWM_duty 01DB  
               ?___xxtofl 0070       i1__Umul8_16@product 0074              PWM_duty@duty 01D7  
               ?_initUART 0070        __end_ofi1_PWM_duty 07F2                   ___fladd 0A95  
                 ___fldiv 08C2                   ___flmul 003A                   ___fltol 1051  
                 _address 00DF                 _ANSELbits 0188                   __ptext1 1157  
                 __ptext2 11E8                   __ptext3 003A                   __ptext4 1EF2  
                 __ptext5 1F1B                   __ptext6 1051                   __ptext7 08C2  
                 __ptext8 1EA6                   __ptext9 0CED              ??_PWM_config 01DB  
               _T2CONbits 0012                ??___xxtofl 0074                   _dutyPot 00D5  
                 clrloop0 07F3      end_of_initialization 0036            i1PWM_duty@duty 00A2  
              ??_initUART 0190                _periodoPot 00D3       write_EEPROM@address 0071  
              _potMapeado 00C5        __end_of_PWM_config 1F89                 _RCSTAbits 0018  
   i1__Umul8_16@word_mpld 0076                 _PORTBbits 0006                 _PORTCbits 0007  
             ___fladd@grs 0067             ___xxtofl@sign 0078                 _TRISCbits 0087  
               i1___fldiv 162D                 i1___flmul 037F               ___fldiv@grs 01C7  
               i1___fltol 10C9               ___fldiv@rem 01C0               ___flmul@grs 01A8  
             _CCP1CONbits 0017               _CCP2CONbits 001D                 _TXSTAbits 0098  
          __end_of___wmul 1EA6            __end_of_servos 162D       start_initialization 0015  
             __end_of_TXT 2000                ?i1___fldiv 0020               __end_of_isr 1000  
              ?i1___flmul 003A                ?i1___fltol 0068      i1PWM_duty@particion1 00AA  
    i1PWM_duty@particion2 00AC             ??_read_EEPROM 0070                  ??___wmul 0074  
               __Umul8_16 1EF2               __pdataBANK1 00E0                  ??_servos 00B0  
               ___fladd@a 0058                 ___fladd@b 0054                 ___fldiv@a 01B3  
               ___fldiv@b 01B7                 ___flmul@a 019D                 ___flmul@b 0199  
               ___latbits 0002             __pcstackBANK0 0020             __pcstackBANK1 00A0  
           __pcstackBANK2 0110             __pcstackBANK3 0190         i1___fldiv@new_exp 0032  
               __pnvBANK3 01E6  i1__Umul8_16@multiplicand 0070                  ?___fladd 0054  
                ?___fldiv 01B3                  ?___flmul 0199                  ?___fltol 01CD  
              ?__Umul8_16 0190       __end_of_read_EEPROM 1018             ?_write_EEPROM 0070  
             ??i1___fldiv 0028               ??i1___flmul 0042               ??i1___fltol 006C  
       interrupt_function 0004            ___wmul@product 0074                 clear_ram0 07F2  
                _PIE1bits 008C                  _PIR1bits 000C                 _valorPot1 00D9  
               _valorPot2 00D7             PWM_duty@canal 01DE      PWM_config@periodo_ms 01D7  
              _ADCON0bits 001F                _ADCON1bits 009F         ___wmul@multiplier 0070  
          ??_write_EEPROM 0071                servos@dato 00B8                servos@modo 00AE  
                _PWM_duty 11E8           PWM_config@canal 01DB                _EECON1bits 018C  
           ??i1__Umul8_16 0072               _read_EEPROM 1001               ??__Umul8_16 0192  
   write_EEPROM@gieStatus 0072                  _caracter 00CD                  ___xxtofl 080A  
                _isr$1406 00C1                  _main$524 0110                  _main$525 0112  
                _main$526 0114                  _main$527 0116                  __ptext10 1E5F  
                __ptext11 145C                  __ptext20 1018                  __ptext12 06C4  
                __ptext21 1F89                  __ptext13 10C9                  __ptext22 1E81  
                __ptext14 037F                  __ptext15 1ECB                  __ptext16 162D  
                __ptext17 080A                  __ptext18 0A95                  __ptext19 1001  
                _contador 01E8                  _initUART 1EA6        PWM_duty@particion1 01DF  
      PWM_duty@particion2 01E1       __end_ofi1__Umul8_16 1EF2                  main@Lmax 0118  
                main@Lmin 011A           i1PWM_duty@canal 00A9                _INTCONbits 000B  
            _valor_entero 00CF                  intlevel1 0000    i1__Umul8_16@multiplier 0078  
    __end_of_write_EEPROM 1E81             _potenciometro 00DD                _OSCCONbits 008F  
              i1_PWM_duty 06C4               _servos$1407 00B4    __Umul8_16@multiplicand 0190  
           ___fladd@signs 0064              ___fladd@aexp 0065              ___fladd@bexp 0066  
    __Umul8_16@multiplier 0198               i1__Umul8_16 1ECB         __Umul8_16@product 0194  
