

Microchip MPLAB XC8 Assembler V2.40 build 20220703182018 
                                                                                               Thu Jun 01 01:16:03 2023

Microchip MPLAB XC8 C Compiler v2.40 (Free license) build 20220703182018 Og1 
     1                           	processor	16F887
     2                           	pagewidth 120
     3                           	opt	flic
     4                           	psect	idataBANK1,global,class=CODE,delta=2,noexec
     5                           	psect	nvBANK2,global,class=BANK2,space=1,delta=1,noexec
     6                           	psect	cinit,global,class=CODE,merge=1,delta=2
     7                           	psect	bssBANK1,global,class=BANK1,space=1,delta=1,noexec
     8                           	psect	dataBANK1,global,class=BANK1,space=1,delta=1,noexec
     9                           	psect	bssBANK2,global,class=BANK2,space=1,delta=1,noexec
    10                           	psect	clrtext,global,class=CODE,delta=2
    11                           	psect	cstackBANK3,global,class=BANK3,space=1,delta=1,noexec
    12                           	psect	cstackBANK2,global,class=BANK2,space=1,delta=1,noexec
    13                           	psect	cstackBANK1,global,class=BANK1,space=1,delta=1,noexec
    14                           	psect	cstackCOMMON,global,class=COMMON,space=1,delta=1,noexec
    15                           	psect	cstackBANK0,global,class=BANK0,space=1,delta=1,noexec
    16                           	psect	maintext,global,class=CODE,split=1,delta=2
    17                           	psect	text1,local,class=CODE,merge=1,delta=2
    18                           	psect	text2,local,class=CODE,merge=1,delta=2
    19                           	psect	text3,local,class=CODE,merge=1,delta=2,group=1
    20                           	psect	text4,local,class=CODE,merge=1,delta=2,group=1
    21                           	psect	text5,local,class=CODE,merge=1,delta=2
    22                           	psect	text6,local,class=CODE,merge=1,delta=2,group=1
    23                           	psect	text7,local,class=CODE,merge=1,delta=2,group=1
    24                           	psect	text8,local,class=CODE,merge=1,delta=2
    25                           	psect	text9,local,class=CODE,merge=1,delta=2,group=1
    26                           	psect	text10,local,class=CODE,merge=1,delta=2,group=1
    27                           	psect	text11,local,class=CODE,merge=1,delta=2
    28                           	psect	intentry,global,class=CODE,delta=2
    29                           	psect	text12,local,class=CODE,merge=1,delta=2
    30                           	psect	text13,local,class=CODE,merge=1,delta=2
    31                           	psect	text14,local,class=CODE,merge=1,delta=2
    32                           	psect	text15,local,class=CODE,merge=1,delta=2
    33                           	psect	text16,local,class=CODE,merge=1,delta=2
    34                           	psect	text17,local,class=CODE,merge=1,delta=2
    35                           	psect	text18,local,class=CODE,merge=1,delta=2
    36                           	psect	text19,local,class=CODE,merge=1,delta=2
    37                           	psect	text20,local,class=CODE,merge=1,delta=2
    38                           	psect	text21,local,class=CODE,merge=1,delta=2
    39                           	psect	text22,local,class=CODE,merge=1,delta=2
    40                           	psect	text23,local,class=CODE,merge=1,delta=2
    41                           	psect	text24,local,class=CODE,merge=1,delta=2,group=1
    42                           	psect	idloc,global,abs,ovrld,class=IDLOC,space=5,delta=2,noexec
    43                           	psect	config,global,abs,ovrld,class=CONFIG,space=4,delta=2,noexec
    44                           	dabs	1,0x7E,2
    45     0000                     
    46                           ; Version 2.40
    47                           ; Generated 17/11/2021 GMT
    48                           ; 
    49                           ; Copyright © 2021, Microchip Technology Inc. and its subsidiaries ("Microchip")
    50                           ; All rights reserved.
    51                           ; 
    52                           ; This software is developed by Microchip Technology Inc. and its subsidiaries ("Microch
      +                          ip").
    53                           ; 
    54                           ; Redistribution and use in source and binary forms, with or without modification, are
    55                           ; permitted provided that the following conditions are met:
    56                           ; 
    57                           ;     1. Redistributions of source code must retain the above copyright notice, this lis
      +                          t of
    58                           ;        conditions and the following disclaimer.
    59                           ; 
    60                           ;     2. Redistributions in binary form must reproduce the above copyright notice, this 
      +                          list
    61                           ;        of conditions and the following disclaimer in the documentation and/or other
    62                           ;        materials provided with the distribution. Publication is not required when
    63                           ;        this file is used in an embedded application.
    64                           ; 
    65                           ;     3. Microchip's name may not be used to endorse or promote products derived from th
      +                          is
    66                           ;        software without specific prior written permission.
    67                           ; 
    68                           ; THIS SOFTWARE IS PROVIDED BY MICROCHIP "AS IS" AND ANY EXPRESS OR IMPLIED WARRANTIES,
    69                           ; INCLUDING, BUT NOT LIMITED TO, THE IMPLIED WARRANTIES OF MERCHANTABILITY AND FITNESS F
      +                          OR
    70                           ; PURPOSE ARE DISCLAIMED.  IN NO EVENT SHALL MICROCHIP BE LIABLE FOR ANY DIRECT, INDIREC
      +                          T,
    71                           ; INCIDENTAL, SPECIAL, EXEMPLARY, OR CONSEQUENTIAL DAMAGES (INCLUDING BUT NOT LIMITED TO
    72                           ; PROCUREMENT OF SUBSTITUTE GOODS OR SERVICES; LOSS OF USE, DATA OR PROFITS; OR BUSINESS
    73                           ; INTERRUPTION) HOWSOEVER CAUSED AND ON ANY THEORY OF LIABILITY, WHETHER IN CONTRACT, ST
      +                          RICT
    74                           ; LIABILITY, OR TORT (INCLUDING NEGLIGENCE OR OTHERWISE) ARISING IN ANY WAY OUT OF THE U
      +                          SE OF
    75                           ; THIS SOFTWARE, EVEN IF ADVISED OF THE POSSIBILITY OF SUCH DAMAGE.
    76                           ; 
    77                           ; 
    78                           ; Code-generator required, PIC16F887 Definitions
    79                           ; 
    80                           ; SFR Addresses
    81     0000                     	;# 
    82     0001                     	;# 
    83     0002                     	;# 
    84     0003                     	;# 
    85     0004                     	;# 
    86     0005                     	;# 
    87     0006                     	;# 
    88     0007                     	;# 
    89     0008                     	;# 
    90     0009                     	;# 
    91     000A                     	;# 
    92     000B                     	;# 
    93     000C                     	;# 
    94     000D                     	;# 
    95     000E                     	;# 
    96     000E                     	;# 
    97     000F                     	;# 
    98     0010                     	;# 
    99     0011                     	;# 
   100     0012                     	;# 
   101     0013                     	;# 
   102     0014                     	;# 
   103     0015                     	;# 
   104     0015                     	;# 
   105     0016                     	;# 
   106     0017                     	;# 
   107     0018                     	;# 
   108     0019                     	;# 
   109     001A                     	;# 
   110     001B                     	;# 
   111     001B                     	;# 
   112     001C                     	;# 
   113     001D                     	;# 
   114     001E                     	;# 
   115     001F                     	;# 
   116     0081                     	;# 
   117     0085                     	;# 
   118     0086                     	;# 
   119     0087                     	;# 
   120     0088                     	;# 
   121     0089                     	;# 
   122     008C                     	;# 
   123     008D                     	;# 
   124     008E                     	;# 
   125     008F                     	;# 
   126     0090                     	;# 
   127     0091                     	;# 
   128     0092                     	;# 
   129     0093                     	;# 
   130     0093                     	;# 
   131     0093                     	;# 
   132     0094                     	;# 
   133     0095                     	;# 
   134     0096                     	;# 
   135     0097                     	;# 
   136     0098                     	;# 
   137     0099                     	;# 
   138     009A                     	;# 
   139     009B                     	;# 
   140     009C                     	;# 
   141     009D                     	;# 
   142     009E                     	;# 
   143     009F                     	;# 
   144     0105                     	;# 
   145     0107                     	;# 
   146     0108                     	;# 
   147     0109                     	;# 
   148     010C                     	;# 
   149     010C                     	;# 
   150     010D                     	;# 
   151     010E                     	;# 
   152     010F                     	;# 
   153     0185                     	;# 
   154     0187                     	;# 
   155     0188                     	;# 
   156     0189                     	;# 
   157     018C                     	;# 
   158     018D                     	;# 
   159     0000                     	;# 
   160     0001                     	;# 
   161     0002                     	;# 
   162     0003                     	;# 
   163     0004                     	;# 
   164     0005                     	;# 
   165     0006                     	;# 
   166     0007                     	;# 
   167     0008                     	;# 
   168     0009                     	;# 
   169     000A                     	;# 
   170     000B                     	;# 
   171     000C                     	;# 
   172     000D                     	;# 
   173     000E                     	;# 
   174     000E                     	;# 
   175     000F                     	;# 
   176     0010                     	;# 
   177     0011                     	;# 
   178     0012                     	;# 
   179     0013                     	;# 
   180     0014                     	;# 
   181     0015                     	;# 
   182     0015                     	;# 
   183     0016                     	;# 
   184     0017                     	;# 
   185     0018                     	;# 
   186     0019                     	;# 
   187     001A                     	;# 
   188     001B                     	;# 
   189     001B                     	;# 
   190     001C                     	;# 
   191     001D                     	;# 
   192     001E                     	;# 
   193     001F                     	;# 
   194     0081                     	;# 
   195     0085                     	;# 
   196     0086                     	;# 
   197     0087                     	;# 
   198     0088                     	;# 
   199     0089                     	;# 
   200     008C                     	;# 
   201     008D                     	;# 
   202     008E                     	;# 
   203     008F                     	;# 
   204     0090                     	;# 
   205     0091                     	;# 
   206     0092                     	;# 
   207     0093                     	;# 
   208     0093                     	;# 
   209     0093                     	;# 
   210     0094                     	;# 
   211     0095                     	;# 
   212     0096                     	;# 
   213     0097                     	;# 
   214     0098                     	;# 
   215     0099                     	;# 
   216     009A                     	;# 
   217     009B                     	;# 
   218     009C                     	;# 
   219     009D                     	;# 
   220     009E                     	;# 
   221     009F                     	;# 
   222     0105                     	;# 
   223     0107                     	;# 
   224     0108                     	;# 
   225     0109                     	;# 
   226     010C                     	;# 
   227     010C                     	;# 
   228     010D                     	;# 
   229     010E                     	;# 
   230     010F                     	;# 
   231     0185                     	;# 
   232     0187                     	;# 
   233     0188                     	;# 
   234     0189                     	;# 
   235     018C                     	;# 
   236     018D                     	;# 
   237     0000                     	;# 
   238     0001                     	;# 
   239     0002                     	;# 
   240     0003                     	;# 
   241     0004                     	;# 
   242     0005                     	;# 
   243     0006                     	;# 
   244     0007                     	;# 
   245     0008                     	;# 
   246     0009                     	;# 
   247     000A                     	;# 
   248     000B                     	;# 
   249     000C                     	;# 
   250     000D                     	;# 
   251     000E                     	;# 
   252     000E                     	;# 
   253     000F                     	;# 
   254     0010                     	;# 
   255     0011                     	;# 
   256     0012                     	;# 
   257     0013                     	;# 
   258     0014                     	;# 
   259     0015                     	;# 
   260     0015                     	;# 
   261     0016                     	;# 
   262     0017                     	;# 
   263     0018                     	;# 
   264     0019                     	;# 
   265     001A                     	;# 
   266     001B                     	;# 
   267     001B                     	;# 
   268     001C                     	;# 
   269     001D                     	;# 
   270     001E                     	;# 
   271     001F                     	;# 
   272     0081                     	;# 
   273     0085                     	;# 
   274     0086                     	;# 
   275     0087                     	;# 
   276     0088                     	;# 
   277     0089                     	;# 
   278     008C                     	;# 
   279     008D                     	;# 
   280     008E                     	;# 
   281     008F                     	;# 
   282     0090                     	;# 
   283     0091                     	;# 
   284     0092                     	;# 
   285     0093                     	;# 
   286     0093                     	;# 
   287     0093                     	;# 
   288     0094                     	;# 
   289     0095                     	;# 
   290     0096                     	;# 
   291     0097                     	;# 
   292     0098                     	;# 
   293     0099                     	;# 
   294     009A                     	;# 
   295     009B                     	;# 
   296     009C                     	;# 
   297     009D                     	;# 
   298     009E                     	;# 
   299     009F                     	;# 
   300     0105                     	;# 
   301     0107                     	;# 
   302     0108                     	;# 
   303     0109                     	;# 
   304     010C                     	;# 
   305     010C                     	;# 
   306     010D                     	;# 
   307     010E                     	;# 
   308     010F                     	;# 
   309     0185                     	;# 
   310     0187                     	;# 
   311     0188                     	;# 
   312     0189                     	;# 
   313     018C                     	;# 
   314     018D                     	;# 
   315                           
   316                           	psect	idataBANK1
   317     0803                     __pidataBANK1:
   318                           
   319                           ;initializer for _i
   320     0803  34FF               	retlw	255
   321     0804  34FF               	retlw	255
   322                           
   323                           ;initializer for _servo
   324     0805  3401               	retlw	1
   325                           
   326                           	psect	nvBANK2
   327     0137                     __pnvBANK2:
   328     0137                     _ang2:
   329     0137                     	ds	1
   330     0138                     _ang1:
   331     0138                     	ds	1
   332     0012                     _T2CONbits	set	18
   333     001B                     _CCPR2L	set	27
   334     001D                     _CCP2CONbits	set	29
   335     0015                     _CCPR1L	set	21
   336     0017                     _CCP1CONbits	set	23
   337     001A                     _RCREG	set	26
   338     0018                     _RCSTAbits	set	24
   339     0007                     _PORTC	set	7
   340     0006                     _PORTB	set	6
   341     0005                     _PORTA	set	5
   342     0009                     _PORTE	set	9
   343     0001                     _TMR0	set	1
   344     0007                     _PORTCbits	set	7
   345     0008                     _PORTD	set	8
   346     001F                     _ADCON0bits	set	31
   347     0006                     _PORTBbits	set	6
   348     000C                     _PIR1bits	set	12
   349     000B                     _INTCONbits	set	11
   350     001E                     _ADRESH	set	30
   351     005F                     _GIE	set	95
   352     0064                     _TXIF	set	100
   353     00C7                     _SPEN	set	199
   354     00C4                     _CREN	set	196
   355     0087                     _TRISCbits	set	135
   356     0092                     _PR2	set	146
   357     0098                     _TXSTAbits	set	152
   358     009A                     _SPBRGH	set	154
   359     0099                     _SPBRG	set	153
   360     009F                     _ADCON1bits	set	159
   361     008C                     _PIE1bits	set	140
   362     008F                     _OSCCONbits	set	143
   363     0096                     _IOCB	set	150
   364     0081                     _OPTION_REGbits	set	129
   365     0089                     _TRISE	set	137
   366     0088                     _TRISD	set	136
   367     0087                     _TRISC	set	135
   368     0085                     _TRISA	set	133
   369     0086                     _TRISB	set	134
   370     04C5                     _TXEN	set	1221
   371     04C4                     _SYNC	set	1220
   372     04C2                     _BRGH	set	1218
   373     010C                     _EEDAT	set	268
   374     010D                     _EEADR	set	269
   375     018D                     _EECON2	set	397
   376     018C                     _EECON1bits	set	396
   377     0189                     _ANSELH	set	393
   378     0188                     _ANSELbits	set	392
   379     0C60                     _RD	set	3168
   380     0C61                     _WR	set	3169
   381     0C3B                     _BRG16	set	3131
   382                           
   383                           	psect	cinit
   384     0015                     start_initialization:	
   385                           ; #config settings
   386                           
   387     0015                     __initialization:
   388                           
   389                           ; Initialize objects allocated to BANK1
   390     0015  1683               	bsf	3,5	;RP0=1, select bank1
   391     0016  1303               	bcf	3,6	;RP1=0, select bank1
   392     0017  120A  158A  2003  120A  118A  	fcall	__pidataBANK1	;fetch initializer
   393     001C  00D6               	movwf	__pdataBANK1& (0+127)
   394     001D  120A  158A  2004  120A  118A  	fcall	__pidataBANK1+1	;fetch initializer
   395     0022  00D7               	movwf	(__pdataBANK1+1)& (0+127)
   396     0023  120A  158A  2005  120A  118A  	fcall	__pidataBANK1+2	;fetch initializer
   397     0028  00D8               	movwf	(__pdataBANK1+2)& (0+127)
   398                           
   399                           ; Clear objects allocated to BANK2
   400     0029  1783               	bsf	3,7	;select IRP bank2
   401     002A  302F               	movlw	low __pbssBANK2
   402     002B  0084               	movwf	4
   403     002C  3037               	movlw	low (__pbssBANK2+8)
   404     002D  120A  118A  27F7  120A  118A  	fcall	clear_ram0
   405                           
   406                           ; Clear objects allocated to BANK1
   407     0032  1383               	bcf	3,7	;select IRP bank0
   408     0033  30C5               	movlw	low __pbssBANK1
   409     0034  0084               	movwf	4
   410     0035  30D6               	movlw	low (__pbssBANK1+17)
   411     0036  120A  118A  27F7  120A  118A  	fcall	clear_ram0
   412     003B                     end_of_initialization:	
   413                           ;End of C runtime variable initialization code
   414                           
   415     003B                     __end_of__initialization:
   416     003B  0183               	clrf	3
   417     003C  120A  158A  2CD5   	ljmp	_main	;jump to C main() function
   418                           
   419                           	psect	bssBANK1
   420     00C5                     __pbssBANK1:
   421     00C5                     _entero:
   422     00C5                     	ds	2
   423     00C7                     _caracter:
   424     00C7                     	ds	2
   425     00C9                     _valor_entero:
   426     00C9                     	ds	2
   427     00CB                     _numero:
   428     00CB                     	ds	2
   429     00CD                     _valorPot2:
   430     00CD                     	ds	2
   431     00CF                     _valorPot1:
   432     00CF                     	ds	2
   433     00D1                     _modo:
   434     00D1                     	ds	2
   435     00D3                     _potenciometro:
   436     00D3                     	ds	1
   437     00D4                     _data:
   438     00D4                     	ds	1
   439     00D5                     _address:
   440     00D5                     	ds	1
   441                           
   442                           	psect	dataBANK1
   443     00D6                     __pdataBANK1:
   444     00D6                     _i:
   445     00D6                     	ds	2
   446     00D8                     _servo:
   447     00D8                     	ds	1
   448                           
   449                           	psect	bssBANK2
   450     012F                     __pbssBANK2:
   451     012F                     _bandera:
   452     012F                     	ds	2
   453     0131                     _flag:
   454     0131                     	ds	2
   455     0133                     _contador:
   456     0133                     	ds	2
   457     0135                     _valor_uart:
   458     0135                     	ds	2
   459                           
   460                           	psect	clrtext
   461     07F7                     clear_ram0:	
   462                           ;	Called with FSR containing the base address, and
   463                           ;	W with the last address+1
   464                           
   465     07F7  0064               	clrwdt	;clear the watchdog before getting into this loop
   466     07F8                     clrloop0:
   467     07F8  0180               	clrf	0	;clear RAM location pointed to by FSR
   468     07F9  0A84               	incf	4,f	;increment pointer
   469     07FA  0604               	xorwf	4,w	;XOR with final address
   470     07FB  1903               	btfsc	3,2	;have we reached the end yet?
   471     07FC  3400               	retlw	0	;all done for this memory range, return
   472     07FD  0604               	xorwf	4,w	;XOR again to restore value
   473     07FE  2FF8               	goto	clrloop0	;do the next byte
   474                           
   475                           	psect	cstackBANK3
   476     0190                     __pcstackBANK3:
   477     0190                     ??_initUART:
   478     0190                     ?__Umul8_16:	
   479                           ; 1 bytes @ 0x0
   480                           
   481     0190                     ?___xxtofl:	
   482                           ; 2 bytes @ 0x0
   483                           
   484     0190                     __Umul8_16@multiplicand:	
   485                           ; 4 bytes @ 0x0
   486                           
   487     0190                     ___xxtofl@val:	
   488                           ; 1 bytes @ 0x0
   489                           
   490                           
   491                           ; 4 bytes @ 0x0
   492     0190                     	ds	2
   493     0192                     ??__Umul8_16:
   494                           
   495                           ; 1 bytes @ 0x2
   496     0192                     	ds	2
   497     0194                     ??___xxtofl:
   498     0194                     __Umul8_16@product:	
   499                           ; 1 bytes @ 0x4
   500                           
   501                           
   502                           ; 2 bytes @ 0x4
   503     0194                     	ds	2
   504     0196                     __Umul8_16@word_mpld:
   505                           
   506                           ; 2 bytes @ 0x6
   507     0196                     	ds	2
   508     0198                     __Umul8_16@multiplier:
   509     0198                     ___xxtofl@sign:	
   510                           ; 1 bytes @ 0x8
   511                           
   512                           
   513                           ; 1 bytes @ 0x8
   514     0198                     	ds	1
   515     0199                     ___xxtofl@exp:
   516                           
   517                           ; 1 bytes @ 0x9
   518     0199                     	ds	1
   519     019A                     ___xxtofl@arg:
   520                           
   521                           ; 4 bytes @ 0xA
   522     019A                     	ds	4
   523     019E                     ?___fldiv:
   524     019E                     ___fldiv@a:	
   525                           ; 4 bytes @ 0xE
   526                           
   527                           
   528                           ; 4 bytes @ 0xE
   529     019E                     	ds	4
   530     01A2                     ___fldiv@b:
   531                           
   532                           ; 4 bytes @ 0x12
   533     01A2                     	ds	4
   534     01A6                     ??___fldiv:
   535                           
   536                           ; 1 bytes @ 0x16
   537     01A6                     	ds	5
   538     01AB                     ___fldiv@rem:
   539                           
   540                           ; 4 bytes @ 0x1B
   541     01AB                     	ds	4
   542     01AF                     ___fldiv@sign:
   543                           
   544                           ; 1 bytes @ 0x1F
   545     01AF                     	ds	1
   546     01B0                     ___fldiv@new_exp:
   547                           
   548                           ; 2 bytes @ 0x20
   549     01B0                     	ds	2
   550     01B2                     ___fldiv@grs:
   551                           
   552                           ; 4 bytes @ 0x22
   553     01B2                     	ds	4
   554     01B6                     ___fldiv@bexp:
   555                           
   556                           ; 1 bytes @ 0x26
   557     01B6                     	ds	1
   558     01B7                     ___fldiv@aexp:
   559                           
   560                           ; 1 bytes @ 0x27
   561     01B7                     	ds	1
   562     01B8                     ?___flmul:
   563     01B8                     ___flmul@b:	
   564                           ; 4 bytes @ 0x28
   565                           
   566                           
   567                           ; 4 bytes @ 0x28
   568     01B8                     	ds	4
   569     01BC                     ___flmul@a:
   570                           
   571                           ; 4 bytes @ 0x2C
   572     01BC                     	ds	4
   573     01C0                     ??___flmul:
   574                           
   575                           ; 1 bytes @ 0x30
   576     01C0                     	ds	5
   577     01C5                     ___flmul@sign:
   578                           
   579                           ; 1 bytes @ 0x35
   580     01C5                     	ds	1
   581     01C6                     ___flmul@aexp:
   582                           
   583                           ; 1 bytes @ 0x36
   584     01C6                     	ds	1
   585     01C7                     ___flmul@grs:
   586                           
   587                           ; 4 bytes @ 0x37
   588     01C7                     	ds	4
   589     01CB                     ___flmul@bexp:
   590                           
   591                           ; 1 bytes @ 0x3B
   592     01CB                     	ds	1
   593     01CC                     ___flmul@prod:
   594                           
   595                           ; 4 bytes @ 0x3C
   596     01CC                     	ds	4
   597     01D0                     ___flmul@temp:
   598                           
   599                           ; 2 bytes @ 0x40
   600     01D0                     	ds	2
   601     01D2                     ?___fladd:
   602     01D2                     ___fladd@b:	
   603                           ; 4 bytes @ 0x42
   604                           
   605                           
   606                           ; 4 bytes @ 0x42
   607     01D2                     	ds	4
   608     01D6                     ___fladd@a:
   609                           
   610                           ; 4 bytes @ 0x46
   611     01D6                     	ds	4
   612     01DA                     ??___fladd:
   613                           
   614                           ; 1 bytes @ 0x4A
   615     01DA                     	ds	8
   616     01E2                     ___fladd@signs:
   617                           
   618                           ; 1 bytes @ 0x52
   619     01E2                     	ds	1
   620     01E3                     ___fladd@aexp:
   621                           
   622                           ; 1 bytes @ 0x53
   623     01E3                     	ds	1
   624     01E4                     ___fladd@bexp:
   625                           
   626                           ; 1 bytes @ 0x54
   627     01E4                     	ds	1
   628     01E5                     ___fladd@grs:
   629                           
   630                           ; 1 bytes @ 0x55
   631     01E5                     	ds	1
   632     01E6                     ?___fltol:
   633     01E6                     ___fltol@f1:	
   634                           ; 4 bytes @ 0x56
   635                           
   636                           
   637                           ; 4 bytes @ 0x56
   638     01E6                     	ds	4
   639     01EA                     ??___fltol:
   640                           
   641                           ; 1 bytes @ 0x5A
   642     01EA                     	ds	4
   643     01EE                     ___fltol@sign1:
   644                           
   645                           ; 1 bytes @ 0x5E
   646     01EE                     	ds	1
   647     01EF                     ___fltol@exp1:
   648                           
   649                           ; 1 bytes @ 0x5F
   650     01EF                     	ds	1
   651     01F0                     ??_PWM_config:
   652                           
   653                           	psect	cstackBANK2
   654     0110                     __pcstackBANK2:	
   655                           ; 1 bytes @ 0x60
   656                           
   657     0110                     ?_PWM_duty:
   658     0110                     ?_PWM_config:	
   659                           ; 1 bytes @ 0x0
   660                           
   661     0110                     PWM_config@periodo_ms:	
   662                           ; 1 bytes @ 0x0
   663                           
   664     0110                     PWM_duty@duty:	
   665                           ; 4 bytes @ 0x0
   666                           
   667                           
   668                           ; 4 bytes @ 0x0
   669     0110                     	ds	4
   670     0114                     ??_PWM_duty:
   671     0114                     PWM_config@canal:	
   672                           ; 1 bytes @ 0x4
   673                           
   674                           
   675                           ; 1 bytes @ 0x4
   676     0114                     	ds	3
   677     0117                     PWM_duty@canal:
   678                           
   679                           ; 1 bytes @ 0x7
   680     0117                     	ds	1
   681     0118                     PWM_duty@particion1:
   682                           
   683                           ; 2 bytes @ 0x8
   684     0118                     	ds	2
   685     011A                     PWM_duty@particion2:
   686                           
   687                           ; 2 bytes @ 0xA
   688     011A                     	ds	2
   689     011C                     ??_setup:
   690                           
   691                           ; 1 bytes @ 0xC
   692     011C                     	ds	1
   693     011D                     ??_main:
   694                           
   695                           ; 1 bytes @ 0xD
   696     011D                     	ds	2
   697     011F                     _main$524:
   698                           
   699                           ; 2 bytes @ 0xF
   700     011F                     	ds	2
   701     0121                     _main$525:
   702                           
   703                           ; 2 bytes @ 0x11
   704     0121                     	ds	2
   705     0123                     _main$526:
   706                           
   707                           ; 2 bytes @ 0x13
   708     0123                     	ds	2
   709     0125                     _main$527:
   710                           
   711                           ; 2 bytes @ 0x15
   712     0125                     	ds	2
   713     0127                     _main$1324:
   714                           
   715                           ; 4 bytes @ 0x17
   716     0127                     	ds	4
   717     012B                     main@Lmax:
   718                           
   719                           ; 2 bytes @ 0x1B
   720     012B                     	ds	2
   721     012D                     main@Lmin:
   722                           
   723                           ; 2 bytes @ 0x1D
   724     012D                     	ds	2
   725                           
   726                           	psect	cstackBANK1
   727     00A0                     __pcstackBANK1:
   728     00A0                     i1___fltol@sign1:
   729                           
   730                           ; 1 bytes @ 0x0
   731     00A0                     	ds	1
   732     00A1                     i1___fltol@exp1:
   733                           
   734                           ; 1 bytes @ 0x1
   735     00A1                     	ds	1
   736     00A2                     ?i1_PWM_duty:
   737     00A2                     i1PWM_duty@duty:	
   738                           ; 1 bytes @ 0x2
   739                           
   740                           
   741                           ; 4 bytes @ 0x2
   742     00A2                     	ds	4
   743     00A6                     ??i1_PWM_duty:
   744                           
   745                           ; 1 bytes @ 0x6
   746     00A6                     	ds	3
   747     00A9                     i1PWM_duty@canal:
   748                           
   749                           ; 1 bytes @ 0x9
   750     00A9                     	ds	1
   751     00AA                     i1PWM_duty@particion1:
   752                           
   753                           ; 2 bytes @ 0xA
   754     00AA                     	ds	2
   755     00AC                     i1PWM_duty@particion2:
   756                           
   757                           ; 2 bytes @ 0xC
   758     00AC                     	ds	2
   759     00AE                     ?_servos:
   760     00AE                     servos@modo:	
   761                           ; 1 bytes @ 0xE
   762                           
   763                           
   764                           ; 2 bytes @ 0xE
   765     00AE                     	ds	2
   766     00B0                     ??_servos:
   767                           
   768                           ; 1 bytes @ 0x10
   769     00B0                     	ds	4
   770     00B4                     _servos$1434:
   771                           
   772                           ; 4 bytes @ 0x14
   773     00B4                     	ds	4
   774     00B8                     servos@dato:
   775                           
   776                           ; 1 bytes @ 0x18
   777     00B8                     	ds	1
   778     00B9                     ??_isr:
   779                           
   780                           ; 1 bytes @ 0x19
   781     00B9                     	ds	8
   782     00C1                     _isr$1433:
   783                           
   784                           ; 4 bytes @ 0x21
   785     00C1                     	ds	4
   786                           
   787                           	psect	cstackCOMMON
   788     0070                     __pcstackCOMMON:
   789     0070                     ?_pulse:
   790     0070                     ??_pulse:	
   791                           ; 1 bytes @ 0x0
   792                           
   793     0070                     ?_TXT:	
   794                           ; 1 bytes @ 0x0
   795                           
   796     0070                     ?_write_EEPROM:	
   797                           ; 1 bytes @ 0x0
   798                           
   799     0070                     ?_read_EEPROM:	
   800                           ; 1 bytes @ 0x0
   801                           
   802     0070                     ??_read_EEPROM:	
   803                           ; 1 bytes @ 0x0
   804                           
   805     0070                     ?_setup:	
   806                           ; 1 bytes @ 0x0
   807                           
   808     0070                     ?_initUART:	
   809                           ; 1 bytes @ 0x0
   810                           
   811     0070                     ?_isr:	
   812                           ; 1 bytes @ 0x0
   813                           
   814     0070                     ?_main:	
   815                           ; 1 bytes @ 0x0
   816                           
   817     0070                     ?___wmul:	
   818                           ; 1 bytes @ 0x0
   819                           
   820     0070                     ?i1__Umul8_16:	
   821                           ; 2 bytes @ 0x0
   822                           
   823     0070                     ?i1___xxtofl:	
   824                           ; 2 bytes @ 0x0
   825                           
   826     0070                     read_EEPROM@address:	
   827                           ; 4 bytes @ 0x0
   828                           
   829     0070                     write_EEPROM@data:	
   830                           ; 1 bytes @ 0x0
   831                           
   832     0070                     i1__Umul8_16@multiplicand:	
   833                           ; 1 bytes @ 0x0
   834                           
   835     0070                     ___wmul@multiplier:	
   836                           ; 1 bytes @ 0x0
   837                           
   838     0070                     i1___xxtofl@val:	
   839                           ; 2 bytes @ 0x0
   840                           
   841                           
   842                           ; 4 bytes @ 0x0
   843     0070                     	ds	1
   844     0071                     ??_write_EEPROM:
   845     0071                     write_EEPROM@address:	
   846                           ; 1 bytes @ 0x1
   847                           
   848                           
   849                           ; 1 bytes @ 0x1
   850     0071                     	ds	1
   851     0072                     ??i1__Umul8_16:
   852     0072                     write_EEPROM@gieStatus:	
   853                           ; 1 bytes @ 0x2
   854                           
   855     0072                     ___wmul@multiplicand:	
   856                           ; 1 bytes @ 0x2
   857                           
   858                           
   859                           ; 2 bytes @ 0x2
   860     0072                     	ds	2
   861     0074                     ??___wmul:
   862     0074                     ??i1___xxtofl:	
   863                           ; 1 bytes @ 0x4
   864                           
   865     0074                     ___wmul@product:	
   866                           ; 1 bytes @ 0x4
   867                           
   868     0074                     i1__Umul8_16@product:	
   869                           ; 2 bytes @ 0x4
   870                           
   871                           
   872                           ; 2 bytes @ 0x4
   873     0074                     	ds	2
   874     0076                     ??_TXT:
   875     0076                     i1__Umul8_16@word_mpld:	
   876                           ; 1 bytes @ 0x6
   877                           
   878                           
   879                           ; 2 bytes @ 0x6
   880     0076                     	ds	2
   881     0078                     i1__Umul8_16@multiplier:
   882     0078                     i1___xxtofl@sign:	
   883                           ; 1 bytes @ 0x8
   884                           
   885                           
   886                           ; 1 bytes @ 0x8
   887     0078                     	ds	1
   888     0079                     i1___xxtofl@exp:
   889                           
   890                           ; 1 bytes @ 0x9
   891     0079                     	ds	1
   892     007A                     i1___xxtofl@arg:
   893                           
   894                           ; 4 bytes @ 0xA
   895     007A                     	ds	4
   896                           
   897                           	psect	cstackBANK0
   898     0020                     __pcstackBANK0:
   899     0020                     ?i1___fldiv:
   900     0020                     i1___fldiv@a:	
   901                           ; 4 bytes @ 0x0
   902                           
   903                           
   904                           ; 4 bytes @ 0x0
   905     0020                     	ds	4
   906     0024                     i1___fldiv@b:
   907                           
   908                           ; 4 bytes @ 0x4
   909     0024                     	ds	4
   910     0028                     ??i1___fldiv:
   911                           
   912                           ; 1 bytes @ 0x8
   913     0028                     	ds	5
   914     002D                     i1___fldiv@rem:
   915                           
   916                           ; 4 bytes @ 0xD
   917     002D                     	ds	4
   918     0031                     i1___fldiv@sign:
   919                           
   920                           ; 1 bytes @ 0x11
   921     0031                     	ds	1
   922     0032                     i1___fldiv@new_exp:
   923                           
   924                           ; 2 bytes @ 0x12
   925     0032                     	ds	2
   926     0034                     i1___fldiv@grs:
   927                           
   928                           ; 4 bytes @ 0x14
   929     0034                     	ds	4
   930     0038                     i1___fldiv@bexp:
   931                           
   932                           ; 1 bytes @ 0x18
   933     0038                     	ds	1
   934     0039                     i1___fldiv@aexp:
   935                           
   936                           ; 1 bytes @ 0x19
   937     0039                     	ds	1
   938     003A                     ?i1___flmul:
   939     003A                     i1___flmul@b:	
   940                           ; 4 bytes @ 0x1A
   941                           
   942                           
   943                           ; 4 bytes @ 0x1A
   944     003A                     	ds	4
   945     003E                     i1___flmul@a:
   946                           
   947                           ; 4 bytes @ 0x1E
   948     003E                     	ds	4
   949     0042                     ??i1___flmul:
   950                           
   951                           ; 1 bytes @ 0x22
   952     0042                     	ds	5
   953     0047                     i1___flmul@sign:
   954                           
   955                           ; 1 bytes @ 0x27
   956     0047                     	ds	1
   957     0048                     i1___flmul@grs:
   958                           
   959                           ; 4 bytes @ 0x28
   960     0048                     	ds	4
   961     004C                     i1___flmul@aexp:
   962                           
   963                           ; 1 bytes @ 0x2C
   964     004C                     	ds	1
   965     004D                     i1___flmul@bexp:
   966                           
   967                           ; 1 bytes @ 0x2D
   968     004D                     	ds	1
   969     004E                     i1___flmul@prod:
   970                           
   971                           ; 4 bytes @ 0x2E
   972     004E                     	ds	4
   973     0052                     i1___flmul@temp:
   974                           
   975                           ; 2 bytes @ 0x32
   976     0052                     	ds	2
   977     0054                     ?i1___fladd:
   978     0054                     i1___fladd@b:	
   979                           ; 4 bytes @ 0x34
   980                           
   981                           
   982                           ; 4 bytes @ 0x34
   983     0054                     	ds	4
   984     0058                     i1___fladd@a:
   985                           
   986                           ; 4 bytes @ 0x38
   987     0058                     	ds	4
   988     005C                     ??i1___fladd:
   989                           
   990                           ; 1 bytes @ 0x3C
   991     005C                     	ds	8
   992     0064                     i1___fladd@signs:
   993                           
   994                           ; 1 bytes @ 0x44
   995     0064                     	ds	1
   996     0065                     i1___fladd@aexp:
   997                           
   998                           ; 1 bytes @ 0x45
   999     0065                     	ds	1
  1000     0066                     i1___fladd@bexp:
  1001                           
  1002                           ; 1 bytes @ 0x46
  1003     0066                     	ds	1
  1004     0067                     i1___fladd@grs:
  1005                           
  1006                           ; 1 bytes @ 0x47
  1007     0067                     	ds	1
  1008     0068                     ?i1___fltol:
  1009     0068                     i1___fltol@f1:	
  1010                           ; 4 bytes @ 0x48
  1011                           
  1012                           
  1013                           ; 4 bytes @ 0x48
  1014     0068                     	ds	4
  1015     006C                     ??i1___fltol:
  1016                           
  1017                           ; 1 bytes @ 0x4C
  1018     006C                     	ds	4
  1019                           
  1020                           	psect	maintext
  1021     0CD5                     __pmaintext:	
  1022 ;;
  1023 ;;Main: autosize = 0, tempsize = 2, incstack = 0, save=0
  1024 ;;
  1025 ;; *************** function _main *****************
  1026 ;; Defined at:
  1027 ;;		line 218 in file "Progra_IRONMAN.c"
  1028 ;; Parameters:    Size  Location     Type
  1029 ;;		None
  1030 ;; Auto vars:     Size  Location     Type
  1031 ;;  Lmin            2   29[BANK2 ] int 
  1032 ;;  Lmax            2   27[BANK2 ] int 
  1033 ;; Return value:  Size  Location     Type
  1034 ;;                  1    wreg      void 
  1035 ;; Registers used:
  1036 ;;		wreg, status,2, status,0, btemp+1, pclath, cstack
  1037 ;; Tracked objects:
  1038 ;;		On entry : B00/0
  1039 ;;		On exit  : 0/0
  1040 ;;		Unchanged: 0/0
  1041 ;; Data sizes:     COMMON   BANK0   BANK1   BANK3   BANK2
  1042 ;;      Params:         0       0       0       0       0
  1043 ;;      Locals:         0       0       0       0      16
  1044 ;;      Temps:          0       0       0       0       2
  1045 ;;      Totals:         0       0       0       0      18
  1046 ;;Total ram usage:       18 bytes
  1047 ;; Hardware stack levels required when called: 9
  1048 ;; This function calls:
  1049 ;;		_PWM_duty
  1050 ;;		___fladd
  1051 ;;		___fldiv
  1052 ;;		___flmul
  1053 ;;		___fltol
  1054 ;;		___xxtofl
  1055 ;;		_initUART
  1056 ;;		_setup
  1057 ;; This function is called by:
  1058 ;;		Startup code after reset
  1059 ;; This function uses a non-reentrant model
  1060 ;;
  1061                           
  1062     0CD5                     _main:	
  1063                           ;psect for function _main
  1064                           
  1065     0CD5                     l4619:	
  1066                           ;incstack = 0
  1067 ;; hardware stack exceeded
  1068                           ; Regs used in _main: [wreg+status,2+status,0+btemp+1+pclath+cstack]
  1069                           
  1070                           
  1071                           ;Progra_IRONMAN.c: 219:     int Lmin = 6, Lmax = 19;
  1072     0CD5  3006               	movlw	6
  1073     0CD6  1283               	bcf	3,5	;RP0=0, select bank2
  1074     0CD7  1703               	bsf	3,6	;RP1=1, select bank2
  1075     0CD8  00AD               	movwf	main@Lmin^(0+256)
  1076     0CD9  3000               	movlw	0
  1077     0CDA  00AE               	movwf	(main@Lmin^(0+256)+1)
  1078     0CDB  3013               	movlw	19
  1079     0CDC  00AB               	movwf	main@Lmax^(0+256)
  1080     0CDD  3000               	movlw	0
  1081     0CDE  00AC               	movwf	(main@Lmax^(0+256)+1)
  1082                           
  1083                           ;Progra_IRONMAN.c: 220:     ang1 = Lmin;
  1084     0CDF  3006               	movlw	6
  1085     0CE0  00B8               	movwf	_ang1^(0+256)
  1086                           
  1087                           ;Progra_IRONMAN.c: 221:     ang2 = Lmin;
  1088     0CE1  3006               	movlw	6
  1089     0CE2  00B7               	movwf	_ang2^(0+256)
  1090     0CE3                     l4621:
  1091                           
  1092                           ;Progra_IRONMAN.c: 222:     setup ();
  1093     0CE3  160A  158A  23C7  120A  158A  	fcall	_setup
  1094     0CE8                     l4623:
  1095                           
  1096                           ;Progra_IRONMAN.c: 223:     initUART();
  1097     0CE8  160A  158A  21A7  120A  158A  	fcall	_initUART
  1098     0CED                     l4625:
  1099                           
  1100                           ;Progra_IRONMAN.c: 224:     ADCON0bits.GO = 1;
  1101     0CED  1283               	bcf	3,5	;RP0=0, select bank0
  1102     0CEE  1303               	bcf	3,6	;RP1=0, select bank0
  1103     0CEF  149F               	bsf	31,1	;volatile
  1104     0CF0                     l4627:
  1105                           
  1106                           ;Progra_IRONMAN.c: 227:         if(flag == 1){
  1107     0CF0  1283               	bcf	3,5	;RP0=0, select bank2
  1108     0CF1  1703               	bsf	3,6	;RP1=1, select bank2
  1109     0CF2  0331               	decf	_flag^(0+256),w
  1110     0CF3  0432               	iorwf	(_flag+1)^(0+256),w
  1111     0CF4  1D03               	btfss	3,2
  1112     0CF5  2CF7               	goto	u7681
  1113     0CF6  2CF8               	goto	u7680
  1114     0CF7                     u7681:
  1115     0CF7  2D09               	goto	l4635
  1116     0CF8                     u7680:
  1117     0CF8                     l4629:
  1118                           
  1119                           ;Progra_IRONMAN.c: 228:             flag = 0;
  1120     0CF8  01B1               	clrf	_flag^(0+256)
  1121     0CF9  01B2               	clrf	(_flag+1)^(0+256)
  1122     0CFA                     l4631:
  1123                           
  1124                           ;Progra_IRONMAN.c: 229:             bandera = 1;
  1125     0CFA  3001               	movlw	1
  1126     0CFB  00AF               	movwf	_bandera^(0+256)
  1127     0CFC  3000               	movlw	0
  1128     0CFD  00B0               	movwf	(_bandera^(0+256)+1)
  1129     0CFE                     l4633:
  1130                           
  1131                           ;Progra_IRONMAN.c: 230:             valor_uart = PORTD;
  1132     0CFE  1283               	bcf	3,5	;RP0=0, select bank0
  1133     0CFF  1303               	bcf	3,6	;RP1=0, select bank0
  1134     0D00  0808               	movf	8,w	;volatile
  1135     0D01  1283               	bcf	3,5	;RP0=0, select bank2
  1136     0D02  1703               	bsf	3,6	;RP1=1, select bank2
  1137     0D03  009D               	movwf	??_main^(0+256)
  1138     0D04  019E               	clrf	(??_main^(0+256)+1)
  1139     0D05  081D               	movf	??_main^(0+256),w
  1140     0D06  00B5               	movwf	_valor_uart^(0+256)
  1141     0D07  081E               	movf	(??_main+1)^(0+256),w
  1142     0D08  00B6               	movwf	(_valor_uart+1)^(0+256)
  1143     0D09                     l4635:
  1144                           
  1145                           ;Progra_IRONMAN.c: 234:         if (contador == 1){
  1146     0D09  0333               	decf	_contador^(0+256),w
  1147     0D0A  0434               	iorwf	(_contador+1)^(0+256),w
  1148     0D0B  1D03               	btfss	3,2
  1149     0D0C  2D0E               	goto	u7691
  1150     0D0D  2D0F               	goto	u7690
  1151     0D0E                     u7691:
  1152     0D0E  2D10               	goto	l4639
  1153     0D0F                     u7690:
  1154     0D0F                     l4637:
  1155     0D0F  0063               	sleep	;# 
  1156     0D10                     l4639:
  1157                           
  1158                           ;Progra_IRONMAN.c: 238:         PORTE = modo;
  1159     0D10  1683               	bsf	3,5	;RP0=1, select bank1
  1160     0D11  1303               	bcf	3,6	;RP1=0, select bank1
  1161     0D12  0851               	movf	_modo^(0+128),w
  1162     0D13  1283               	bcf	3,5	;RP0=0, select bank0
  1163     0D14  1303               	bcf	3,6	;RP1=0, select bank0
  1164     0D15  0089               	movwf	9	;volatile
  1165     0D16                     l4641:
  1166                           
  1167                           ;Progra_IRONMAN.c: 240:         if(modo > 2){
  1168     0D16  1683               	bsf	3,5	;RP0=1, select bank1
  1169     0D17  1303               	bcf	3,6	;RP1=0, select bank1
  1170     0D18  0852               	movf	(_modo+1)^(0+128),w
  1171     0D19  3A80               	xorlw	128
  1172     0D1A  00FF               	movwf	btemp+1
  1173     0D1B  3080               	movlw	128
  1174     0D1C  027F               	subwf	btemp+1,w
  1175     0D1D  1D03               	skipz
  1176     0D1E  2D21               	goto	u7705
  1177     0D1F  3003               	movlw	3
  1178     0D20  0251               	subwf	_modo^(0+128),w
  1179     0D21                     u7705:
  1180     0D21  1C03               	skipc
  1181     0D22  2D24               	goto	u7701
  1182     0D23  2D25               	goto	u7700
  1183     0D24                     u7701:
  1184     0D24  2D2C               	goto	l4645
  1185     0D25                     u7700:
  1186     0D25                     l4643:
  1187                           
  1188                           ;Progra_IRONMAN.c: 241:             modo = 0;
  1189     0D25  1683               	bsf	3,5	;RP0=1, select bank1
  1190     0D26  1303               	bcf	3,6	;RP1=0, select bank1
  1191     0D27  01D1               	clrf	_modo^(0+128)
  1192     0D28  01D2               	clrf	(_modo+1)^(0+128)
  1193                           
  1194                           ;Progra_IRONMAN.c: 242:             PORTD = 0;
  1195     0D29  1283               	bcf	3,5	;RP0=0, select bank0
  1196     0D2A  1303               	bcf	3,6	;RP1=0, select bank0
  1197     0D2B  0188               	clrf	8	;volatile
  1198     0D2C                     l4645:
  1199                           
  1200                           ;Progra_IRONMAN.c: 245:         if(servo > 2){
  1201     0D2C  3003               	movlw	3
  1202     0D2D  1683               	bsf	3,5	;RP0=1, select bank1
  1203     0D2E  1303               	bcf	3,6	;RP1=0, select bank1
  1204     0D2F  0258               	subwf	_servo^(0+128),w
  1205     0D30  1C03               	skipc
  1206     0D31  2D33               	goto	u7711
  1207     0D32  2D34               	goto	u7710
  1208     0D33                     u7711:
  1209     0D33  2D36               	goto	l4649
  1210     0D34                     u7710:
  1211     0D34                     l4647:
  1212                           
  1213                           ;Progra_IRONMAN.c: 246:             servo = 1;
  1214     0D34  01D8               	clrf	_servo^(0+128)
  1215     0D35  0AD8               	incf	_servo^(0+128),f
  1216     0D36                     l4649:
  1217                           
  1218                           ;Progra_IRONMAN.c: 250:         ang1 = (ang1<Lmin) ? Lmin:ang1;
  1219     0D36  1283               	bcf	3,5	;RP0=0, select bank2
  1220     0D37  1703               	bsf	3,6	;RP1=1, select bank2
  1221     0D38  082E               	movf	(main@Lmin+1)^(0+256),w
  1222     0D39  3A80               	xorlw	128
  1223     0D3A  3C80               	sublw	128
  1224     0D3B  1D03               	skipz
  1225     0D3C  2D3F               	goto	u7725
  1226     0D3D  082D               	movf	main@Lmin^(0+256),w
  1227     0D3E  0238               	subwf	_ang1^(0+256),w
  1228     0D3F                     u7725:
  1229     0D3F  1C03               	skipc
  1230     0D40  2D42               	goto	u7721
  1231     0D41  2D43               	goto	u7720
  1232     0D42                     u7721:
  1233     0D42  2D4D               	goto	l4653
  1234     0D43                     u7720:
  1235     0D43                     l4651:
  1236     0D43  1283               	bcf	3,5	;RP0=0, select bank2
  1237     0D44  1703               	bsf	3,6	;RP1=1, select bank2
  1238     0D45  0838               	movf	_ang1^(0+256),w
  1239     0D46  009D               	movwf	??_main^(0+256)
  1240     0D47  019E               	clrf	(??_main^(0+256)+1)
  1241     0D48  081D               	movf	??_main^(0+256),w
  1242     0D49  009F               	movwf	_main$524^(0+256)
  1243     0D4A  081E               	movf	(??_main+1)^(0+256),w
  1244     0D4B  00A0               	movwf	(_main$524+1)^(0+256)
  1245     0D4C  2D53               	goto	l202
  1246     0D4D                     l4653:
  1247     0D4D  1283               	bcf	3,5	;RP0=0, select bank2
  1248     0D4E  1703               	bsf	3,6	;RP1=1, select bank2
  1249     0D4F  082E               	movf	(main@Lmin+1)^(0+256),w
  1250     0D50  00A0               	movwf	(_main$524+1)^(0+256)
  1251     0D51  082D               	movf	main@Lmin^(0+256),w
  1252     0D52  009F               	movwf	_main$524^(0+256)
  1253     0D53                     l202:
  1254     0D53  081F               	movf	_main$524^(0+256),w
  1255     0D54  00B8               	movwf	_ang1^(0+256)
  1256                           
  1257                           ;Progra_IRONMAN.c: 251:         ang1 = (ang1>Lmax) ? Lmax:ang1;
  1258     0D55  082C               	movf	(main@Lmax+1)^(0+256),w
  1259     0D56  3A80               	xorlw	128
  1260     0D57  009D               	movwf	??_main^(0+256)
  1261     0D58  3080               	movlw	128
  1262     0D59  021D               	subwf	??_main^(0+256),w
  1263     0D5A  1D03               	skipz
  1264     0D5B  2D5E               	goto	u7735
  1265     0D5C  0838               	movf	_ang1^(0+256),w
  1266     0D5D  022B               	subwf	main@Lmax^(0+256),w
  1267     0D5E                     u7735:
  1268     0D5E  1C03               	skipc
  1269     0D5F  2D61               	goto	u7731
  1270     0D60  2D62               	goto	u7730
  1271     0D61                     u7731:
  1272     0D61  2D6C               	goto	l4657
  1273     0D62                     u7730:
  1274     0D62                     l4655:
  1275     0D62  1283               	bcf	3,5	;RP0=0, select bank2
  1276     0D63  1703               	bsf	3,6	;RP1=1, select bank2
  1277     0D64  0838               	movf	_ang1^(0+256),w
  1278     0D65  009D               	movwf	??_main^(0+256)
  1279     0D66  019E               	clrf	(??_main^(0+256)+1)
  1280     0D67  081D               	movf	??_main^(0+256),w
  1281     0D68  00A1               	movwf	_main$525^(0+256)
  1282     0D69  081E               	movf	(??_main+1)^(0+256),w
  1283     0D6A  00A2               	movwf	(_main$525+1)^(0+256)
  1284     0D6B  2D72               	goto	l206
  1285     0D6C                     l4657:
  1286     0D6C  1283               	bcf	3,5	;RP0=0, select bank2
  1287     0D6D  1703               	bsf	3,6	;RP1=1, select bank2
  1288     0D6E  082C               	movf	(main@Lmax+1)^(0+256),w
  1289     0D6F  00A2               	movwf	(_main$525+1)^(0+256)
  1290     0D70  082B               	movf	main@Lmax^(0+256),w
  1291     0D71  00A1               	movwf	_main$525^(0+256)
  1292     0D72                     l206:
  1293     0D72  0821               	movf	_main$525^(0+256),w
  1294     0D73  00B8               	movwf	_ang1^(0+256)
  1295                           
  1296                           ;Progra_IRONMAN.c: 253:         ang2 = (ang2<Lmin) ? Lmin:ang2;
  1297     0D74  082E               	movf	(main@Lmin+1)^(0+256),w
  1298     0D75  3A80               	xorlw	128
  1299     0D76  3C80               	sublw	128
  1300     0D77  1D03               	skipz
  1301     0D78  2D7B               	goto	u7745
  1302     0D79  082D               	movf	main@Lmin^(0+256),w
  1303     0D7A  0237               	subwf	_ang2^(0+256),w
  1304     0D7B                     u7745:
  1305     0D7B  1C03               	skipc
  1306     0D7C  2D7E               	goto	u7741
  1307     0D7D  2D7F               	goto	u7740
  1308     0D7E                     u7741:
  1309     0D7E  2D89               	goto	l4661
  1310     0D7F                     u7740:
  1311     0D7F                     l4659:
  1312     0D7F  1283               	bcf	3,5	;RP0=0, select bank2
  1313     0D80  1703               	bsf	3,6	;RP1=1, select bank2
  1314     0D81  0837               	movf	_ang2^(0+256),w
  1315     0D82  009D               	movwf	??_main^(0+256)
  1316     0D83  019E               	clrf	(??_main^(0+256)+1)
  1317     0D84  081D               	movf	??_main^(0+256),w
  1318     0D85  00A3               	movwf	_main$526^(0+256)
  1319     0D86  081E               	movf	(??_main+1)^(0+256),w
  1320     0D87  00A4               	movwf	(_main$526+1)^(0+256)
  1321     0D88  2D8F               	goto	l210
  1322     0D89                     l4661:
  1323     0D89  1283               	bcf	3,5	;RP0=0, select bank2
  1324     0D8A  1703               	bsf	3,6	;RP1=1, select bank2
  1325     0D8B  082E               	movf	(main@Lmin+1)^(0+256),w
  1326     0D8C  00A4               	movwf	(_main$526+1)^(0+256)
  1327     0D8D  082D               	movf	main@Lmin^(0+256),w
  1328     0D8E  00A3               	movwf	_main$526^(0+256)
  1329     0D8F                     l210:
  1330     0D8F  0823               	movf	_main$526^(0+256),w
  1331     0D90  00B7               	movwf	_ang2^(0+256)
  1332                           
  1333                           ;Progra_IRONMAN.c: 254:         ang2 = (ang2>Lmax) ? Lmax:ang2;
  1334     0D91  082C               	movf	(main@Lmax+1)^(0+256),w
  1335     0D92  3A80               	xorlw	128
  1336     0D93  009D               	movwf	??_main^(0+256)
  1337     0D94  3080               	movlw	128
  1338     0D95  021D               	subwf	??_main^(0+256),w
  1339     0D96  1D03               	skipz
  1340     0D97  2D9A               	goto	u7755
  1341     0D98  0837               	movf	_ang2^(0+256),w
  1342     0D99  022B               	subwf	main@Lmax^(0+256),w
  1343     0D9A                     u7755:
  1344     0D9A  1C03               	skipc
  1345     0D9B  2D9D               	goto	u7751
  1346     0D9C  2D9E               	goto	u7750
  1347     0D9D                     u7751:
  1348     0D9D  2DA8               	goto	l4665
  1349     0D9E                     u7750:
  1350     0D9E                     l4663:
  1351     0D9E  1283               	bcf	3,5	;RP0=0, select bank2
  1352     0D9F  1703               	bsf	3,6	;RP1=1, select bank2
  1353     0DA0  0837               	movf	_ang2^(0+256),w
  1354     0DA1  009D               	movwf	??_main^(0+256)
  1355     0DA2  019E               	clrf	(??_main^(0+256)+1)
  1356     0DA3  081D               	movf	??_main^(0+256),w
  1357     0DA4  00A5               	movwf	_main$527^(0+256)
  1358     0DA5  081E               	movf	(??_main+1)^(0+256),w
  1359     0DA6  00A6               	movwf	(_main$527+1)^(0+256)
  1360     0DA7  2DAE               	goto	l214
  1361     0DA8                     l4665:
  1362     0DA8  1283               	bcf	3,5	;RP0=0, select bank2
  1363     0DA9  1703               	bsf	3,6	;RP1=1, select bank2
  1364     0DAA  082C               	movf	(main@Lmax+1)^(0+256),w
  1365     0DAB  00A6               	movwf	(_main$527+1)^(0+256)
  1366     0DAC  082B               	movf	main@Lmax^(0+256),w
  1367     0DAD  00A5               	movwf	_main$527^(0+256)
  1368     0DAE                     l214:
  1369     0DAE  0825               	movf	_main$527^(0+256),w
  1370     0DAF  00B7               	movwf	_ang2^(0+256)
  1371     0DB0                     l4667:
  1372                           
  1373                           ;Progra_IRONMAN.c: 258:         if (ADCON0bits.GO == 0) {
  1374     0DB0  1283               	bcf	3,5	;RP0=0, select bank0
  1375     0DB1  1303               	bcf	3,6	;RP1=0, select bank0
  1376     0DB2  189F               	btfsc	31,1	;volatile
  1377     0DB3  2DB5               	goto	u7761
  1378     0DB4  2DB6               	goto	u7760
  1379     0DB5                     u7761:
  1380     0DB5  2E21               	goto	l4693
  1381     0DB6                     u7760:
  1382     0DB6                     l4669:
  1383                           
  1384                           ;Progra_IRONMAN.c: 259:             if(ADCON0bits.CHS == 0b0000)
  1385     0DB6  0C1F               	rrf	31,w	;volatile
  1386     0DB7  1283               	bcf	3,5	;RP0=0, select bank2
  1387     0DB8  1703               	bsf	3,6	;RP1=1, select bank2
  1388     0DB9  009D               	movwf	??_main^(0+256)
  1389     0DBA  0C1D               	rrf	??_main^(0+256),w
  1390     0DBB  390F               	andlw	15
  1391     0DBC  3A00               	xorlw	0
  1392     0DBD  1D03               	skipz
  1393     0DBE  2DC0               	goto	u7771
  1394     0DBF  2DC1               	goto	u7770
  1395     0DC0                     u7771:
  1396     0DC0  2DC8               	goto	l4673
  1397     0DC1                     u7770:
  1398     0DC1                     l4671:
  1399                           
  1400                           ;Progra_IRONMAN.c: 260:             {;Progra_IRONMAN.c: 261:                 ADCON0bits.
      +                          CHS = 0b0100;
  1401     0DC1  1283               	bcf	3,5	;RP0=0, select bank0
  1402     0DC2  1303               	bcf	3,6	;RP1=0, select bank0
  1403     0DC3  081F               	movf	31,w	;volatile
  1404     0DC4  39C3               	andlw	-61
  1405     0DC5  3810               	iorlw	16
  1406     0DC6  009F               	movwf	31	;volatile
  1407                           
  1408                           ;Progra_IRONMAN.c: 262:             }
  1409     0DC7  2E16               	goto	l4689
  1410     0DC8                     l4673:
  1411     0DC8  1283               	bcf	3,5	;RP0=0, select bank0
  1412     0DC9  1303               	bcf	3,6	;RP1=0, select bank0
  1413     0DCA  0C1F               	rrf	31,w	;volatile
  1414     0DCB  1283               	bcf	3,5	;RP0=0, select bank2
  1415     0DCC  1703               	bsf	3,6	;RP1=1, select bank2
  1416     0DCD  009D               	movwf	??_main^(0+256)
  1417     0DCE  0C1D               	rrf	??_main^(0+256),w
  1418     0DCF  390F               	andlw	15
  1419     0DD0  3A04               	xorlw	4
  1420     0DD1  1D03               	skipz
  1421     0DD2  2DD4               	goto	u7781
  1422     0DD3  2DD5               	goto	u7780
  1423     0DD4                     u7781:
  1424     0DD4  2DDC               	goto	l4677
  1425     0DD5                     u7780:
  1426     0DD5                     l4675:
  1427                           
  1428                           ;Progra_IRONMAN.c: 264:             {;Progra_IRONMAN.c: 265:                 ADCON0bits.
      +                          CHS = 0b0011;
  1429     0DD5  1283               	bcf	3,5	;RP0=0, select bank0
  1430     0DD6  1303               	bcf	3,6	;RP1=0, select bank0
  1431     0DD7  081F               	movf	31,w	;volatile
  1432     0DD8  39C3               	andlw	-61
  1433     0DD9  380C               	iorlw	12
  1434     0DDA  009F               	movwf	31	;volatile
  1435                           
  1436                           ;Progra_IRONMAN.c: 266:             }
  1437     0DDB  2E16               	goto	l4689
  1438     0DDC                     l4677:
  1439     0DDC  1283               	bcf	3,5	;RP0=0, select bank0
  1440     0DDD  1303               	bcf	3,6	;RP1=0, select bank0
  1441     0DDE  0C1F               	rrf	31,w	;volatile
  1442     0DDF  1283               	bcf	3,5	;RP0=0, select bank2
  1443     0DE0  1703               	bsf	3,6	;RP1=1, select bank2
  1444     0DE1  009D               	movwf	??_main^(0+256)
  1445     0DE2  0C1D               	rrf	??_main^(0+256),w
  1446     0DE3  390F               	andlw	15
  1447     0DE4  3A03               	xorlw	3
  1448     0DE5  1D03               	skipz
  1449     0DE6  2DE8               	goto	u7791
  1450     0DE7  2DE9               	goto	u7790
  1451     0DE8                     u7791:
  1452     0DE8  2DF0               	goto	l4681
  1453     0DE9                     u7790:
  1454     0DE9                     l4679:
  1455                           
  1456                           ;Progra_IRONMAN.c: 268:             {;Progra_IRONMAN.c: 269:                 ADCON0bits.
      +                          CHS = 0b0010;
  1457     0DE9  1283               	bcf	3,5	;RP0=0, select bank0
  1458     0DEA  1303               	bcf	3,6	;RP1=0, select bank0
  1459     0DEB  081F               	movf	31,w	;volatile
  1460     0DEC  39C3               	andlw	-61
  1461     0DED  3808               	iorlw	8
  1462     0DEE  009F               	movwf	31	;volatile
  1463                           
  1464                           ;Progra_IRONMAN.c: 270:             }
  1465     0DEF  2E16               	goto	l4689
  1466     0DF0                     l4681:
  1467     0DF0  1283               	bcf	3,5	;RP0=0, select bank0
  1468     0DF1  1303               	bcf	3,6	;RP1=0, select bank0
  1469     0DF2  0C1F               	rrf	31,w	;volatile
  1470     0DF3  1283               	bcf	3,5	;RP0=0, select bank2
  1471     0DF4  1703               	bsf	3,6	;RP1=1, select bank2
  1472     0DF5  009D               	movwf	??_main^(0+256)
  1473     0DF6  0C1D               	rrf	??_main^(0+256),w
  1474     0DF7  390F               	andlw	15
  1475     0DF8  3A02               	xorlw	2
  1476     0DF9  1D03               	skipz
  1477     0DFA  2DFC               	goto	u7801
  1478     0DFB  2DFD               	goto	u7800
  1479     0DFC                     u7801:
  1480     0DFC  2E04               	goto	l4685
  1481     0DFD                     u7800:
  1482     0DFD                     l4683:
  1483                           
  1484                           ;Progra_IRONMAN.c: 272:             {;Progra_IRONMAN.c: 273:                 ADCON0bits.
      +                          CHS = 0b0001;
  1485     0DFD  1283               	bcf	3,5	;RP0=0, select bank0
  1486     0DFE  1303               	bcf	3,6	;RP1=0, select bank0
  1487     0DFF  081F               	movf	31,w	;volatile
  1488     0E00  39C3               	andlw	-61
  1489     0E01  3804               	iorlw	4
  1490     0E02  009F               	movwf	31	;volatile
  1491                           
  1492                           ;Progra_IRONMAN.c: 274:             }
  1493     0E03  2E16               	goto	l4689
  1494     0E04                     l4685:
  1495     0E04  1283               	bcf	3,5	;RP0=0, select bank0
  1496     0E05  1303               	bcf	3,6	;RP1=0, select bank0
  1497     0E06  0C1F               	rrf	31,w	;volatile
  1498     0E07  1283               	bcf	3,5	;RP0=0, select bank2
  1499     0E08  1703               	bsf	3,6	;RP1=1, select bank2
  1500     0E09  009D               	movwf	??_main^(0+256)
  1501     0E0A  0C1D               	rrf	??_main^(0+256),w
  1502     0E0B  390F               	andlw	15
  1503     0E0C  3A01               	xorlw	1
  1504     0E0D  1D03               	skipz
  1505     0E0E  2E10               	goto	u7811
  1506     0E0F  2E11               	goto	u7810
  1507     0E10                     u7811:
  1508     0E10  2E16               	goto	l219
  1509     0E11                     u7810:
  1510     0E11                     l4687:
  1511                           
  1512                           ;Progra_IRONMAN.c: 276:             {;Progra_IRONMAN.c: 277:                 ADCON0bits.
      +                          CHS = 0b0000;
  1513     0E11  30C3               	movlw	-61
  1514     0E12  1283               	bcf	3,5	;RP0=0, select bank0
  1515     0E13  1303               	bcf	3,6	;RP1=0, select bank0
  1516     0E14  059F               	andwf	31,f	;volatile
  1517     0E15  2E16               	goto	l4689
  1518     0E16                     l219:
  1519     0E16                     l4689:
  1520                           
  1521                           ;Progra_IRONMAN.c: 279:             _delay((unsigned long)((1000)*(4000000/4000000.0)));
  1522     0E16  30C7               	movlw	199
  1523     0E17  1283               	bcf	3,5	;RP0=0, select bank2
  1524     0E18  1703               	bsf	3,6	;RP1=1, select bank2
  1525     0E19  009D               	movwf	??_main^(0+256)
  1526     0E1A                     u7837:
  1527     0E1A  2E1B               	nop2
  1528     0E1B  0B9D               	decfsz	??_main^(0+256),f
  1529     0E1C  2E1A               	goto	u7837
  1530     0E1D  2E1E               	nop2
  1531     0E1E                     l4691:
  1532                           
  1533                           ;Progra_IRONMAN.c: 280:             ADCON0bits.GO = 1;
  1534     0E1E  1283               	bcf	3,5	;RP0=0, select bank0
  1535     0E1F  1303               	bcf	3,6	;RP1=0, select bank0
  1536     0E20  149F               	bsf	31,1	;volatile
  1537     0E21                     l4693:
  1538                           
  1539                           ;Progra_IRONMAN.c: 283:         if(bandera == 1){
  1540     0E21  1283               	bcf	3,5	;RP0=0, select bank2
  1541     0E22  1703               	bsf	3,6	;RP1=1, select bank2
  1542     0E23  032F               	decf	_bandera^(0+256),w
  1543     0E24  0430               	iorwf	(_bandera+1)^(0+256),w
  1544     0E25  1D03               	btfss	3,2
  1545     0E26  2E28               	goto	u7821
  1546     0E27  2E29               	goto	u7820
  1547     0E28                     u7821:
  1548     0E28  2CF0               	goto	l4627
  1549     0E29                     u7820:
  1550     0E29                     l4695:
  1551                           
  1552                           ;Progra_IRONMAN.c: 284:             bandera = 0;
  1553     0E29  01AF               	clrf	_bandera^(0+256)
  1554     0E2A  01B0               	clrf	(_bandera+1)^(0+256)
  1555     0E2B                     l4697:
  1556                           
  1557                           ;Progra_IRONMAN.c: 286:             ang1 = ((valor_uart*0.047)+6);
  1558     0E2B  0835               	movf	_valor_uart^(0+256),w
  1559     0E2C  1683               	bsf	3,5	;RP0=1, select bank3
  1560     0E2D  1703               	bsf	3,6	;RP1=1, select bank3
  1561     0E2E  0090               	movwf	___xxtofl@val^(0+384)
  1562     0E2F  1283               	bcf	3,5	;RP0=0, select bank2
  1563     0E30  1703               	bsf	3,6	;RP1=1, select bank2
  1564     0E31  0836               	movf	(_valor_uart+1)^(0+256),w
  1565     0E32  1683               	bsf	3,5	;RP0=1, select bank3
  1566     0E33  1703               	bsf	3,6	;RP1=1, select bank3
  1567     0E34  0091               	movwf	(___xxtofl@val+1)^(0+384)
  1568     0E35  3000               	movlw	0
  1569     0E36  1B91               	btfsc	(___xxtofl@val+1)^(0+384),7
  1570     0E37  30FF               	movlw	255
  1571     0E38  0092               	movwf	(___xxtofl@val+2)^(0+384)
  1572     0E39  0093               	movwf	(___xxtofl@val+3)^(0+384)
  1573     0E3A  3001               	movlw	1
  1574     0E3B  160A  118A  20C3  120A  158A  	fcall	___xxtofl
  1575     0E40  1683               	bsf	3,5	;RP0=1, select bank3
  1576     0E41  1703               	bsf	3,6	;RP1=1, select bank3
  1577     0E42  0813               	movf	(?___xxtofl+3)^(0+384),w
  1578     0E43  00BF               	movwf	(___flmul@a+3)^(0+384)
  1579     0E44  0812               	movf	(?___xxtofl+2)^(0+384),w
  1580     0E45  00BE               	movwf	(___flmul@a+2)^(0+384)
  1581     0E46  0811               	movf	(?___xxtofl+1)^(0+384),w
  1582     0E47  00BD               	movwf	(___flmul@a+1)^(0+384)
  1583     0E48  0810               	movf	?___xxtofl^(0+384),w
  1584     0E49  00BC               	movwf	___flmul@a^(0+384)
  1585     0E4A  303D               	movlw	61
  1586     0E4B  00BB               	movwf	(___flmul@b+3)^(0+384)
  1587     0E4C  3040               	movlw	64
  1588     0E4D  00BA               	movwf	(___flmul@b+2)^(0+384)
  1589     0E4E  3083               	movlw	131
  1590     0E4F  00B9               	movwf	(___flmul@b+1)^(0+384)
  1591     0E50  3012               	movlw	18
  1592     0E51  00B8               	movwf	___flmul@b^(0+384)
  1593     0E52  120A  118A  203F  120A  158A  	fcall	___flmul
  1594     0E57  1683               	bsf	3,5	;RP0=1, select bank3
  1595     0E58  1703               	bsf	3,6	;RP1=1, select bank3
  1596     0E59  083B               	movf	(?___flmul+3)^(0+384),w
  1597     0E5A  00D9               	movwf	(___fladd@a+3)^(0+384)
  1598     0E5B  083A               	movf	(?___flmul+2)^(0+384),w
  1599     0E5C  00D8               	movwf	(___fladd@a+2)^(0+384)
  1600     0E5D  0839               	movf	(?___flmul+1)^(0+384),w
  1601     0E5E  00D7               	movwf	(___fladd@a+1)^(0+384)
  1602     0E5F  0838               	movf	?___flmul^(0+384),w
  1603     0E60  00D6               	movwf	___fladd@a^(0+384)
  1604     0E61  3040               	movlw	64
  1605     0E62  00D5               	movwf	(___fladd@b+3)^(0+384)
  1606     0E63  30C0               	movlw	192
  1607     0E64  00D4               	movwf	(___fladd@b+2)^(0+384)
  1608     0E65  3000               	movlw	0
  1609     0E66  00D3               	movwf	(___fladd@b+1)^(0+384)
  1610     0E67  3000               	movlw	0
  1611     0E68  00D2               	movwf	___fladd@b^(0+384)
  1612     0E69  160A  118A  25A8  120A  158A  	fcall	___fladd
  1613     0E6E  1683               	bsf	3,5	;RP0=1, select bank3
  1614     0E6F  1703               	bsf	3,6	;RP1=1, select bank3
  1615     0E70  0855               	movf	(?___fladd+3)^(0+384),w
  1616     0E71  00E9               	movwf	(___fltol@f1+3)^(0+384)
  1617     0E72  0854               	movf	(?___fladd+2)^(0+384),w
  1618     0E73  00E8               	movwf	(___fltol@f1+2)^(0+384)
  1619     0E74  0853               	movf	(?___fladd+1)^(0+384),w
  1620     0E75  00E7               	movwf	(___fltol@f1+1)^(0+384)
  1621     0E76  0852               	movf	?___fladd^(0+384),w
  1622     0E77  00E6               	movwf	___fltol@f1^(0+384)
  1623     0E78  160A  158A  2255  120A  158A  	fcall	___fltol
  1624     0E7D  1683               	bsf	3,5	;RP0=1, select bank3
  1625     0E7E  1703               	bsf	3,6	;RP1=1, select bank3
  1626     0E7F  0866               	movf	?___fltol^(0+384),w
  1627     0E80  1283               	bcf	3,5	;RP0=0, select bank2
  1628     0E81  1703               	bsf	3,6	;RP1=1, select bank2
  1629     0E82  00B8               	movwf	_ang1^(0+256)
  1630     0E83                     l4699:
  1631                           
  1632                           ;Progra_IRONMAN.c: 289:             ang2 = ((valor_uart*0.047)+6);
  1633     0E83  0835               	movf	_valor_uart^(0+256),w
  1634     0E84  1683               	bsf	3,5	;RP0=1, select bank3
  1635     0E85  1703               	bsf	3,6	;RP1=1, select bank3
  1636     0E86  0090               	movwf	___xxtofl@val^(0+384)
  1637     0E87  1283               	bcf	3,5	;RP0=0, select bank2
  1638     0E88  1703               	bsf	3,6	;RP1=1, select bank2
  1639     0E89  0836               	movf	(_valor_uart+1)^(0+256),w
  1640     0E8A  1683               	bsf	3,5	;RP0=1, select bank3
  1641     0E8B  1703               	bsf	3,6	;RP1=1, select bank3
  1642     0E8C  0091               	movwf	(___xxtofl@val+1)^(0+384)
  1643     0E8D  3000               	movlw	0
  1644     0E8E  1B91               	btfsc	(___xxtofl@val+1)^(0+384),7
  1645     0E8F  30FF               	movlw	255
  1646     0E90  0092               	movwf	(___xxtofl@val+2)^(0+384)
  1647     0E91  0093               	movwf	(___xxtofl@val+3)^(0+384)
  1648     0E92  3001               	movlw	1
  1649     0E93  160A  118A  20C3  120A  158A  	fcall	___xxtofl
  1650     0E98  1683               	bsf	3,5	;RP0=1, select bank3
  1651     0E99  1703               	bsf	3,6	;RP1=1, select bank3
  1652     0E9A  0813               	movf	(?___xxtofl+3)^(0+384),w
  1653     0E9B  00BF               	movwf	(___flmul@a+3)^(0+384)
  1654     0E9C  0812               	movf	(?___xxtofl+2)^(0+384),w
  1655     0E9D  00BE               	movwf	(___flmul@a+2)^(0+384)
  1656     0E9E  0811               	movf	(?___xxtofl+1)^(0+384),w
  1657     0E9F  00BD               	movwf	(___flmul@a+1)^(0+384)
  1658     0EA0  0810               	movf	?___xxtofl^(0+384),w
  1659     0EA1  00BC               	movwf	___flmul@a^(0+384)
  1660     0EA2  303D               	movlw	61
  1661     0EA3  00BB               	movwf	(___flmul@b+3)^(0+384)
  1662     0EA4  3040               	movlw	64
  1663     0EA5  00BA               	movwf	(___flmul@b+2)^(0+384)
  1664     0EA6  3083               	movlw	131
  1665     0EA7  00B9               	movwf	(___flmul@b+1)^(0+384)
  1666     0EA8  3012               	movlw	18
  1667     0EA9  00B8               	movwf	___flmul@b^(0+384)
  1668     0EAA  120A  118A  203F  120A  158A  	fcall	___flmul
  1669     0EAF  1683               	bsf	3,5	;RP0=1, select bank3
  1670     0EB0  1703               	bsf	3,6	;RP1=1, select bank3
  1671     0EB1  083B               	movf	(?___flmul+3)^(0+384),w
  1672     0EB2  00D9               	movwf	(___fladd@a+3)^(0+384)
  1673     0EB3  083A               	movf	(?___flmul+2)^(0+384),w
  1674     0EB4  00D8               	movwf	(___fladd@a+2)^(0+384)
  1675     0EB5  0839               	movf	(?___flmul+1)^(0+384),w
  1676     0EB6  00D7               	movwf	(___fladd@a+1)^(0+384)
  1677     0EB7  0838               	movf	?___flmul^(0+384),w
  1678     0EB8  00D6               	movwf	___fladd@a^(0+384)
  1679     0EB9  3040               	movlw	64
  1680     0EBA  00D5               	movwf	(___fladd@b+3)^(0+384)
  1681     0EBB  30C0               	movlw	192
  1682     0EBC  00D4               	movwf	(___fladd@b+2)^(0+384)
  1683     0EBD  3000               	movlw	0
  1684     0EBE  00D3               	movwf	(___fladd@b+1)^(0+384)
  1685     0EBF  3000               	movlw	0
  1686     0EC0  00D2               	movwf	___fladd@b^(0+384)
  1687     0EC1  160A  118A  25A8  120A  158A  	fcall	___fladd
  1688     0EC6  1683               	bsf	3,5	;RP0=1, select bank3
  1689     0EC7  1703               	bsf	3,6	;RP1=1, select bank3
  1690     0EC8  0855               	movf	(?___fladd+3)^(0+384),w
  1691     0EC9  00E9               	movwf	(___fltol@f1+3)^(0+384)
  1692     0ECA  0854               	movf	(?___fladd+2)^(0+384),w
  1693     0ECB  00E8               	movwf	(___fltol@f1+2)^(0+384)
  1694     0ECC  0853               	movf	(?___fladd+1)^(0+384),w
  1695     0ECD  00E7               	movwf	(___fltol@f1+1)^(0+384)
  1696     0ECE  0852               	movf	?___fladd^(0+384),w
  1697     0ECF  00E6               	movwf	___fltol@f1^(0+384)
  1698     0ED0  160A  158A  2255  120A  158A  	fcall	___fltol
  1699     0ED5  1683               	bsf	3,5	;RP0=1, select bank3
  1700     0ED6  1703               	bsf	3,6	;RP1=1, select bank3
  1701     0ED7  0866               	movf	?___fltol^(0+384),w
  1702     0ED8  1283               	bcf	3,5	;RP0=0, select bank2
  1703     0ED9  1703               	bsf	3,6	;RP1=1, select bank2
  1704     0EDA  00B7               	movwf	_ang2^(0+256)
  1705     0EDB                     l4701:
  1706                           
  1707                           ;Progra_IRONMAN.c: 292:             valorPot1 = 0.6*valor_uart;
  1708     0EDB  0835               	movf	_valor_uart^(0+256),w
  1709     0EDC  1683               	bsf	3,5	;RP0=1, select bank3
  1710     0EDD  1703               	bsf	3,6	;RP1=1, select bank3
  1711     0EDE  0090               	movwf	___xxtofl@val^(0+384)
  1712     0EDF  1283               	bcf	3,5	;RP0=0, select bank2
  1713     0EE0  1703               	bsf	3,6	;RP1=1, select bank2
  1714     0EE1  0836               	movf	(_valor_uart+1)^(0+256),w
  1715     0EE2  1683               	bsf	3,5	;RP0=1, select bank3
  1716     0EE3  1703               	bsf	3,6	;RP1=1, select bank3
  1717     0EE4  0091               	movwf	(___xxtofl@val+1)^(0+384)
  1718     0EE5  3000               	movlw	0
  1719     0EE6  1B91               	btfsc	(___xxtofl@val+1)^(0+384),7
  1720     0EE7  30FF               	movlw	255
  1721     0EE8  0092               	movwf	(___xxtofl@val+2)^(0+384)
  1722     0EE9  0093               	movwf	(___xxtofl@val+3)^(0+384)
  1723     0EEA  3001               	movlw	1
  1724     0EEB  160A  118A  20C3  120A  158A  	fcall	___xxtofl
  1725     0EF0  1683               	bsf	3,5	;RP0=1, select bank3
  1726     0EF1  1703               	bsf	3,6	;RP1=1, select bank3
  1727     0EF2  0813               	movf	(?___xxtofl+3)^(0+384),w
  1728     0EF3  00BF               	movwf	(___flmul@a+3)^(0+384)
  1729     0EF4  0812               	movf	(?___xxtofl+2)^(0+384),w
  1730     0EF5  00BE               	movwf	(___flmul@a+2)^(0+384)
  1731     0EF6  0811               	movf	(?___xxtofl+1)^(0+384),w
  1732     0EF7  00BD               	movwf	(___flmul@a+1)^(0+384)
  1733     0EF8  0810               	movf	?___xxtofl^(0+384),w
  1734     0EF9  00BC               	movwf	___flmul@a^(0+384)
  1735     0EFA  303F               	movlw	63
  1736     0EFB  00BB               	movwf	(___flmul@b+3)^(0+384)
  1737     0EFC  3019               	movlw	25
  1738     0EFD  00BA               	movwf	(___flmul@b+2)^(0+384)
  1739     0EFE  3099               	movlw	153
  1740     0EFF  00B9               	movwf	(___flmul@b+1)^(0+384)
  1741     0F00  309A               	movlw	154
  1742     0F01  00B8               	movwf	___flmul@b^(0+384)
  1743     0F02  120A  118A  203F  120A  158A  	fcall	___flmul
  1744     0F07  1683               	bsf	3,5	;RP0=1, select bank3
  1745     0F08  1703               	bsf	3,6	;RP1=1, select bank3
  1746     0F09  083B               	movf	(?___flmul+3)^(0+384),w
  1747     0F0A  00E9               	movwf	(___fltol@f1+3)^(0+384)
  1748     0F0B  083A               	movf	(?___flmul+2)^(0+384),w
  1749     0F0C  00E8               	movwf	(___fltol@f1+2)^(0+384)
  1750     0F0D  0839               	movf	(?___flmul+1)^(0+384),w
  1751     0F0E  00E7               	movwf	(___fltol@f1+1)^(0+384)
  1752     0F0F  0838               	movf	?___flmul^(0+384),w
  1753     0F10  00E6               	movwf	___fltol@f1^(0+384)
  1754     0F11  160A  158A  2255  120A  158A  	fcall	___fltol
  1755     0F16  1683               	bsf	3,5	;RP0=1, select bank3
  1756     0F17  1703               	bsf	3,6	;RP1=1, select bank3
  1757     0F18  0867               	movf	(?___fltol+1)^(0+384),w
  1758     0F19  1683               	bsf	3,5	;RP0=1, select bank1
  1759     0F1A  1303               	bcf	3,6	;RP1=0, select bank1
  1760     0F1B  00D0               	movwf	(_valorPot1+1)^(0+128)
  1761     0F1C  1683               	bsf	3,5	;RP0=1, select bank3
  1762     0F1D  1703               	bsf	3,6	;RP1=1, select bank3
  1763     0F1E  0866               	movf	?___fltol^(0+384),w
  1764     0F1F  1683               	bsf	3,5	;RP0=1, select bank1
  1765     0F20  1303               	bcf	3,6	;RP1=0, select bank1
  1766     0F21  00CF               	movwf	_valorPot1^(0+128)
  1767     0F22                     l4703:
  1768                           
  1769                           ;Progra_IRONMAN.c: 293:             PWM_duty(1, 0.00025f*((valorPot1)/255.0f));
  1770     0F22  3039               	movlw	57
  1771     0F23  1683               	bsf	3,5	;RP0=1, select bank3
  1772     0F24  1703               	bsf	3,6	;RP1=1, select bank3
  1773     0F25  00BB               	movwf	(___flmul@b+3)^(0+384)
  1774     0F26  3083               	movlw	131
  1775     0F27  00BA               	movwf	(___flmul@b+2)^(0+384)
  1776     0F28  3012               	movlw	18
  1777     0F29  00B9               	movwf	(___flmul@b+1)^(0+384)
  1778     0F2A  306F               	movlw	111
  1779     0F2B  00B8               	movwf	___flmul@b^(0+384)
  1780     0F2C  3043               	movlw	67
  1781     0F2D  00A1               	movwf	(___fldiv@a+3)^(0+384)
  1782     0F2E  307F               	movlw	127
  1783     0F2F  00A0               	movwf	(___fldiv@a+2)^(0+384)
  1784     0F30  3000               	movlw	0
  1785     0F31  009F               	movwf	(___fldiv@a+1)^(0+384)
  1786     0F32  3000               	movlw	0
  1787     0F33  009E               	movwf	___fldiv@a^(0+384)
  1788     0F34  1683               	bsf	3,5	;RP0=1, select bank1
  1789     0F35  1303               	bcf	3,6	;RP1=0, select bank1
  1790     0F36  084F               	movf	_valorPot1^(0+128),w
  1791     0F37  1683               	bsf	3,5	;RP0=1, select bank3
  1792     0F38  1703               	bsf	3,6	;RP1=1, select bank3
  1793     0F39  0090               	movwf	___xxtofl@val^(0+384)
  1794     0F3A  1683               	bsf	3,5	;RP0=1, select bank1
  1795     0F3B  1303               	bcf	3,6	;RP1=0, select bank1
  1796     0F3C  0850               	movf	(_valorPot1+1)^(0+128),w
  1797     0F3D  1683               	bsf	3,5	;RP0=1, select bank3
  1798     0F3E  1703               	bsf	3,6	;RP1=1, select bank3
  1799     0F3F  0091               	movwf	(___xxtofl@val+1)^(0+384)
  1800     0F40  3000               	movlw	0
  1801     0F41  1B91               	btfsc	(___xxtofl@val+1)^(0+384),7
  1802     0F42  30FF               	movlw	255
  1803     0F43  0092               	movwf	(___xxtofl@val+2)^(0+384)
  1804     0F44  0093               	movwf	(___xxtofl@val+3)^(0+384)
  1805     0F45  3001               	movlw	1
  1806     0F46  160A  118A  20C3  120A  158A  	fcall	___xxtofl
  1807     0F4B  1683               	bsf	3,5	;RP0=1, select bank3
  1808     0F4C  1703               	bsf	3,6	;RP1=1, select bank3
  1809     0F4D  0813               	movf	(?___xxtofl+3)^(0+384),w
  1810     0F4E  00A5               	movwf	(___fldiv@b+3)^(0+384)
  1811     0F4F  0812               	movf	(?___xxtofl+2)^(0+384),w
  1812     0F50  00A4               	movwf	(___fldiv@b+2)^(0+384)
  1813     0F51  0811               	movf	(?___xxtofl+1)^(0+384),w
  1814     0F52  00A3               	movwf	(___fldiv@b+1)^(0+384)
  1815     0F53  0810               	movf	?___xxtofl^(0+384),w
  1816     0F54  00A2               	movwf	___fldiv@b^(0+384)
  1817     0F55  160A  118A  217D  120A  158A  	fcall	___fldiv
  1818     0F5A  1683               	bsf	3,5	;RP0=1, select bank3
  1819     0F5B  1703               	bsf	3,6	;RP1=1, select bank3
  1820     0F5C  0821               	movf	(?___fldiv+3)^(0+384),w
  1821     0F5D  00BF               	movwf	(___flmul@a+3)^(0+384)
  1822     0F5E  0820               	movf	(?___fldiv+2)^(0+384),w
  1823     0F5F  00BE               	movwf	(___flmul@a+2)^(0+384)
  1824     0F60  081F               	movf	(?___fldiv+1)^(0+384),w
  1825     0F61  00BD               	movwf	(___flmul@a+1)^(0+384)
  1826     0F62  081E               	movf	?___fldiv^(0+384),w
  1827     0F63  00BC               	movwf	___flmul@a^(0+384)
  1828     0F64  120A  118A  203F  120A  158A  	fcall	___flmul
  1829     0F69  1683               	bsf	3,5	;RP0=1, select bank3
  1830     0F6A  1703               	bsf	3,6	;RP1=1, select bank3
  1831     0F6B  083B               	movf	(?___flmul+3)^(0+384),w
  1832     0F6C  1283               	bcf	3,5	;RP0=0, select bank2
  1833     0F6D  1703               	bsf	3,6	;RP1=1, select bank2
  1834     0F6E  00AA               	movwf	(_main$1324+3)^(0+256)
  1835     0F6F  1683               	bsf	3,5	;RP0=1, select bank3
  1836     0F70  1703               	bsf	3,6	;RP1=1, select bank3
  1837     0F71  083A               	movf	(?___flmul+2)^(0+384),w
  1838     0F72  1283               	bcf	3,5	;RP0=0, select bank2
  1839     0F73  1703               	bsf	3,6	;RP1=1, select bank2
  1840     0F74  00A9               	movwf	(_main$1324+2)^(0+256)
  1841     0F75  1683               	bsf	3,5	;RP0=1, select bank3
  1842     0F76  1703               	bsf	3,6	;RP1=1, select bank3
  1843     0F77  0839               	movf	(?___flmul+1)^(0+384),w
  1844     0F78  1283               	bcf	3,5	;RP0=0, select bank2
  1845     0F79  1703               	bsf	3,6	;RP1=1, select bank2
  1846     0F7A  00A8               	movwf	(_main$1324+1)^(0+256)
  1847     0F7B  1683               	bsf	3,5	;RP0=1, select bank3
  1848     0F7C  1703               	bsf	3,6	;RP1=1, select bank3
  1849     0F7D  0838               	movf	?___flmul^(0+384),w
  1850     0F7E  1283               	bcf	3,5	;RP0=0, select bank2
  1851     0F7F  1703               	bsf	3,6	;RP1=1, select bank2
  1852     0F80  00A7               	movwf	_main$1324^(0+256)
  1853     0F81                     l4705:
  1854                           
  1855                           ;Progra_IRONMAN.c: 293:             PWM_duty(1, 0.00025f*((valorPot1)/255.0f));
  1856     0F81  082A               	movf	(_main$1324+3)^(0+256),w
  1857     0F82  0093               	movwf	(PWM_duty@duty+3)^(0+256)
  1858     0F83  0829               	movf	(_main$1324+2)^(0+256),w
  1859     0F84  0092               	movwf	(PWM_duty@duty+2)^(0+256)
  1860     0F85  0828               	movf	(_main$1324+1)^(0+256),w
  1861     0F86  0091               	movwf	(PWM_duty@duty+1)^(0+256)
  1862     0F87  0827               	movf	_main$1324^(0+256),w
  1863     0F88  0090               	movwf	PWM_duty@duty^(0+256)
  1864     0F89  3001               	movlw	1
  1865     0F8A  120A  118A  26C9  120A  158A  	fcall	_PWM_duty
  1866     0F8F                     l4707:
  1867                           
  1868                           ;Progra_IRONMAN.c: 296:             PWM_duty(2, 0.00025f*((valor_uart)/255.0f));
  1869     0F8F  3039               	movlw	57
  1870     0F90  1683               	bsf	3,5	;RP0=1, select bank3
  1871     0F91  1703               	bsf	3,6	;RP1=1, select bank3
  1872     0F92  00BB               	movwf	(___flmul@b+3)^(0+384)
  1873     0F93  3083               	movlw	131
  1874     0F94  00BA               	movwf	(___flmul@b+2)^(0+384)
  1875     0F95  3012               	movlw	18
  1876     0F96  00B9               	movwf	(___flmul@b+1)^(0+384)
  1877     0F97  306F               	movlw	111
  1878     0F98  00B8               	movwf	___flmul@b^(0+384)
  1879     0F99  3043               	movlw	67
  1880     0F9A  00A1               	movwf	(___fldiv@a+3)^(0+384)
  1881     0F9B  307F               	movlw	127
  1882     0F9C  00A0               	movwf	(___fldiv@a+2)^(0+384)
  1883     0F9D  3000               	movlw	0
  1884     0F9E  009F               	movwf	(___fldiv@a+1)^(0+384)
  1885     0F9F  3000               	movlw	0
  1886     0FA0  009E               	movwf	___fldiv@a^(0+384)
  1887     0FA1  1283               	bcf	3,5	;RP0=0, select bank2
  1888     0FA2  1703               	bsf	3,6	;RP1=1, select bank2
  1889     0FA3  0835               	movf	_valor_uart^(0+256),w
  1890     0FA4  1683               	bsf	3,5	;RP0=1, select bank3
  1891     0FA5  1703               	bsf	3,6	;RP1=1, select bank3
  1892     0FA6  0090               	movwf	___xxtofl@val^(0+384)
  1893     0FA7  1283               	bcf	3,5	;RP0=0, select bank2
  1894     0FA8  1703               	bsf	3,6	;RP1=1, select bank2
  1895     0FA9  0836               	movf	(_valor_uart+1)^(0+256),w
  1896     0FAA  1683               	bsf	3,5	;RP0=1, select bank3
  1897     0FAB  1703               	bsf	3,6	;RP1=1, select bank3
  1898     0FAC  0091               	movwf	(___xxtofl@val+1)^(0+384)
  1899     0FAD  3000               	movlw	0
  1900     0FAE  1B91               	btfsc	(___xxtofl@val+1)^(0+384),7
  1901     0FAF  30FF               	movlw	255
  1902     0FB0  0092               	movwf	(___xxtofl@val+2)^(0+384)
  1903     0FB1  0093               	movwf	(___xxtofl@val+3)^(0+384)
  1904     0FB2  3001               	movlw	1
  1905     0FB3  160A  118A  20C3  120A  158A  	fcall	___xxtofl
  1906     0FB8  1683               	bsf	3,5	;RP0=1, select bank3
  1907     0FB9  1703               	bsf	3,6	;RP1=1, select bank3
  1908     0FBA  0813               	movf	(?___xxtofl+3)^(0+384),w
  1909     0FBB  00A5               	movwf	(___fldiv@b+3)^(0+384)
  1910     0FBC  0812               	movf	(?___xxtofl+2)^(0+384),w
  1911     0FBD  00A4               	movwf	(___fldiv@b+2)^(0+384)
  1912     0FBE  0811               	movf	(?___xxtofl+1)^(0+384),w
  1913     0FBF  00A3               	movwf	(___fldiv@b+1)^(0+384)
  1914     0FC0  0810               	movf	?___xxtofl^(0+384),w
  1915     0FC1  00A2               	movwf	___fldiv@b^(0+384)
  1916     0FC2  160A  118A  217D  120A  158A  	fcall	___fldiv
  1917     0FC7  1683               	bsf	3,5	;RP0=1, select bank3
  1918     0FC8  1703               	bsf	3,6	;RP1=1, select bank3
  1919     0FC9  0821               	movf	(?___fldiv+3)^(0+384),w
  1920     0FCA  00BF               	movwf	(___flmul@a+3)^(0+384)
  1921     0FCB  0820               	movf	(?___fldiv+2)^(0+384),w
  1922     0FCC  00BE               	movwf	(___flmul@a+2)^(0+384)
  1923     0FCD  081F               	movf	(?___fldiv+1)^(0+384),w
  1924     0FCE  00BD               	movwf	(___flmul@a+1)^(0+384)
  1925     0FCF  081E               	movf	?___fldiv^(0+384),w
  1926     0FD0  00BC               	movwf	___flmul@a^(0+384)
  1927     0FD1  120A  118A  203F  120A  158A  	fcall	___flmul
  1928     0FD6  1683               	bsf	3,5	;RP0=1, select bank3
  1929     0FD7  1703               	bsf	3,6	;RP1=1, select bank3
  1930     0FD8  083B               	movf	(?___flmul+3)^(0+384),w
  1931     0FD9  1283               	bcf	3,5	;RP0=0, select bank2
  1932     0FDA  1703               	bsf	3,6	;RP1=1, select bank2
  1933     0FDB  00AA               	movwf	(_main$1324+3)^(0+256)
  1934     0FDC  1683               	bsf	3,5	;RP0=1, select bank3
  1935     0FDD  1703               	bsf	3,6	;RP1=1, select bank3
  1936     0FDE  083A               	movf	(?___flmul+2)^(0+384),w
  1937     0FDF  1283               	bcf	3,5	;RP0=0, select bank2
  1938     0FE0  1703               	bsf	3,6	;RP1=1, select bank2
  1939     0FE1  00A9               	movwf	(_main$1324+2)^(0+256)
  1940     0FE2  1683               	bsf	3,5	;RP0=1, select bank3
  1941     0FE3  1703               	bsf	3,6	;RP1=1, select bank3
  1942     0FE4  0839               	movf	(?___flmul+1)^(0+384),w
  1943     0FE5  1283               	bcf	3,5	;RP0=0, select bank2
  1944     0FE6  1703               	bsf	3,6	;RP1=1, select bank2
  1945     0FE7  00A8               	movwf	(_main$1324+1)^(0+256)
  1946     0FE8  1683               	bsf	3,5	;RP0=1, select bank3
  1947     0FE9  1703               	bsf	3,6	;RP1=1, select bank3
  1948     0FEA  0838               	movf	?___flmul^(0+384),w
  1949     0FEB  1283               	bcf	3,5	;RP0=0, select bank2
  1950     0FEC  1703               	bsf	3,6	;RP1=1, select bank2
  1951     0FED  00A7               	movwf	_main$1324^(0+256)
  1952     0FEE                     l4709:
  1953                           
  1954                           ;Progra_IRONMAN.c: 296:             PWM_duty(2, 0.00025f*((valor_uart)/255.0f));
  1955     0FEE  082A               	movf	(_main$1324+3)^(0+256),w
  1956     0FEF  0093               	movwf	(PWM_duty@duty+3)^(0+256)
  1957     0FF0  0829               	movf	(_main$1324+2)^(0+256),w
  1958     0FF1  0092               	movwf	(PWM_duty@duty+2)^(0+256)
  1959     0FF2  0828               	movf	(_main$1324+1)^(0+256),w
  1960     0FF3  0091               	movwf	(PWM_duty@duty+1)^(0+256)
  1961     0FF4  0827               	movf	_main$1324^(0+256),w
  1962     0FF5  0090               	movwf	PWM_duty@duty^(0+256)
  1963     0FF6  3002               	movlw	2
  1964     0FF7  120A  118A  26C9  120A  158A  	fcall	_PWM_duty
  1965     0FFC  2CF0               	goto	l4627
  1966     0FFD  120A  118A  2812   	ljmp	start
  1967     1000                     __end_of_main:
  1968                           
  1969                           	psect	text1
  1970     1BC7                     __ptext1:	
  1971 ;; *************** function _setup *****************
  1972 ;; Defined at:
  1973 ;;		line 303 in file "Progra_IRONMAN.c"
  1974 ;; Parameters:    Size  Location     Type
  1975 ;;		None
  1976 ;; Auto vars:     Size  Location     Type
  1977 ;;		None
  1978 ;; Return value:  Size  Location     Type
  1979 ;;                  1    wreg      void 
  1980 ;; Registers used:
  1981 ;;		wreg, status,2, status,0, btemp+1, pclath, cstack
  1982 ;; Tracked objects:
  1983 ;;		On entry : 0/0
  1984 ;;		On exit  : 0/0
  1985 ;;		Unchanged: 0/0
  1986 ;; Data sizes:     COMMON   BANK0   BANK1   BANK3   BANK2
  1987 ;;      Params:         0       0       0       0       0
  1988 ;;      Locals:         0       0       0       0       0
  1989 ;;      Temps:          0       0       0       0       1
  1990 ;;      Totals:         0       0       0       0       1
  1991 ;;Total ram usage:        1 bytes
  1992 ;; Hardware stack levels used: 1
  1993 ;; Hardware stack levels required when called: 8
  1994 ;; This function calls:
  1995 ;;		_PWM_config
  1996 ;;		_PWM_duty
  1997 ;; This function is called by:
  1998 ;;		_main
  1999 ;; This function uses a non-reentrant model
  2000 ;;
  2001                           
  2002     1BC7                     _setup:	
  2003                           ;psect for function _setup
  2004                           
  2005     1BC7                     l4465:	
  2006                           ;incstack = 0
  2007 ;; hardware stack exceeded
  2008                           ; Regs used in _setup: [wreg+status,2+status,0+btemp+1+pclath+cstack]
  2009                           
  2010                           
  2011                           ;Progra_IRONMAN.c: 305:     ANSELbits.ANS0 = 1;
  2012     1BC7  1683               	bsf	3,5	;RP0=1, select bank3
  2013     1BC8  1703               	bsf	3,6	;RP1=1, select bank3
  2014     1BC9  1408               	bsf	8,0	;volatile
  2015                           
  2016                           ;Progra_IRONMAN.c: 306:     ANSELbits.ANS1 = 1;
  2017     1BCA  1488               	bsf	8,1	;volatile
  2018                           
  2019                           ;Progra_IRONMAN.c: 307:     ANSELbits.ANS2 = 1;
  2020     1BCB  1508               	bsf	8,2	;volatile
  2021                           
  2022                           ;Progra_IRONMAN.c: 308:     ANSELbits.ANS3 = 1;
  2023     1BCC  1588               	bsf	8,3	;volatile
  2024                           
  2025                           ;Progra_IRONMAN.c: 309:     ANSELbits.ANS4 = 1;
  2026     1BCD  1608               	bsf	8,4	;volatile
  2027     1BCE                     l4467:
  2028                           
  2029                           ;Progra_IRONMAN.c: 310:     ANSELH = 0;
  2030     1BCE  0189               	clrf	9	;volatile
  2031     1BCF                     l4469:
  2032                           
  2033                           ;Progra_IRONMAN.c: 313:     TRISB = 0b11111111;
  2034     1BCF  30FF               	movlw	255
  2035     1BD0  1683               	bsf	3,5	;RP0=1, select bank1
  2036     1BD1  1303               	bcf	3,6	;RP1=0, select bank1
  2037     1BD2  0086               	movwf	6	;volatile
  2038     1BD3                     l4471:
  2039                           
  2040                           ;Progra_IRONMAN.c: 314:     TRISA = 0b11111111;
  2041     1BD3  30FF               	movlw	255
  2042     1BD4  0085               	movwf	5	;volatile
  2043     1BD5                     l4473:
  2044                           
  2045                           ;Progra_IRONMAN.c: 315:     TRISC = 0b11000000;
  2046     1BD5  30C0               	movlw	192
  2047     1BD6  0087               	movwf	7	;volatile
  2048     1BD7                     l4475:
  2049                           
  2050                           ;Progra_IRONMAN.c: 316:     TRISD = 0;
  2051     1BD7  0188               	clrf	8	;volatile
  2052     1BD8                     l4477:
  2053                           
  2054                           ;Progra_IRONMAN.c: 317:     TRISE = 0;
  2055     1BD8  0189               	clrf	9	;volatile
  2056     1BD9                     l4479:
  2057                           
  2058                           ;Progra_IRONMAN.c: 320:     modo = 0;
  2059     1BD9  01D1               	clrf	_modo^(0+128)
  2060     1BDA  01D2               	clrf	(_modo+1)^(0+128)
  2061     1BDB                     l4481:
  2062                           
  2063                           ;Progra_IRONMAN.c: 321:     PORTA = 0;
  2064     1BDB  1283               	bcf	3,5	;RP0=0, select bank0
  2065     1BDC  1303               	bcf	3,6	;RP1=0, select bank0
  2066     1BDD  0185               	clrf	5	;volatile
  2067     1BDE                     l4483:
  2068                           
  2069                           ;Progra_IRONMAN.c: 322:     PORTB = 0;
  2070     1BDE  0186               	clrf	6	;volatile
  2071     1BDF                     l4485:
  2072                           
  2073                           ;Progra_IRONMAN.c: 323:     PORTC = 0;
  2074     1BDF  0187               	clrf	7	;volatile
  2075     1BE0                     l4487:
  2076                           
  2077                           ;Progra_IRONMAN.c: 324:     PORTD = 0;
  2078     1BE0  0188               	clrf	8	;volatile
  2079     1BE1                     l4489:
  2080                           
  2081                           ;Progra_IRONMAN.c: 325:     PORTE = 0;
  2082     1BE1  0189               	clrf	9	;volatile
  2083     1BE2                     l4491:
  2084                           
  2085                           ;Progra_IRONMAN.c: 327:     OPTION_REGbits.nRBPU = 0;
  2086     1BE2  1683               	bsf	3,5	;RP0=1, select bank1
  2087     1BE3  1303               	bcf	3,6	;RP1=0, select bank1
  2088     1BE4  1381               	bcf	1,7	;volatile
  2089     1BE5                     l4493:
  2090                           
  2091                           ;Progra_IRONMAN.c: 328:     IOCB = 0b11111111;
  2092     1BE5  30FF               	movlw	255
  2093     1BE6  0096               	movwf	22	;volatile
  2094     1BE7                     l4495:
  2095                           
  2096                           ;Progra_IRONMAN.c: 330:     OSCCONbits.IRCF = 0b110 ;
  2097     1BE7  080F               	movf	15,w	;volatile
  2098     1BE8  398F               	andlw	-113
  2099     1BE9  3860               	iorlw	96
  2100     1BEA  008F               	movwf	15	;volatile
  2101     1BEB                     l4497:
  2102                           
  2103                           ;Progra_IRONMAN.c: 331:     OSCCONbits.SCS = 1;
  2104     1BEB  140F               	bsf	15,0	;volatile
  2105     1BEC                     l4499:
  2106                           
  2107                           ;Progra_IRONMAN.c: 336:     OPTION_REGbits.T0CS = 0;
  2108     1BEC  1281               	bcf	1,5	;volatile
  2109     1BED                     l4501:
  2110                           
  2111                           ;Progra_IRONMAN.c: 337:     OPTION_REGbits.PSA = 0;
  2112     1BED  1181               	bcf	1,3	;volatile
  2113     1BEE                     l4503:
  2114                           
  2115                           ;Progra_IRONMAN.c: 338:     OPTION_REGbits.PS2 = 1;
  2116     1BEE  1501               	bsf	1,2	;volatile
  2117     1BEF                     l4505:
  2118                           
  2119                           ;Progra_IRONMAN.c: 339:     OPTION_REGbits.PS1 = 0;
  2120     1BEF  1081               	bcf	1,1	;volatile
  2121     1BF0                     l4507:
  2122                           
  2123                           ;Progra_IRONMAN.c: 340:     OPTION_REGbits.PS0 = 1;
  2124     1BF0  1401               	bsf	1,0	;volatile
  2125     1BF1                     l4509:
  2126                           
  2127                           ;Progra_IRONMAN.c: 341:     TMR0 = 0;
  2128     1BF1  1283               	bcf	3,5	;RP0=0, select bank0
  2129     1BF2  1303               	bcf	3,6	;RP1=0, select bank0
  2130     1BF3  0181               	clrf	1	;volatile
  2131     1BF4                     l4511:
  2132                           
  2133                           ;Progra_IRONMAN.c: 344:     INTCONbits.RBIF = 0;
  2134     1BF4  100B               	bcf	11,0	;volatile
  2135     1BF5                     l4513:
  2136                           
  2137                           ;Progra_IRONMAN.c: 345:     INTCONbits.RBIE = 1;
  2138     1BF5  158B               	bsf	11,3	;volatile
  2139     1BF6                     l4515:
  2140                           
  2141                           ;Progra_IRONMAN.c: 346:     INTCONbits.T0IF = 0;
  2142     1BF6  110B               	bcf	11,2	;volatile
  2143     1BF7                     l4517:
  2144                           
  2145                           ;Progra_IRONMAN.c: 347:     INTCONbits.T0IE = 1;
  2146     1BF7  168B               	bsf	11,5	;volatile
  2147     1BF8                     l4519:
  2148                           
  2149                           ;Progra_IRONMAN.c: 348:     PIR1bits.ADIF = 0;
  2150     1BF8  130C               	bcf	12,6	;volatile
  2151     1BF9                     l4521:
  2152                           
  2153                           ;Progra_IRONMAN.c: 349:     INTCONbits.PEIE = 1;
  2154     1BF9  170B               	bsf	11,6	;volatile
  2155     1BFA                     l4523:
  2156                           
  2157                           ;Progra_IRONMAN.c: 350:     PIE1bits.ADIE = 1;
  2158     1BFA  1683               	bsf	3,5	;RP0=1, select bank1
  2159     1BFB  1303               	bcf	3,6	;RP1=0, select bank1
  2160     1BFC  170C               	bsf	12,6	;volatile
  2161     1BFD                     l4525:
  2162                           
  2163                           ;Progra_IRONMAN.c: 351:     INTCONbits.GIE = 1;
  2164     1BFD  178B               	bsf	11,7	;volatile
  2165     1BFE                     l4527:
  2166                           
  2167                           ;Progra_IRONMAN.c: 352:     ADCON0bits.GO = 1;
  2168     1BFE  1283               	bcf	3,5	;RP0=0, select bank0
  2169     1BFF  1303               	bcf	3,6	;RP1=0, select bank0
  2170     1C00  149F               	bsf	31,1	;volatile
  2171                           
  2172                           ;Progra_IRONMAN.c: 355:     ADCON0bits.CHS = 0b0000;
  2173     1C01  30C3               	movlw	-61
  2174     1C02  059F               	andwf	31,f	;volatile
  2175     1C03                     l4529:
  2176                           
  2177                           ;Progra_IRONMAN.c: 356:     ADCON1bits.VCFG0 = 0;
  2178     1C03  1683               	bsf	3,5	;RP0=1, select bank1
  2179     1C04  1303               	bcf	3,6	;RP1=0, select bank1
  2180     1C05  121F               	bcf	31,4	;volatile
  2181     1C06                     l4531:
  2182                           
  2183                           ;Progra_IRONMAN.c: 357:     ADCON1bits.VCFG1 = 0;
  2184     1C06  129F               	bcf	31,5	;volatile
  2185                           
  2186                           ;Progra_IRONMAN.c: 358:     ADCON0bits.ADCS = 0b10;
  2187     1C07  1283               	bcf	3,5	;RP0=0, select bank0
  2188     1C08  1303               	bcf	3,6	;RP1=0, select bank0
  2189     1C09  081F               	movf	31,w	;volatile
  2190     1C0A  393F               	andlw	-193
  2191     1C0B  3880               	iorlw	128
  2192     1C0C  009F               	movwf	31	;volatile
  2193     1C0D                     l4533:
  2194                           
  2195                           ;Progra_IRONMAN.c: 360:     ADCON1bits.ADFM = 0;
  2196     1C0D  1683               	bsf	3,5	;RP0=1, select bank1
  2197     1C0E  1303               	bcf	3,6	;RP1=0, select bank1
  2198     1C0F  139F               	bcf	31,7	;volatile
  2199     1C10                     l4535:
  2200                           
  2201                           ;Progra_IRONMAN.c: 361:     ADCON0bits.ADON = 1;
  2202     1C10  1283               	bcf	3,5	;RP0=0, select bank0
  2203     1C11  1303               	bcf	3,6	;RP1=0, select bank0
  2204     1C12  141F               	bsf	31,0	;volatile
  2205     1C13                     l4537:
  2206                           
  2207                           ;Progra_IRONMAN.c: 362:      _delay((unsigned long)((1)*(4000000/4000.0)));
  2208     1C13  30C7               	movlw	199
  2209     1C14  1283               	bcf	3,5	;RP0=0, select bank2
  2210     1C15  1703               	bsf	3,6	;RP1=1, select bank2
  2211     1C16  009C               	movwf	??_setup^(0+256)
  2212     1C17                     u7847:
  2213     1C17  2C18               	nop2
  2214     1C18  0B9C               	decfsz	??_setup^(0+256),f
  2215     1C19  2C17               	goto	u7847
  2216     1C1A  2C1B               	nop2
  2217     1C1B                     l4539:
  2218                           
  2219                           ;Progra_IRONMAN.c: 365:     PWM_config(1, 0.020f);
  2220     1C1B  303C               	movlw	60
  2221     1C1C  1283               	bcf	3,5	;RP0=0, select bank2
  2222     1C1D  1703               	bsf	3,6	;RP1=1, select bank2
  2223     1C1E  0093               	movwf	(PWM_config@periodo_ms+3)^(0+256)
  2224     1C1F  30A3               	movlw	163
  2225     1C20  0092               	movwf	(PWM_config@periodo_ms+2)^(0+256)
  2226     1C21  30D7               	movlw	215
  2227     1C22  0091               	movwf	(PWM_config@periodo_ms+1)^(0+256)
  2228     1C23  300A               	movlw	10
  2229     1C24  0090               	movwf	PWM_config@periodo_ms^(0+256)
  2230     1C25  3001               	movlw	1
  2231     1C26  160A  158A  22CD  160A  158A  	fcall	_PWM_config
  2232     1C2B                     l4541:
  2233                           
  2234                           ;Progra_IRONMAN.c: 366:     PWM_duty(1, 0.00025f);
  2235     1C2B  3039               	movlw	57
  2236     1C2C  1283               	bcf	3,5	;RP0=0, select bank2
  2237     1C2D  1703               	bsf	3,6	;RP1=1, select bank2
  2238     1C2E  0093               	movwf	(PWM_duty@duty+3)^(0+256)
  2239     1C2F  3083               	movlw	131
  2240     1C30  0092               	movwf	(PWM_duty@duty+2)^(0+256)
  2241     1C31  3012               	movlw	18
  2242     1C32  0091               	movwf	(PWM_duty@duty+1)^(0+256)
  2243     1C33  306F               	movlw	111
  2244     1C34  0090               	movwf	PWM_duty@duty^(0+256)
  2245     1C35  3001               	movlw	1
  2246     1C36  120A  118A  26C9  160A  158A  	fcall	_PWM_duty
  2247     1C3B                     l4543:
  2248                           
  2249                           ;Progra_IRONMAN.c: 367:     PWM_config(2, 0.020f);
  2250     1C3B  303C               	movlw	60
  2251     1C3C  1283               	bcf	3,5	;RP0=0, select bank2
  2252     1C3D  1703               	bsf	3,6	;RP1=1, select bank2
  2253     1C3E  0093               	movwf	(PWM_config@periodo_ms+3)^(0+256)
  2254     1C3F  30A3               	movlw	163
  2255     1C40  0092               	movwf	(PWM_config@periodo_ms+2)^(0+256)
  2256     1C41  30D7               	movlw	215
  2257     1C42  0091               	movwf	(PWM_config@periodo_ms+1)^(0+256)
  2258     1C43  300A               	movlw	10
  2259     1C44  0090               	movwf	PWM_config@periodo_ms^(0+256)
  2260     1C45  3002               	movlw	2
  2261     1C46  160A  158A  22CD  160A  158A  	fcall	_PWM_config
  2262     1C4B                     l4545:
  2263                           
  2264                           ;Progra_IRONMAN.c: 368:     PWM_duty(2, 0.00025f);
  2265     1C4B  3039               	movlw	57
  2266     1C4C  1283               	bcf	3,5	;RP0=0, select bank2
  2267     1C4D  1703               	bsf	3,6	;RP1=1, select bank2
  2268     1C4E  0093               	movwf	(PWM_duty@duty+3)^(0+256)
  2269     1C4F  3083               	movlw	131
  2270     1C50  0092               	movwf	(PWM_duty@duty+2)^(0+256)
  2271     1C51  3012               	movlw	18
  2272     1C52  0091               	movwf	(PWM_duty@duty+1)^(0+256)
  2273     1C53  306F               	movlw	111
  2274     1C54  0090               	movwf	PWM_duty@duty^(0+256)
  2275     1C55  3002               	movlw	2
  2276     1C56  120A  118A  26C9  160A  158A  	fcall	_PWM_duty
  2277     1C5B                     l231:
  2278     1C5B  0008               	return
  2279     1C5C                     __end_of_setup:
  2280                           
  2281                           	psect	text2
  2282     06C9                     __ptext2:	
  2283 ;; *************** function _PWM_duty *****************
  2284 ;; Defined at:
  2285 ;;		line 34 in file "PWM_SERVO1.c"
  2286 ;; Parameters:    Size  Location     Type
  2287 ;;  canal           1    wreg     unsigned char 
  2288 ;;  duty            4    0[BANK2 ] float 
  2289 ;; Auto vars:     Size  Location     Type
  2290 ;;  canal           1    7[BANK2 ] unsigned char 
  2291 ;;  particion2      2   10[BANK2 ] int 
  2292 ;;  particion1      2    8[BANK2 ] int 
  2293 ;; Return value:  Size  Location     Type
  2294 ;;                  1    wreg      void 
  2295 ;; Registers used:
  2296 ;;		wreg, status,2, status,0, btemp+1, pclath, cstack
  2297 ;; Tracked objects:
  2298 ;;		On entry : 0/0
  2299 ;;		On exit  : 0/0
  2300 ;;		Unchanged: 0/0
  2301 ;; Data sizes:     COMMON   BANK0   BANK1   BANK3   BANK2
  2302 ;;      Params:         0       0       0       0       4
  2303 ;;      Locals:         0       0       0       0       5
  2304 ;;      Temps:          0       0       0       0       3
  2305 ;;      Totals:         0       0       0       0      12
  2306 ;;Total ram usage:       12 bytes
  2307 ;; Hardware stack levels used: 1
  2308 ;; Hardware stack levels required when called: 7
  2309 ;; This function calls:
  2310 ;;		___fldiv
  2311 ;;		___flmul
  2312 ;;		___fltol
  2313 ;; This function is called by:
  2314 ;;		_main
  2315 ;;		_setup
  2316 ;; This function uses a non-reentrant model
  2317 ;;
  2318                           
  2319     06C9                     _PWM_duty:	
  2320                           ;psect for function _PWM_duty
  2321                           
  2322                           
  2323                           ;incstack = 0
  2324 ;; hardware stack exceeded
  2325                           ; Regs used in _PWM_duty: [wreg+status,2+status,0+btemp+1+pclath+cstack]
  2326                           ;PWM_duty@canal stored from wreg
  2327     06C9  1283               	bcf	3,5	;RP0=0, select bank2
  2328     06CA  1703               	bsf	3,6	;RP1=1, select bank2
  2329     06CB  0097               	movwf	PWM_duty@canal^(0+256)
  2330     06CC                     l4407:
  2331                           
  2332                           ;PWM_SERVO1.c: 35:     if (canal == 1){
  2333     06CC  0317               	decf	PWM_duty@canal^(0+256),w
  2334     06CD  1D03               	btfss	3,2
  2335     06CE  2ED0               	goto	u7481
  2336     06CF  2ED1               	goto	u7480
  2337     06D0                     u7481:
  2338     06D0  2F62               	goto	l4417
  2339     06D1                     u7480:
  2340     06D1                     l4409:
  2341                           
  2342                           ;PWM_SERVO1.c: 36:         int particion1 = (int)(4*duty/((1.0f/4000000)*16));
  2343     06D1  0813               	movf	(PWM_duty@duty+3)^(0+256),w
  2344     06D2  1683               	bsf	3,5	;RP0=1, select bank3
  2345     06D3  1703               	bsf	3,6	;RP1=1, select bank3
  2346     06D4  00BF               	movwf	(___flmul@a+3)^(0+384)
  2347     06D5  1283               	bcf	3,5	;RP0=0, select bank2
  2348     06D6  1703               	bsf	3,6	;RP1=1, select bank2
  2349     06D7  0812               	movf	(PWM_duty@duty+2)^(0+256),w
  2350     06D8  1683               	bsf	3,5	;RP0=1, select bank3
  2351     06D9  1703               	bsf	3,6	;RP1=1, select bank3
  2352     06DA  00BE               	movwf	(___flmul@a+2)^(0+384)
  2353     06DB  1283               	bcf	3,5	;RP0=0, select bank2
  2354     06DC  1703               	bsf	3,6	;RP1=1, select bank2
  2355     06DD  0811               	movf	(PWM_duty@duty+1)^(0+256),w
  2356     06DE  1683               	bsf	3,5	;RP0=1, select bank3
  2357     06DF  1703               	bsf	3,6	;RP1=1, select bank3
  2358     06E0  00BD               	movwf	(___flmul@a+1)^(0+384)
  2359     06E1  1283               	bcf	3,5	;RP0=0, select bank2
  2360     06E2  1703               	bsf	3,6	;RP1=1, select bank2
  2361     06E3  0810               	movf	PWM_duty@duty^(0+256),w
  2362     06E4  1683               	bsf	3,5	;RP0=1, select bank3
  2363     06E5  1703               	bsf	3,6	;RP1=1, select bank3
  2364     06E6  00BC               	movwf	___flmul@a^(0+384)
  2365     06E7  3040               	movlw	64
  2366     06E8  00BB               	movwf	(___flmul@b+3)^(0+384)
  2367     06E9  3080               	movlw	128
  2368     06EA  00BA               	movwf	(___flmul@b+2)^(0+384)
  2369     06EB  3000               	movlw	0
  2370     06EC  00B9               	movwf	(___flmul@b+1)^(0+384)
  2371     06ED  3000               	movlw	0
  2372     06EE  00B8               	movwf	___flmul@b^(0+384)
  2373     06EF  120A  118A  203F  120A  118A  	fcall	___flmul
  2374     06F4  1683               	bsf	3,5	;RP0=1, select bank3
  2375     06F5  1703               	bsf	3,6	;RP1=1, select bank3
  2376     06F6  083B               	movf	(?___flmul+3)^(0+384),w
  2377     06F7  00A5               	movwf	(___fldiv@b+3)^(0+384)
  2378     06F8  083A               	movf	(?___flmul+2)^(0+384),w
  2379     06F9  00A4               	movwf	(___fldiv@b+2)^(0+384)
  2380     06FA  0839               	movf	(?___flmul+1)^(0+384),w
  2381     06FB  00A3               	movwf	(___fldiv@b+1)^(0+384)
  2382     06FC  0838               	movf	?___flmul^(0+384),w
  2383     06FD  00A2               	movwf	___fldiv@b^(0+384)
  2384     06FE  3036               	movlw	54
  2385     06FF  00A1               	movwf	(___fldiv@a+3)^(0+384)
  2386     0700  3086               	movlw	134
  2387     0701  00A0               	movwf	(___fldiv@a+2)^(0+384)
  2388     0702  3037               	movlw	55
  2389     0703  009F               	movwf	(___fldiv@a+1)^(0+384)
  2390     0704  30BD               	movlw	189
  2391     0705  009E               	movwf	___fldiv@a^(0+384)
  2392     0706  160A  118A  217D  120A  118A  	fcall	___fldiv
  2393     070B  1683               	bsf	3,5	;RP0=1, select bank3
  2394     070C  1703               	bsf	3,6	;RP1=1, select bank3
  2395     070D  0821               	movf	(?___fldiv+3)^(0+384),w
  2396     070E  00E9               	movwf	(___fltol@f1+3)^(0+384)
  2397     070F  0820               	movf	(?___fldiv+2)^(0+384),w
  2398     0710  00E8               	movwf	(___fltol@f1+2)^(0+384)
  2399     0711  081F               	movf	(?___fldiv+1)^(0+384),w
  2400     0712  00E7               	movwf	(___fltol@f1+1)^(0+384)
  2401     0713  081E               	movf	?___fldiv^(0+384),w
  2402     0714  00E6               	movwf	___fltol@f1^(0+384)
  2403     0715  160A  158A  2255  120A  118A  	fcall	___fltol
  2404     071A  1683               	bsf	3,5	;RP0=1, select bank3
  2405     071B  1703               	bsf	3,6	;RP1=1, select bank3
  2406     071C  0867               	movf	(?___fltol+1)^(0+384),w
  2407     071D  1283               	bcf	3,5	;RP0=0, select bank2
  2408     071E  1703               	bsf	3,6	;RP1=1, select bank2
  2409     071F  0099               	movwf	(PWM_duty@particion1+1)^(0+256)
  2410     0720  1683               	bsf	3,5	;RP0=1, select bank3
  2411     0721  1703               	bsf	3,6	;RP1=1, select bank3
  2412     0722  0866               	movf	?___fltol^(0+384),w
  2413     0723  1283               	bcf	3,5	;RP0=0, select bank2
  2414     0724  1703               	bsf	3,6	;RP1=1, select bank2
  2415     0725  0098               	movwf	PWM_duty@particion1^(0+256)
  2416     0726                     l4411:
  2417                           
  2418                           ;PWM_SERVO1.c: 37:         CCPR1L = (char)(-((particion1 >> 2)-69));
  2419     0726  0819               	movf	(PWM_duty@particion1+1)^(0+256),w
  2420     0727  0095               	movwf	(??_PWM_duty^(0+256)+1)
  2421     0728  0818               	movf	PWM_duty@particion1^(0+256),w
  2422     0729  0094               	movwf	??_PWM_duty^(0+256)
  2423     072A  0D15               	rlf	(??_PWM_duty^(0+256)+1),w
  2424     072B  0C95               	rrf	(??_PWM_duty^(0+256)+1),f
  2425     072C  0C94               	rrf	??_PWM_duty^(0+256),f
  2426     072D  0D15               	rlf	(??_PWM_duty^(0+256)+1),w
  2427     072E  0C95               	rrf	(??_PWM_duty^(0+256)+1),f
  2428     072F  0C94               	rrf	??_PWM_duty^(0+256),f
  2429     0730  0814               	movf	??_PWM_duty^(0+256),w
  2430     0731  3EBB               	addlw	187
  2431     0732  3AFF               	xorlw	255
  2432     0733  3E01               	addlw	1
  2433     0734  1283               	bcf	3,5	;RP0=0, select bank0
  2434     0735  1303               	bcf	3,6	;RP1=0, select bank0
  2435     0736  0095               	movwf	21	;volatile
  2436     0737                     l4413:
  2437                           
  2438                           ;PWM_SERVO1.c: 41:         CCP1CONbits.DC1B0 = (particion1&(0b1));
  2439     0737  1283               	bcf	3,5	;RP0=0, select bank2
  2440     0738  1703               	bsf	3,6	;RP1=1, select bank2
  2441     0739  0818               	movf	PWM_duty@particion1^(0+256),w
  2442     073A  3901               	andlw	1
  2443     073B  0094               	movwf	??_PWM_duty^(0+256)
  2444     073C  0E94               	swapf	??_PWM_duty^(0+256),f
  2445     073D  1283               	bcf	3,5	;RP0=0, select bank0
  2446     073E  1303               	bcf	3,6	;RP1=0, select bank0
  2447     073F  0817               	movf	23,w	;volatile
  2448     0740  1283               	bcf	3,5	;RP0=0, select bank2
  2449     0741  1703               	bsf	3,6	;RP1=1, select bank2
  2450     0742  0614               	xorwf	??_PWM_duty^(0+256),w
  2451     0743  39EF               	andlw	-17
  2452     0744  0614               	xorwf	??_PWM_duty^(0+256),w
  2453     0745  1283               	bcf	3,5	;RP0=0, select bank0
  2454     0746  1303               	bcf	3,6	;RP1=0, select bank0
  2455     0747  0097               	movwf	23	;volatile
  2456     0748                     l4415:
  2457                           
  2458                           ;PWM_SERVO1.c: 42:         CCP1CONbits.DC1B1 = ((particion1>>1) &(0b1));
  2459     0748  1283               	bcf	3,5	;RP0=0, select bank2
  2460     0749  1703               	bsf	3,6	;RP1=1, select bank2
  2461     074A  0819               	movf	(PWM_duty@particion1+1)^(0+256),w
  2462     074B  0095               	movwf	(??_PWM_duty^(0+256)+1)
  2463     074C  0818               	movf	PWM_duty@particion1^(0+256),w
  2464     074D  0094               	movwf	??_PWM_duty^(0+256)
  2465     074E  0D15               	rlf	(??_PWM_duty^(0+256)+1),w
  2466     074F  0C95               	rrf	(??_PWM_duty^(0+256)+1),f
  2467     0750  0C94               	rrf	??_PWM_duty^(0+256),f
  2468     0751  0814               	movf	??_PWM_duty^(0+256),w
  2469     0752  3901               	andlw	1
  2470     0753  0096               	movwf	(??_PWM_duty+2)^(0+256)
  2471     0754  0E96               	swapf	(??_PWM_duty+2)^(0+256),f
  2472     0755  0D96               	rlf	(??_PWM_duty+2)^(0+256),f
  2473     0756  1283               	bcf	3,5	;RP0=0, select bank0
  2474     0757  1303               	bcf	3,6	;RP1=0, select bank0
  2475     0758  0817               	movf	23,w	;volatile
  2476     0759  1283               	bcf	3,5	;RP0=0, select bank2
  2477     075A  1703               	bsf	3,6	;RP1=1, select bank2
  2478     075B  0616               	xorwf	(??_PWM_duty+2)^(0+256),w
  2479     075C  39DF               	andlw	-33
  2480     075D  0616               	xorwf	(??_PWM_duty+2)^(0+256),w
  2481     075E  1283               	bcf	3,5	;RP0=0, select bank0
  2482     075F  1303               	bcf	3,6	;RP1=0, select bank0
  2483     0760  0097               	movwf	23	;volatile
  2484                           
  2485                           ;PWM_SERVO1.c: 43:     }
  2486     0761  2FF6               	goto	l287
  2487     0762                     l4417:
  2488     0762  3002               	movlw	2
  2489     0763  0617               	xorwf	PWM_duty@canal^(0+256),w
  2490     0764  1D03               	btfss	3,2
  2491     0765  2F67               	goto	u7491
  2492     0766  2F68               	goto	u7490
  2493     0767                     u7491:
  2494     0767  2FF6               	goto	l287
  2495     0768                     u7490:
  2496     0768                     l4419:
  2497                           
  2498                           ;PWM_SERVO1.c: 45:         int particion2 = (int)(4*duty/((1.0f/4000000)*16));
  2499     0768  0813               	movf	(PWM_duty@duty+3)^(0+256),w
  2500     0769  1683               	bsf	3,5	;RP0=1, select bank3
  2501     076A  1703               	bsf	3,6	;RP1=1, select bank3
  2502     076B  00BF               	movwf	(___flmul@a+3)^(0+384)
  2503     076C  1283               	bcf	3,5	;RP0=0, select bank2
  2504     076D  1703               	bsf	3,6	;RP1=1, select bank2
  2505     076E  0812               	movf	(PWM_duty@duty+2)^(0+256),w
  2506     076F  1683               	bsf	3,5	;RP0=1, select bank3
  2507     0770  1703               	bsf	3,6	;RP1=1, select bank3
  2508     0771  00BE               	movwf	(___flmul@a+2)^(0+384)
  2509     0772  1283               	bcf	3,5	;RP0=0, select bank2
  2510     0773  1703               	bsf	3,6	;RP1=1, select bank2
  2511     0774  0811               	movf	(PWM_duty@duty+1)^(0+256),w
  2512     0775  1683               	bsf	3,5	;RP0=1, select bank3
  2513     0776  1703               	bsf	3,6	;RP1=1, select bank3
  2514     0777  00BD               	movwf	(___flmul@a+1)^(0+384)
  2515     0778  1283               	bcf	3,5	;RP0=0, select bank2
  2516     0779  1703               	bsf	3,6	;RP1=1, select bank2
  2517     077A  0810               	movf	PWM_duty@duty^(0+256),w
  2518     077B  1683               	bsf	3,5	;RP0=1, select bank3
  2519     077C  1703               	bsf	3,6	;RP1=1, select bank3
  2520     077D  00BC               	movwf	___flmul@a^(0+384)
  2521     077E  3040               	movlw	64
  2522     077F  00BB               	movwf	(___flmul@b+3)^(0+384)
  2523     0780  3080               	movlw	128
  2524     0781  00BA               	movwf	(___flmul@b+2)^(0+384)
  2525     0782  3000               	movlw	0
  2526     0783  00B9               	movwf	(___flmul@b+1)^(0+384)
  2527     0784  3000               	movlw	0
  2528     0785  00B8               	movwf	___flmul@b^(0+384)
  2529     0786  120A  118A  203F  120A  118A  	fcall	___flmul
  2530     078B  1683               	bsf	3,5	;RP0=1, select bank3
  2531     078C  1703               	bsf	3,6	;RP1=1, select bank3
  2532     078D  083B               	movf	(?___flmul+3)^(0+384),w
  2533     078E  00A5               	movwf	(___fldiv@b+3)^(0+384)
  2534     078F  083A               	movf	(?___flmul+2)^(0+384),w
  2535     0790  00A4               	movwf	(___fldiv@b+2)^(0+384)
  2536     0791  0839               	movf	(?___flmul+1)^(0+384),w
  2537     0792  00A3               	movwf	(___fldiv@b+1)^(0+384)
  2538     0793  0838               	movf	?___flmul^(0+384),w
  2539     0794  00A2               	movwf	___fldiv@b^(0+384)
  2540     0795  3036               	movlw	54
  2541     0796  00A1               	movwf	(___fldiv@a+3)^(0+384)
  2542     0797  3086               	movlw	134
  2543     0798  00A0               	movwf	(___fldiv@a+2)^(0+384)
  2544     0799  3037               	movlw	55
  2545     079A  009F               	movwf	(___fldiv@a+1)^(0+384)
  2546     079B  30BD               	movlw	189
  2547     079C  009E               	movwf	___fldiv@a^(0+384)
  2548     079D  160A  118A  217D  120A  118A  	fcall	___fldiv
  2549     07A2  1683               	bsf	3,5	;RP0=1, select bank3
  2550     07A3  1703               	bsf	3,6	;RP1=1, select bank3
  2551     07A4  0821               	movf	(?___fldiv+3)^(0+384),w
  2552     07A5  00E9               	movwf	(___fltol@f1+3)^(0+384)
  2553     07A6  0820               	movf	(?___fldiv+2)^(0+384),w
  2554     07A7  00E8               	movwf	(___fltol@f1+2)^(0+384)
  2555     07A8  081F               	movf	(?___fldiv+1)^(0+384),w
  2556     07A9  00E7               	movwf	(___fltol@f1+1)^(0+384)
  2557     07AA  081E               	movf	?___fldiv^(0+384),w
  2558     07AB  00E6               	movwf	___fltol@f1^(0+384)
  2559     07AC  160A  158A  2255  120A  118A  	fcall	___fltol
  2560     07B1  1683               	bsf	3,5	;RP0=1, select bank3
  2561     07B2  1703               	bsf	3,6	;RP1=1, select bank3
  2562     07B3  0867               	movf	(?___fltol+1)^(0+384),w
  2563     07B4  1283               	bcf	3,5	;RP0=0, select bank2
  2564     07B5  1703               	bsf	3,6	;RP1=1, select bank2
  2565     07B6  009B               	movwf	(PWM_duty@particion2+1)^(0+256)
  2566     07B7  1683               	bsf	3,5	;RP0=1, select bank3
  2567     07B8  1703               	bsf	3,6	;RP1=1, select bank3
  2568     07B9  0866               	movf	?___fltol^(0+384),w
  2569     07BA  1283               	bcf	3,5	;RP0=0, select bank2
  2570     07BB  1703               	bsf	3,6	;RP1=1, select bank2
  2571     07BC  009A               	movwf	PWM_duty@particion2^(0+256)
  2572     07BD                     l4421:
  2573                           
  2574                           ;PWM_SERVO1.c: 46:         CCPR2L = (char)(((particion2 >> 2)+60));
  2575     07BD  081B               	movf	(PWM_duty@particion2+1)^(0+256),w
  2576     07BE  0095               	movwf	(??_PWM_duty^(0+256)+1)
  2577     07BF  081A               	movf	PWM_duty@particion2^(0+256),w
  2578     07C0  0094               	movwf	??_PWM_duty^(0+256)
  2579     07C1  0D15               	rlf	(??_PWM_duty^(0+256)+1),w
  2580     07C2  0C95               	rrf	(??_PWM_duty^(0+256)+1),f
  2581     07C3  0C94               	rrf	??_PWM_duty^(0+256),f
  2582     07C4  0D15               	rlf	(??_PWM_duty^(0+256)+1),w
  2583     07C5  0C95               	rrf	(??_PWM_duty^(0+256)+1),f
  2584     07C6  0C94               	rrf	??_PWM_duty^(0+256),f
  2585     07C7  0814               	movf	??_PWM_duty^(0+256),w
  2586     07C8  3E3C               	addlw	60
  2587     07C9  1283               	bcf	3,5	;RP0=0, select bank0
  2588     07CA  1303               	bcf	3,6	;RP1=0, select bank0
  2589     07CB  009B               	movwf	27	;volatile
  2590     07CC                     l4423:
  2591                           
  2592                           ;PWM_SERVO1.c: 50:         CCP2CONbits.DC2B0 = (particion2&(0b1));
  2593     07CC  1283               	bcf	3,5	;RP0=0, select bank2
  2594     07CD  1703               	bsf	3,6	;RP1=1, select bank2
  2595     07CE  081A               	movf	PWM_duty@particion2^(0+256),w
  2596     07CF  3901               	andlw	1
  2597     07D0  0094               	movwf	??_PWM_duty^(0+256)
  2598     07D1  0E94               	swapf	??_PWM_duty^(0+256),f
  2599     07D2  1283               	bcf	3,5	;RP0=0, select bank0
  2600     07D3  1303               	bcf	3,6	;RP1=0, select bank0
  2601     07D4  081D               	movf	29,w	;volatile
  2602     07D5  1283               	bcf	3,5	;RP0=0, select bank2
  2603     07D6  1703               	bsf	3,6	;RP1=1, select bank2
  2604     07D7  0614               	xorwf	??_PWM_duty^(0+256),w
  2605     07D8  39EF               	andlw	-17
  2606     07D9  0614               	xorwf	??_PWM_duty^(0+256),w
  2607     07DA  1283               	bcf	3,5	;RP0=0, select bank0
  2608     07DB  1303               	bcf	3,6	;RP1=0, select bank0
  2609     07DC  009D               	movwf	29	;volatile
  2610     07DD                     l4425:
  2611                           
  2612                           ;PWM_SERVO1.c: 51:         CCP2CONbits.DC2B1 = ((particion2>>1) &(0b1));
  2613     07DD  1283               	bcf	3,5	;RP0=0, select bank2
  2614     07DE  1703               	bsf	3,6	;RP1=1, select bank2
  2615     07DF  081B               	movf	(PWM_duty@particion2+1)^(0+256),w
  2616     07E0  0095               	movwf	(??_PWM_duty^(0+256)+1)
  2617     07E1  081A               	movf	PWM_duty@particion2^(0+256),w
  2618     07E2  0094               	movwf	??_PWM_duty^(0+256)
  2619     07E3  0D15               	rlf	(??_PWM_duty^(0+256)+1),w
  2620     07E4  0C95               	rrf	(??_PWM_duty^(0+256)+1),f
  2621     07E5  0C94               	rrf	??_PWM_duty^(0+256),f
  2622     07E6  0814               	movf	??_PWM_duty^(0+256),w
  2623     07E7  3901               	andlw	1
  2624     07E8  0096               	movwf	(??_PWM_duty+2)^(0+256)
  2625     07E9  0E96               	swapf	(??_PWM_duty+2)^(0+256),f
  2626     07EA  0D96               	rlf	(??_PWM_duty+2)^(0+256),f
  2627     07EB  1283               	bcf	3,5	;RP0=0, select bank0
  2628     07EC  1303               	bcf	3,6	;RP1=0, select bank0
  2629     07ED  081D               	movf	29,w	;volatile
  2630     07EE  1283               	bcf	3,5	;RP0=0, select bank2
  2631     07EF  1703               	bsf	3,6	;RP1=1, select bank2
  2632     07F0  0616               	xorwf	(??_PWM_duty+2)^(0+256),w
  2633     07F1  39DF               	andlw	-33
  2634     07F2  0616               	xorwf	(??_PWM_duty+2)^(0+256),w
  2635     07F3  1283               	bcf	3,5	;RP0=0, select bank0
  2636     07F4  1303               	bcf	3,6	;RP1=0, select bank0
  2637     07F5  009D               	movwf	29	;volatile
  2638     07F6                     l287:
  2639     07F6  0008               	return
  2640     07F7                     __end_of_PWM_duty:
  2641                           
  2642                           	psect	text3
  2643     003F                     __ptext3:	
  2644 ;; *************** function ___flmul *****************
  2645 ;; Defined at:
  2646 ;;		line 8 in file "C:\Program Files\Microchip\xc8\v2.40\pic\sources\c90\common\sprcmul.c"
  2647 ;; Parameters:    Size  Location     Type
  2648 ;;  b               4   40[BANK3 ] void 
  2649 ;;  a               4   44[BANK3 ] void 
  2650 ;; Auto vars:     Size  Location     Type
  2651 ;;  prod            4   60[BANK3 ] struct .
  2652 ;;  grs             4   55[BANK3 ] unsigned long 
  2653 ;;  temp            2   64[BANK3 ] struct .
  2654 ;;  bexp            1   59[BANK3 ] unsigned char 
  2655 ;;  aexp            1   54[BANK3 ] unsigned char 
  2656 ;;  sign            1   53[BANK3 ] unsigned char 
  2657 ;; Return value:  Size  Location     Type
  2658 ;;                  4   40[BANK3 ] unsigned char 
  2659 ;; Registers used:
  2660 ;;		wreg, status,2, status,0, btemp+1, pclath, cstack
  2661 ;; Tracked objects:
  2662 ;;		On entry : 0/0
  2663 ;;		On exit  : 0/0
  2664 ;;		Unchanged: 0/0
  2665 ;; Data sizes:     COMMON   BANK0   BANK1   BANK3   BANK2
  2666 ;;      Params:         0       0       0       8       0
  2667 ;;      Locals:         0       0       0      13       0
  2668 ;;      Temps:          0       0       0       5       0
  2669 ;;      Totals:         0       0       0      26       0
  2670 ;;Total ram usage:       26 bytes
  2671 ;; Hardware stack levels used: 1
  2672 ;; Hardware stack levels required when called: 6
  2673 ;; This function calls:
  2674 ;;		__Umul8_16
  2675 ;; This function is called by:
  2676 ;;		_main
  2677 ;;		_PWM_duty
  2678 ;; This function uses a non-reentrant model
  2679 ;;
  2680                           
  2681     003F                     ___flmul:	
  2682                           ;psect for function ___flmul
  2683                           
  2684     003F                     l4267:	
  2685                           ;incstack = 0
  2686 ;; hardware stack exceeded
  2687                           ; Regs used in ___flmul: [wreg+status,2+status,0+btemp+1+pclath+cstack]
  2688                           
  2689     003F  1683               	bsf	3,5	;RP0=1, select bank3
  2690     0040  1703               	bsf	3,6	;RP1=1, select bank3
  2691     0041  083B               	movf	(___flmul@b^(0+384)+3),w
  2692     0042  3980               	andlw	128
  2693     0043  00C5               	movwf	___flmul@sign^(0+384)
  2694     0044                     l4269:
  2695     0044  083B               	movf	(___flmul@b^(0+384)+3),w
  2696     0045  00C0               	movwf	??___flmul^(0+384)
  2697     0046  0740               	addwf	??___flmul^(0+384),w
  2698     0047  00CB               	movwf	___flmul@bexp^(0+384)
  2699     0048                     l4271:
  2700     0048  1FBA               	btfss	(___flmul@b^(0+384)+2),7
  2701     0049  284B               	goto	u7111
  2702     004A  284C               	goto	u7110
  2703     004B                     u7111:
  2704     004B  284D               	goto	l4275
  2705     004C                     u7110:
  2706     004C                     l4273:
  2707     004C  144B               	bsf	___flmul@bexp^(0+384),0
  2708     004D                     l4275:
  2709     004D  084B               	movf	___flmul@bexp^(0+384),w
  2710     004E  1903               	btfsc	3,2
  2711     004F  2851               	goto	u7121
  2712     0050  2852               	goto	u7120
  2713     0051                     u7121:
  2714     0051  2861               	goto	l4283
  2715     0052                     u7120:
  2716     0052                     l4277:
  2717     0052  0A4B               	incf	___flmul@bexp^(0+384),w
  2718     0053  1D03               	btfss	3,2
  2719     0054  2856               	goto	u7131
  2720     0055  2857               	goto	u7130
  2721     0056                     u7131:
  2722     0056  285F               	goto	l4281
  2723     0057                     u7130:
  2724     0057                     l4279:
  2725     0057  3000               	movlw	0
  2726     0058  00BB               	movwf	(___flmul@b+3)^(0+384)
  2727     0059  3000               	movlw	0
  2728     005A  00BA               	movwf	(___flmul@b+2)^(0+384)
  2729     005B  3000               	movlw	0
  2730     005C  00B9               	movwf	(___flmul@b+1)^(0+384)
  2731     005D  3000               	movlw	0
  2732     005E  00B8               	movwf	___flmul@b^(0+384)
  2733     005F                     l4281:
  2734     005F  17BA               	bsf	(___flmul@b^(0+384)+2),7
  2735     0060  2869               	goto	l4285
  2736     0061                     l4283:
  2737     0061  3000               	movlw	0
  2738     0062  00BB               	movwf	(___flmul@b+3)^(0+384)
  2739     0063  3000               	movlw	0
  2740     0064  00BA               	movwf	(___flmul@b+2)^(0+384)
  2741     0065  3000               	movlw	0
  2742     0066  00B9               	movwf	(___flmul@b+1)^(0+384)
  2743     0067  3000               	movlw	0
  2744     0068  00B8               	movwf	___flmul@b^(0+384)
  2745     0069                     l4285:
  2746     0069  083F               	movf	(___flmul@a^(0+384)+3),w
  2747     006A  3980               	andlw	128
  2748     006B  00C0               	movwf	??___flmul^(0+384)
  2749     006C  0840               	movf	??___flmul^(0+384),w
  2750     006D  06C5               	xorwf	___flmul@sign^(0+384),f
  2751     006E                     l4287:
  2752     006E  083F               	movf	(___flmul@a^(0+384)+3),w
  2753     006F  00C0               	movwf	??___flmul^(0+384)
  2754     0070  0740               	addwf	??___flmul^(0+384),w
  2755     0071  00C6               	movwf	___flmul@aexp^(0+384)
  2756     0072                     l4289:
  2757     0072  1FBE               	btfss	(___flmul@a^(0+384)+2),7
  2758     0073  2875               	goto	u7141
  2759     0074  2876               	goto	u7140
  2760     0075                     u7141:
  2761     0075  2877               	goto	l4293
  2762     0076                     u7140:
  2763     0076                     l4291:
  2764     0076  1446               	bsf	___flmul@aexp^(0+384),0
  2765     0077                     l4293:
  2766     0077  0846               	movf	___flmul@aexp^(0+384),w
  2767     0078  1903               	btfsc	3,2
  2768     0079  287B               	goto	u7151
  2769     007A  287C               	goto	u7150
  2770     007B                     u7151:
  2771     007B  288B               	goto	l4301
  2772     007C                     u7150:
  2773     007C                     l4295:
  2774     007C  0A46               	incf	___flmul@aexp^(0+384),w
  2775     007D  1D03               	btfss	3,2
  2776     007E  2880               	goto	u7161
  2777     007F  2881               	goto	u7160
  2778     0080                     u7161:
  2779     0080  2889               	goto	l4299
  2780     0081                     u7160:
  2781     0081                     l4297:
  2782     0081  3000               	movlw	0
  2783     0082  00BF               	movwf	(___flmul@a+3)^(0+384)
  2784     0083  3000               	movlw	0
  2785     0084  00BE               	movwf	(___flmul@a+2)^(0+384)
  2786     0085  3000               	movlw	0
  2787     0086  00BD               	movwf	(___flmul@a+1)^(0+384)
  2788     0087  3000               	movlw	0
  2789     0088  00BC               	movwf	___flmul@a^(0+384)
  2790     0089                     l4299:
  2791     0089  17BE               	bsf	(___flmul@a^(0+384)+2),7
  2792     008A  2893               	goto	l4303
  2793     008B                     l4301:
  2794     008B  3000               	movlw	0
  2795     008C  00BF               	movwf	(___flmul@a+3)^(0+384)
  2796     008D  3000               	movlw	0
  2797     008E  00BE               	movwf	(___flmul@a+2)^(0+384)
  2798     008F  3000               	movlw	0
  2799     0090  00BD               	movwf	(___flmul@a+1)^(0+384)
  2800     0091  3000               	movlw	0
  2801     0092  00BC               	movwf	___flmul@a^(0+384)
  2802     0093                     l4303:
  2803     0093  0846               	movf	___flmul@aexp^(0+384),w
  2804     0094  1903               	btfsc	3,2
  2805     0095  2897               	goto	u7171
  2806     0096  2898               	goto	u7170
  2807     0097                     u7171:
  2808     0097  289D               	goto	l4307
  2809     0098                     u7170:
  2810     0098                     l4305:
  2811     0098  084B               	movf	___flmul@bexp^(0+384),w
  2812     0099  1D03               	btfss	3,2
  2813     009A  289C               	goto	u7181
  2814     009B  289D               	goto	u7180
  2815     009C                     u7181:
  2816     009C  28A6               	goto	l4311
  2817     009D                     u7180:
  2818     009D                     l4307:
  2819     009D  3000               	movlw	0
  2820     009E  00BB               	movwf	(?___flmul+3)^(0+384)
  2821     009F  3000               	movlw	0
  2822     00A0  00BA               	movwf	(?___flmul+2)^(0+384)
  2823     00A1  3000               	movlw	0
  2824     00A2  00B9               	movwf	(?___flmul+1)^(0+384)
  2825     00A3  3000               	movlw	0
  2826     00A4  00B8               	movwf	?___flmul^(0+384)
  2827     00A5  2B83               	goto	l762
  2828     00A6                     l4311:
  2829     00A6  0838               	movf	___flmul@b^(0+384),w
  2830     00A7  0090               	movwf	__Umul8_16@multiplicand^(0+384)
  2831     00A8  083E               	movf	(___flmul@a^(0+384)+2),w
  2832     00A9  160A  158A  21F3  120A  118A  	fcall	__Umul8_16
  2833     00AE  1683               	bsf	3,5	;RP0=1, select bank3
  2834     00AF  1703               	bsf	3,6	;RP1=1, select bank3
  2835     00B0  0811               	movf	(?__Umul8_16+1)^(0+384),w
  2836     00B1  00D1               	movwf	(___flmul@temp+1)^(0+384)
  2837     00B2  0810               	movf	?__Umul8_16^(0+384),w
  2838     00B3  00D0               	movwf	___flmul@temp^(0+384)
  2839     00B4                     l4313:
  2840     00B4  0850               	movf	___flmul@temp^(0+384),w
  2841     00B5  00C0               	movwf	??___flmul^(0+384)
  2842     00B6  01C1               	clrf	(??___flmul^(0+384)+1)
  2843     00B7  01C2               	clrf	(??___flmul^(0+384)+2)
  2844     00B8  01C3               	clrf	(??___flmul^(0+384)+3)
  2845     00B9  0843               	movf	(??___flmul+3)^(0+384),w
  2846     00BA  00CA               	movwf	(___flmul@grs+3)^(0+384)
  2847     00BB  0842               	movf	(??___flmul+2)^(0+384),w
  2848     00BC  00C9               	movwf	(___flmul@grs+2)^(0+384)
  2849     00BD  0841               	movf	(??___flmul+1)^(0+384),w
  2850     00BE  00C8               	movwf	(___flmul@grs+1)^(0+384)
  2851     00BF  0840               	movf	??___flmul^(0+384),w
  2852     00C0  00C7               	movwf	___flmul@grs^(0+384)
  2853     00C1                     l4315:
  2854     00C1  0851               	movf	(___flmul@temp^(0+384)+1),w
  2855     00C2  00C0               	movwf	??___flmul^(0+384)
  2856     00C3  01C1               	clrf	(??___flmul^(0+384)+1)
  2857     00C4  01C2               	clrf	(??___flmul^(0+384)+2)
  2858     00C5  01C3               	clrf	(??___flmul^(0+384)+3)
  2859     00C6  0843               	movf	(??___flmul+3)^(0+384),w
  2860     00C7  00CF               	movwf	(___flmul@prod+3)^(0+384)
  2861     00C8  0842               	movf	(??___flmul+2)^(0+384),w
  2862     00C9  00CE               	movwf	(___flmul@prod+2)^(0+384)
  2863     00CA  0841               	movf	(??___flmul+1)^(0+384),w
  2864     00CB  00CD               	movwf	(___flmul@prod+1)^(0+384)
  2865     00CC  0840               	movf	??___flmul^(0+384),w
  2866     00CD  00CC               	movwf	___flmul@prod^(0+384)
  2867     00CE  0839               	movf	(___flmul@b^(0+384)+1),w
  2868     00CF  0090               	movwf	__Umul8_16@multiplicand^(0+384)
  2869     00D0  083D               	movf	(___flmul@a^(0+384)+1),w
  2870     00D1  160A  158A  21F3  120A  118A  	fcall	__Umul8_16
  2871     00D6  1683               	bsf	3,5	;RP0=1, select bank3
  2872     00D7  1703               	bsf	3,6	;RP1=1, select bank3
  2873     00D8  0811               	movf	(?__Umul8_16+1)^(0+384),w
  2874     00D9  00D1               	movwf	(___flmul@temp+1)^(0+384)
  2875     00DA  0810               	movf	?__Umul8_16^(0+384),w
  2876     00DB  00D0               	movwf	___flmul@temp^(0+384)
  2877     00DC                     l4317:
  2878     00DC  0850               	movf	___flmul@temp^(0+384),w
  2879     00DD  00C0               	movwf	??___flmul^(0+384)
  2880     00DE  01C1               	clrf	(??___flmul^(0+384)+1)
  2881     00DF  01C2               	clrf	(??___flmul^(0+384)+2)
  2882     00E0  01C3               	clrf	(??___flmul^(0+384)+3)
  2883     00E1  0840               	movf	??___flmul^(0+384),w
  2884     00E2  07C7               	addwf	___flmul@grs^(0+384),f
  2885     00E3  0841               	movf	(??___flmul+1)^(0+384),w
  2886     00E4  1103               	clrz
  2887     00E5  1803               	skipnc
  2888     00E6  3E01               	addlw	1
  2889     00E7  1903               	skipnz
  2890     00E8  28EA               	goto	u7191
  2891     00E9  07C8               	addwf	(___flmul@grs+1)^(0+384),f
  2892     00EA                     u7191:
  2893     00EA  0842               	movf	(??___flmul+2)^(0+384),w
  2894     00EB  1103               	clrz
  2895     00EC  1803               	skipnc
  2896     00ED  3E01               	addlw	1
  2897     00EE  1903               	skipnz
  2898     00EF  28F1               	goto	u7192
  2899     00F0  07C9               	addwf	(___flmul@grs+2)^(0+384),f
  2900     00F1                     u7192:
  2901     00F1  0843               	movf	(??___flmul+3)^(0+384),w
  2902     00F2  1103               	clrz
  2903     00F3  1803               	skipnc
  2904     00F4  3E01               	addlw	1
  2905     00F5  1903               	skipnz
  2906     00F6  28F8               	goto	u7193
  2907     00F7  07CA               	addwf	(___flmul@grs+3)^(0+384),f
  2908     00F8                     u7193:
  2909     00F8                     l4319:
  2910     00F8  0851               	movf	(___flmul@temp^(0+384)+1),w
  2911     00F9  00C0               	movwf	??___flmul^(0+384)
  2912     00FA  01C1               	clrf	(??___flmul^(0+384)+1)
  2913     00FB  01C2               	clrf	(??___flmul^(0+384)+2)
  2914     00FC  01C3               	clrf	(??___flmul^(0+384)+3)
  2915     00FD  0840               	movf	??___flmul^(0+384),w
  2916     00FE  07CC               	addwf	___flmul@prod^(0+384),f
  2917     00FF  0841               	movf	(??___flmul+1)^(0+384),w
  2918     0100  1103               	clrz
  2919     0101  1803               	skipnc
  2920     0102  3E01               	addlw	1
  2921     0103  1903               	skipnz
  2922     0104  2906               	goto	u7201
  2923     0105  07CD               	addwf	(___flmul@prod+1)^(0+384),f
  2924     0106                     u7201:
  2925     0106  0842               	movf	(??___flmul+2)^(0+384),w
  2926     0107  1103               	clrz
  2927     0108  1803               	skipnc
  2928     0109  3E01               	addlw	1
  2929     010A  1903               	skipnz
  2930     010B  290D               	goto	u7202
  2931     010C  07CE               	addwf	(___flmul@prod+2)^(0+384),f
  2932     010D                     u7202:
  2933     010D  0843               	movf	(??___flmul+3)^(0+384),w
  2934     010E  1103               	clrz
  2935     010F  1803               	skipnc
  2936     0110  3E01               	addlw	1
  2937     0111  1903               	skipnz
  2938     0112  2914               	goto	u7203
  2939     0113  07CF               	addwf	(___flmul@prod+3)^(0+384),f
  2940     0114                     u7203:
  2941     0114  083A               	movf	(___flmul@b^(0+384)+2),w
  2942     0115  0090               	movwf	__Umul8_16@multiplicand^(0+384)
  2943     0116  083C               	movf	___flmul@a^(0+384),w
  2944     0117  160A  158A  21F3  120A  118A  	fcall	__Umul8_16
  2945     011C  1683               	bsf	3,5	;RP0=1, select bank3
  2946     011D  1703               	bsf	3,6	;RP1=1, select bank3
  2947     011E  0811               	movf	(?__Umul8_16+1)^(0+384),w
  2948     011F  00D1               	movwf	(___flmul@temp+1)^(0+384)
  2949     0120  0810               	movf	?__Umul8_16^(0+384),w
  2950     0121  00D0               	movwf	___flmul@temp^(0+384)
  2951     0122                     l4321:
  2952     0122  0850               	movf	___flmul@temp^(0+384),w
  2953     0123  00C0               	movwf	??___flmul^(0+384)
  2954     0124  01C1               	clrf	(??___flmul^(0+384)+1)
  2955     0125  01C2               	clrf	(??___flmul^(0+384)+2)
  2956     0126  01C3               	clrf	(??___flmul^(0+384)+3)
  2957     0127  0840               	movf	??___flmul^(0+384),w
  2958     0128  07C7               	addwf	___flmul@grs^(0+384),f
  2959     0129  0841               	movf	(??___flmul+1)^(0+384),w
  2960     012A  1103               	clrz
  2961     012B  1803               	skipnc
  2962     012C  3E01               	addlw	1
  2963     012D  1903               	skipnz
  2964     012E  2930               	goto	u7211
  2965     012F  07C8               	addwf	(___flmul@grs+1)^(0+384),f
  2966     0130                     u7211:
  2967     0130  0842               	movf	(??___flmul+2)^(0+384),w
  2968     0131  1103               	clrz
  2969     0132  1803               	skipnc
  2970     0133  3E01               	addlw	1
  2971     0134  1903               	skipnz
  2972     0135  2937               	goto	u7212
  2973     0136  07C9               	addwf	(___flmul@grs+2)^(0+384),f
  2974     0137                     u7212:
  2975     0137  0843               	movf	(??___flmul+3)^(0+384),w
  2976     0138  1103               	clrz
  2977     0139  1803               	skipnc
  2978     013A  3E01               	addlw	1
  2979     013B  1903               	skipnz
  2980     013C  293E               	goto	u7213
  2981     013D  07CA               	addwf	(___flmul@grs+3)^(0+384),f
  2982     013E                     u7213:
  2983     013E                     l4323:
  2984     013E  0851               	movf	(___flmul@temp^(0+384)+1),w
  2985     013F  00C0               	movwf	??___flmul^(0+384)
  2986     0140  01C1               	clrf	(??___flmul^(0+384)+1)
  2987     0141  01C2               	clrf	(??___flmul^(0+384)+2)
  2988     0142  01C3               	clrf	(??___flmul^(0+384)+3)
  2989     0143  0840               	movf	??___flmul^(0+384),w
  2990     0144  07CC               	addwf	___flmul@prod^(0+384),f
  2991     0145  0841               	movf	(??___flmul+1)^(0+384),w
  2992     0146  1103               	clrz
  2993     0147  1803               	skipnc
  2994     0148  3E01               	addlw	1
  2995     0149  1903               	skipnz
  2996     014A  294C               	goto	u7221
  2997     014B  07CD               	addwf	(___flmul@prod+1)^(0+384),f
  2998     014C                     u7221:
  2999     014C  0842               	movf	(??___flmul+2)^(0+384),w
  3000     014D  1103               	clrz
  3001     014E  1803               	skipnc
  3002     014F  3E01               	addlw	1
  3003     0150  1903               	skipnz
  3004     0151  2953               	goto	u7222
  3005     0152  07CE               	addwf	(___flmul@prod+2)^(0+384),f
  3006     0153                     u7222:
  3007     0153  0843               	movf	(??___flmul+3)^(0+384),w
  3008     0154  1103               	clrz
  3009     0155  1803               	skipnc
  3010     0156  3E01               	addlw	1
  3011     0157  1903               	skipnz
  3012     0158  295A               	goto	u7223
  3013     0159  07CF               	addwf	(___flmul@prod+3)^(0+384),f
  3014     015A                     u7223:
  3015     015A                     l4325:
  3016     015A  3008               	movlw	8
  3017     015B  00C0               	movwf	??___flmul^(0+384)
  3018     015C                     u7235:
  3019     015C  1003               	clrc
  3020     015D  0DC7               	rlf	___flmul@grs^(0+384),f
  3021     015E  0DC8               	rlf	(___flmul@grs+1)^(0+384),f
  3022     015F  0DC9               	rlf	(___flmul@grs+2)^(0+384),f
  3023     0160  0DCA               	rlf	(___flmul@grs+3)^(0+384),f
  3024     0161  0BC0               	decfsz	??___flmul^(0+384),f
  3025     0162  295C               	goto	u7235
  3026     0163                     l4327:
  3027     0163  0839               	movf	(___flmul@b^(0+384)+1),w
  3028     0164  0090               	movwf	__Umul8_16@multiplicand^(0+384)
  3029     0165  083C               	movf	___flmul@a^(0+384),w
  3030     0166  160A  158A  21F3  120A  118A  	fcall	__Umul8_16
  3031     016B  1683               	bsf	3,5	;RP0=1, select bank3
  3032     016C  1703               	bsf	3,6	;RP1=1, select bank3
  3033     016D  0811               	movf	(?__Umul8_16+1)^(0+384),w
  3034     016E  00D1               	movwf	(___flmul@temp+1)^(0+384)
  3035     016F  0810               	movf	?__Umul8_16^(0+384),w
  3036     0170  00D0               	movwf	___flmul@temp^(0+384)
  3037     0171                     l4329:
  3038     0171  0850               	movf	___flmul@temp^(0+384),w
  3039     0172  00C0               	movwf	??___flmul^(0+384)
  3040     0173  0851               	movf	(___flmul@temp+1)^(0+384),w
  3041     0174  00C1               	movwf	(??___flmul^(0+384)+1)
  3042     0175  01C2               	clrf	(??___flmul^(0+384)+2)
  3043     0176  01C3               	clrf	(??___flmul^(0+384)+3)
  3044     0177  0840               	movf	??___flmul^(0+384),w
  3045     0178  07C7               	addwf	___flmul@grs^(0+384),f
  3046     0179  0841               	movf	(??___flmul+1)^(0+384),w
  3047     017A  1103               	clrz
  3048     017B  1803               	skipnc
  3049     017C  3E01               	addlw	1
  3050     017D  1903               	skipnz
  3051     017E  2980               	goto	u7241
  3052     017F  07C8               	addwf	(___flmul@grs+1)^(0+384),f
  3053     0180                     u7241:
  3054     0180  0842               	movf	(??___flmul+2)^(0+384),w
  3055     0181  1103               	clrz
  3056     0182  1803               	skipnc
  3057     0183  3E01               	addlw	1
  3058     0184  1903               	skipnz
  3059     0185  2987               	goto	u7242
  3060     0186  07C9               	addwf	(___flmul@grs+2)^(0+384),f
  3061     0187                     u7242:
  3062     0187  0843               	movf	(??___flmul+3)^(0+384),w
  3063     0188  1103               	clrz
  3064     0189  1803               	skipnc
  3065     018A  3E01               	addlw	1
  3066     018B  1903               	skipnz
  3067     018C  298E               	goto	u7243
  3068     018D  07CA               	addwf	(___flmul@grs+3)^(0+384),f
  3069     018E                     u7243:
  3070     018E                     l4331:
  3071     018E  0838               	movf	___flmul@b^(0+384),w
  3072     018F  0090               	movwf	__Umul8_16@multiplicand^(0+384)
  3073     0190  083D               	movf	(___flmul@a^(0+384)+1),w
  3074     0191  160A  158A  21F3  120A  118A  	fcall	__Umul8_16
  3075     0196  1683               	bsf	3,5	;RP0=1, select bank3
  3076     0197  1703               	bsf	3,6	;RP1=1, select bank3
  3077     0198  0811               	movf	(?__Umul8_16+1)^(0+384),w
  3078     0199  00D1               	movwf	(___flmul@temp+1)^(0+384)
  3079     019A  0810               	movf	?__Umul8_16^(0+384),w
  3080     019B  00D0               	movwf	___flmul@temp^(0+384)
  3081     019C                     l4333:
  3082     019C  0850               	movf	___flmul@temp^(0+384),w
  3083     019D  00C0               	movwf	??___flmul^(0+384)
  3084     019E  0851               	movf	(___flmul@temp+1)^(0+384),w
  3085     019F  00C1               	movwf	(??___flmul^(0+384)+1)
  3086     01A0  01C2               	clrf	(??___flmul^(0+384)+2)
  3087     01A1  01C3               	clrf	(??___flmul^(0+384)+3)
  3088     01A2  0840               	movf	??___flmul^(0+384),w
  3089     01A3  07C7               	addwf	___flmul@grs^(0+384),f
  3090     01A4  0841               	movf	(??___flmul+1)^(0+384),w
  3091     01A5  1103               	clrz
  3092     01A6  1803               	skipnc
  3093     01A7  3E01               	addlw	1
  3094     01A8  1903               	skipnz
  3095     01A9  29AB               	goto	u7251
  3096     01AA  07C8               	addwf	(___flmul@grs+1)^(0+384),f
  3097     01AB                     u7251:
  3098     01AB  0842               	movf	(??___flmul+2)^(0+384),w
  3099     01AC  1103               	clrz
  3100     01AD  1803               	skipnc
  3101     01AE  3E01               	addlw	1
  3102     01AF  1903               	skipnz
  3103     01B0  29B2               	goto	u7252
  3104     01B1  07C9               	addwf	(___flmul@grs+2)^(0+384),f
  3105     01B2                     u7252:
  3106     01B2  0843               	movf	(??___flmul+3)^(0+384),w
  3107     01B3  1103               	clrz
  3108     01B4  1803               	skipnc
  3109     01B5  3E01               	addlw	1
  3110     01B6  1903               	skipnz
  3111     01B7  29B9               	goto	u7253
  3112     01B8  07CA               	addwf	(___flmul@grs+3)^(0+384),f
  3113     01B9                     u7253:
  3114     01B9                     l4335:
  3115     01B9  3008               	movlw	8
  3116     01BA  00C0               	movwf	??___flmul^(0+384)
  3117     01BB                     u7265:
  3118     01BB  1003               	clrc
  3119     01BC  0DC7               	rlf	___flmul@grs^(0+384),f
  3120     01BD  0DC8               	rlf	(___flmul@grs+1)^(0+384),f
  3121     01BE  0DC9               	rlf	(___flmul@grs+2)^(0+384),f
  3122     01BF  0DCA               	rlf	(___flmul@grs+3)^(0+384),f
  3123     01C0  0BC0               	decfsz	??___flmul^(0+384),f
  3124     01C1  29BB               	goto	u7265
  3125     01C2  0838               	movf	___flmul@b^(0+384),w
  3126     01C3  0090               	movwf	__Umul8_16@multiplicand^(0+384)
  3127     01C4  083C               	movf	___flmul@a^(0+384),w
  3128     01C5  160A  158A  21F3  120A  118A  	fcall	__Umul8_16
  3129     01CA  1683               	bsf	3,5	;RP0=1, select bank3
  3130     01CB  1703               	bsf	3,6	;RP1=1, select bank3
  3131     01CC  0811               	movf	(?__Umul8_16+1)^(0+384),w
  3132     01CD  00D1               	movwf	(___flmul@temp+1)^(0+384)
  3133     01CE  0810               	movf	?__Umul8_16^(0+384),w
  3134     01CF  00D0               	movwf	___flmul@temp^(0+384)
  3135     01D0                     l4337:
  3136     01D0  0850               	movf	___flmul@temp^(0+384),w
  3137     01D1  00C0               	movwf	??___flmul^(0+384)
  3138     01D2  0851               	movf	(___flmul@temp+1)^(0+384),w
  3139     01D3  00C1               	movwf	(??___flmul^(0+384)+1)
  3140     01D4  01C2               	clrf	(??___flmul^(0+384)+2)
  3141     01D5  01C3               	clrf	(??___flmul^(0+384)+3)
  3142     01D6  0840               	movf	??___flmul^(0+384),w
  3143     01D7  07C7               	addwf	___flmul@grs^(0+384),f
  3144     01D8  0841               	movf	(??___flmul+1)^(0+384),w
  3145     01D9  1103               	clrz
  3146     01DA  1803               	skipnc
  3147     01DB  3E01               	addlw	1
  3148     01DC  1903               	skipnz
  3149     01DD  29DF               	goto	u7271
  3150     01DE  07C8               	addwf	(___flmul@grs+1)^(0+384),f
  3151     01DF                     u7271:
  3152     01DF  0842               	movf	(??___flmul+2)^(0+384),w
  3153     01E0  1103               	clrz
  3154     01E1  1803               	skipnc
  3155     01E2  3E01               	addlw	1
  3156     01E3  1903               	skipnz
  3157     01E4  29E6               	goto	u7272
  3158     01E5  07C9               	addwf	(___flmul@grs+2)^(0+384),f
  3159     01E6                     u7272:
  3160     01E6  0843               	movf	(??___flmul+3)^(0+384),w
  3161     01E7  1103               	clrz
  3162     01E8  1803               	skipnc
  3163     01E9  3E01               	addlw	1
  3164     01EA  1903               	skipnz
  3165     01EB  29ED               	goto	u7273
  3166     01EC  07CA               	addwf	(___flmul@grs+3)^(0+384),f
  3167     01ED                     u7273:
  3168     01ED                     l4339:
  3169     01ED  0839               	movf	(___flmul@b^(0+384)+1),w
  3170     01EE  0090               	movwf	__Umul8_16@multiplicand^(0+384)
  3171     01EF  083E               	movf	(___flmul@a^(0+384)+2),w
  3172     01F0  160A  158A  21F3  120A  118A  	fcall	__Umul8_16
  3173     01F5  1683               	bsf	3,5	;RP0=1, select bank3
  3174     01F6  1703               	bsf	3,6	;RP1=1, select bank3
  3175     01F7  0811               	movf	(?__Umul8_16+1)^(0+384),w
  3176     01F8  00D1               	movwf	(___flmul@temp+1)^(0+384)
  3177     01F9  0810               	movf	?__Umul8_16^(0+384),w
  3178     01FA  00D0               	movwf	___flmul@temp^(0+384)
  3179     01FB  0850               	movf	___flmul@temp^(0+384),w
  3180     01FC  00C0               	movwf	??___flmul^(0+384)
  3181     01FD  0851               	movf	(___flmul@temp+1)^(0+384),w
  3182     01FE  00C1               	movwf	(??___flmul^(0+384)+1)
  3183     01FF  01C2               	clrf	(??___flmul^(0+384)+2)
  3184     0200  01C3               	clrf	(??___flmul^(0+384)+3)
  3185     0201  0840               	movf	??___flmul^(0+384),w
  3186     0202  07CC               	addwf	___flmul@prod^(0+384),f
  3187     0203  0841               	movf	(??___flmul+1)^(0+384),w
  3188     0204  1103               	clrz
  3189     0205  1803               	skipnc
  3190     0206  3E01               	addlw	1
  3191     0207  1903               	skipnz
  3192     0208  2A0A               	goto	u7281
  3193     0209  07CD               	addwf	(___flmul@prod+1)^(0+384),f
  3194     020A                     u7281:
  3195     020A  0842               	movf	(??___flmul+2)^(0+384),w
  3196     020B  1103               	clrz
  3197     020C  1803               	skipnc
  3198     020D  3E01               	addlw	1
  3199     020E  1903               	skipnz
  3200     020F  2A11               	goto	u7282
  3201     0210  07CE               	addwf	(___flmul@prod+2)^(0+384),f
  3202     0211                     u7282:
  3203     0211  0843               	movf	(??___flmul+3)^(0+384),w
  3204     0212  1103               	clrz
  3205     0213  1803               	skipnc
  3206     0214  3E01               	addlw	1
  3207     0215  1903               	skipnz
  3208     0216  2A18               	goto	u7283
  3209     0217  07CF               	addwf	(___flmul@prod+3)^(0+384),f
  3210     0218                     u7283:
  3211     0218                     l4341:
  3212     0218  083A               	movf	(___flmul@b^(0+384)+2),w
  3213     0219  0090               	movwf	__Umul8_16@multiplicand^(0+384)
  3214     021A  083D               	movf	(___flmul@a^(0+384)+1),w
  3215     021B  160A  158A  21F3  120A  118A  	fcall	__Umul8_16
  3216     0220  1683               	bsf	3,5	;RP0=1, select bank3
  3217     0221  1703               	bsf	3,6	;RP1=1, select bank3
  3218     0222  0811               	movf	(?__Umul8_16+1)^(0+384),w
  3219     0223  00D1               	movwf	(___flmul@temp+1)^(0+384)
  3220     0224  0810               	movf	?__Umul8_16^(0+384),w
  3221     0225  00D0               	movwf	___flmul@temp^(0+384)
  3222     0226                     l4343:
  3223     0226  0850               	movf	___flmul@temp^(0+384),w
  3224     0227  00C0               	movwf	??___flmul^(0+384)
  3225     0228  0851               	movf	(___flmul@temp+1)^(0+384),w
  3226     0229  00C1               	movwf	(??___flmul^(0+384)+1)
  3227     022A  01C2               	clrf	(??___flmul^(0+384)+2)
  3228     022B  01C3               	clrf	(??___flmul^(0+384)+3)
  3229     022C  0840               	movf	??___flmul^(0+384),w
  3230     022D  07CC               	addwf	___flmul@prod^(0+384),f
  3231     022E  0841               	movf	(??___flmul+1)^(0+384),w
  3232     022F  1103               	clrz
  3233     0230  1803               	skipnc
  3234     0231  3E01               	addlw	1
  3235     0232  1903               	skipnz
  3236     0233  2A35               	goto	u7291
  3237     0234  07CD               	addwf	(___flmul@prod+1)^(0+384),f
  3238     0235                     u7291:
  3239     0235  0842               	movf	(??___flmul+2)^(0+384),w
  3240     0236  1103               	clrz
  3241     0237  1803               	skipnc
  3242     0238  3E01               	addlw	1
  3243     0239  1903               	skipnz
  3244     023A  2A3C               	goto	u7292
  3245     023B  07CE               	addwf	(___flmul@prod+2)^(0+384),f
  3246     023C                     u7292:
  3247     023C  0843               	movf	(??___flmul+3)^(0+384),w
  3248     023D  1103               	clrz
  3249     023E  1803               	skipnc
  3250     023F  3E01               	addlw	1
  3251     0240  1903               	skipnz
  3252     0241  2A43               	goto	u7293
  3253     0242  07CF               	addwf	(___flmul@prod+3)^(0+384),f
  3254     0243                     u7293:
  3255     0243  083A               	movf	(___flmul@b^(0+384)+2),w
  3256     0244  0090               	movwf	__Umul8_16@multiplicand^(0+384)
  3257     0245  083E               	movf	(___flmul@a^(0+384)+2),w
  3258     0246  160A  158A  21F3  120A  118A  	fcall	__Umul8_16
  3259     024B  1683               	bsf	3,5	;RP0=1, select bank3
  3260     024C  1703               	bsf	3,6	;RP1=1, select bank3
  3261     024D  0811               	movf	(?__Umul8_16+1)^(0+384),w
  3262     024E  00D1               	movwf	(___flmul@temp+1)^(0+384)
  3263     024F  0810               	movf	?__Umul8_16^(0+384),w
  3264     0250  00D0               	movwf	___flmul@temp^(0+384)
  3265     0251                     l4345:
  3266     0251  0850               	movf	___flmul@temp^(0+384),w
  3267     0252  00C0               	movwf	??___flmul^(0+384)
  3268     0253  0851               	movf	(___flmul@temp+1)^(0+384),w
  3269     0254  00C1               	movwf	(??___flmul^(0+384)+1)
  3270     0255  01C2               	clrf	(??___flmul^(0+384)+2)
  3271     0256  01C3               	clrf	(??___flmul^(0+384)+3)
  3272     0257  3008               	movlw	8
  3273     0258                     u7305:
  3274     0258  1003               	clrc
  3275     0259  0DC0               	rlf	??___flmul^(0+384),f
  3276     025A  0DC1               	rlf	(??___flmul^(0+384)+1),f
  3277     025B  0DC2               	rlf	(??___flmul^(0+384)+2),f
  3278     025C  0DC3               	rlf	(??___flmul^(0+384)+3),f
  3279     025D                     u7300:
  3280     025D  3EFF               	addlw	-1
  3281     025E  1D03               	skipz
  3282     025F  2A58               	goto	u7305
  3283     0260  0840               	movf	??___flmul^(0+384),w
  3284     0261  07CC               	addwf	___flmul@prod^(0+384),f
  3285     0262  0841               	movf	(??___flmul+1)^(0+384),w
  3286     0263  1103               	clrz
  3287     0264  1803               	skipnc
  3288     0265  3E01               	addlw	1
  3289     0266  1903               	skipnz
  3290     0267  2A69               	goto	u7311
  3291     0268  07CD               	addwf	(___flmul@prod+1)^(0+384),f
  3292     0269                     u7311:
  3293     0269  0842               	movf	(??___flmul+2)^(0+384),w
  3294     026A  1103               	clrz
  3295     026B  1803               	skipnc
  3296     026C  3E01               	addlw	1
  3297     026D  1903               	skipnz
  3298     026E  2A70               	goto	u7312
  3299     026F  07CE               	addwf	(___flmul@prod+2)^(0+384),f
  3300     0270                     u7312:
  3301     0270  0843               	movf	(??___flmul+3)^(0+384),w
  3302     0271  1103               	clrz
  3303     0272  1803               	skipnc
  3304     0273  3E01               	addlw	1
  3305     0274  1903               	skipnz
  3306     0275  2A77               	goto	u7313
  3307     0276  07CF               	addwf	(___flmul@prod+3)^(0+384),f
  3308     0277                     u7313:
  3309     0277                     l4347:
  3310     0277  0847               	movf	___flmul@grs^(0+384),w
  3311     0278  00C0               	movwf	??___flmul^(0+384)
  3312     0279  0848               	movf	(___flmul@grs+1)^(0+384),w
  3313     027A  00C1               	movwf	(??___flmul^(0+384)+1)
  3314     027B  0849               	movf	(___flmul@grs+2)^(0+384),w
  3315     027C  00C2               	movwf	(??___flmul^(0+384)+2)
  3316     027D  084A               	movf	(___flmul@grs+3)^(0+384),w
  3317     027E  00C3               	movwf	(??___flmul^(0+384)+3)
  3318     027F  3018               	movlw	24
  3319     0280                     u7325:
  3320     0280  1003               	clrc
  3321     0281  0CC3               	rrf	(??___flmul^(0+384)+3),f
  3322     0282  0CC2               	rrf	(??___flmul^(0+384)+2),f
  3323     0283  0CC1               	rrf	(??___flmul^(0+384)+1),f
  3324     0284  0CC0               	rrf	??___flmul^(0+384),f
  3325     0285                     u7320:
  3326     0285  3EFF               	addlw	-1
  3327     0286  1D03               	skipz
  3328     0287  2A80               	goto	u7325
  3329     0288  0840               	movf	??___flmul^(0+384),w
  3330     0289  07CC               	addwf	___flmul@prod^(0+384),f
  3331     028A  0841               	movf	(??___flmul+1)^(0+384),w
  3332     028B  1103               	clrz
  3333     028C  1803               	skipnc
  3334     028D  3E01               	addlw	1
  3335     028E  1903               	skipnz
  3336     028F  2A91               	goto	u7331
  3337     0290  07CD               	addwf	(___flmul@prod+1)^(0+384),f
  3338     0291                     u7331:
  3339     0291  0842               	movf	(??___flmul+2)^(0+384),w
  3340     0292  1103               	clrz
  3341     0293  1803               	skipnc
  3342     0294  3E01               	addlw	1
  3343     0295  1903               	skipnz
  3344     0296  2A98               	goto	u7332
  3345     0297  07CE               	addwf	(___flmul@prod+2)^(0+384),f
  3346     0298                     u7332:
  3347     0298  0843               	movf	(??___flmul+3)^(0+384),w
  3348     0299  1103               	clrz
  3349     029A  1803               	skipnc
  3350     029B  3E01               	addlw	1
  3351     029C  1903               	skipnz
  3352     029D  2A9F               	goto	u7333
  3353     029E  07CF               	addwf	(___flmul@prod+3)^(0+384),f
  3354     029F                     u7333:
  3355     029F                     l4349:
  3356     029F  3008               	movlw	8
  3357     02A0  00C0               	movwf	??___flmul^(0+384)
  3358     02A1                     u7345:
  3359     02A1  1003               	clrc
  3360     02A2  0DC7               	rlf	___flmul@grs^(0+384),f
  3361     02A3  0DC8               	rlf	(___flmul@grs+1)^(0+384),f
  3362     02A4  0DC9               	rlf	(___flmul@grs+2)^(0+384),f
  3363     02A5  0DCA               	rlf	(___flmul@grs+3)^(0+384),f
  3364     02A6  0BC0               	decfsz	??___flmul^(0+384),f
  3365     02A7  2AA1               	goto	u7345
  3366     02A8                     l4351:
  3367     02A8  084B               	movf	___flmul@bexp^(0+384),w
  3368     02A9  0746               	addwf	___flmul@aexp^(0+384),w
  3369     02AA  00C0               	movwf	??___flmul^(0+384)
  3370     02AB  01C1               	clrf	(??___flmul^(0+384)+1)
  3371     02AC  0DC1               	rlf	(??___flmul+1)^(0+384),f
  3372     02AD  0840               	movf	??___flmul^(0+384),w
  3373     02AE  3E82               	addlw	130
  3374     02AF  00D0               	movwf	___flmul@temp^(0+384)
  3375     02B0  0841               	movf	(??___flmul+1)^(0+384),w
  3376     02B1  1803               	skipnc
  3377     02B2  3E01               	addlw	1
  3378     02B3  3EFF               	addlw	255
  3379     02B4  00D1               	movwf	(___flmul@temp+1)^(0+384)
  3380     02B5  2AD3               	goto	l4363
  3381     02B6                     l4353:
  3382     02B6  3001               	movlw	1
  3383     02B7  00C0               	movwf	??___flmul^(0+384)
  3384     02B8                     u7355:
  3385     02B8  1003               	clrc
  3386     02B9  0DCC               	rlf	___flmul@prod^(0+384),f
  3387     02BA  0DCD               	rlf	(___flmul@prod+1)^(0+384),f
  3388     02BB  0DCE               	rlf	(___flmul@prod+2)^(0+384),f
  3389     02BC  0DCF               	rlf	(___flmul@prod+3)^(0+384),f
  3390     02BD  0BC0               	decfsz	??___flmul^(0+384),f
  3391     02BE  2AB8               	goto	u7355
  3392     02BF                     l4355:
  3393     02BF  1FCA               	btfss	(___flmul@grs+3)^(0+384),7
  3394     02C0  2AC2               	goto	u7361
  3395     02C1  2AC3               	goto	u7360
  3396     02C2                     u7361:
  3397     02C2  2AC4               	goto	l4359
  3398     02C3                     u7360:
  3399     02C3                     l4357:
  3400     02C3  144C               	bsf	___flmul@prod^(0+384),0
  3401     02C4                     l4359:
  3402     02C4  3001               	movlw	1
  3403     02C5  00C0               	movwf	??___flmul^(0+384)
  3404     02C6                     u7375:
  3405     02C6  1003               	clrc
  3406     02C7  0DC7               	rlf	___flmul@grs^(0+384),f
  3407     02C8  0DC8               	rlf	(___flmul@grs+1)^(0+384),f
  3408     02C9  0DC9               	rlf	(___flmul@grs+2)^(0+384),f
  3409     02CA  0DCA               	rlf	(___flmul@grs+3)^(0+384),f
  3410     02CB  0BC0               	decfsz	??___flmul^(0+384),f
  3411     02CC  2AC6               	goto	u7375
  3412     02CD                     l4361:
  3413     02CD  30FF               	movlw	255
  3414     02CE  07D0               	addwf	___flmul@temp^(0+384),f
  3415     02CF  1803               	skipnc
  3416     02D0  0AD1               	incf	(___flmul@temp+1)^(0+384),f
  3417     02D1  30FF               	movlw	255
  3418     02D2  07D1               	addwf	(___flmul@temp+1)^(0+384),f
  3419     02D3                     l4363:
  3420     02D3  1FCE               	btfss	(___flmul@prod+2)^(0+384),7
  3421     02D4  2AD6               	goto	u7381
  3422     02D5  2AD7               	goto	u7380
  3423     02D6                     u7381:
  3424     02D6  2AB6               	goto	l4353
  3425     02D7                     u7380:
  3426     02D7                     l4365:
  3427     02D7  01C6               	clrf	___flmul@aexp^(0+384)
  3428     02D8                     l4367:
  3429     02D8  1FCA               	btfss	(___flmul@grs+3)^(0+384),7
  3430     02D9  2ADB               	goto	u7391
  3431     02DA  2ADC               	goto	u7390
  3432     02DB                     u7391:
  3433     02DB  2AF8               	goto	l4375
  3434     02DC                     u7390:
  3435     02DC                     l4369:
  3436     02DC  30FF               	movlw	255
  3437     02DD  0547               	andwf	___flmul@grs^(0+384),w
  3438     02DE  00C0               	movwf	??___flmul^(0+384)
  3439     02DF  30FF               	movlw	255
  3440     02E0  0548               	andwf	(___flmul@grs+1)^(0+384),w
  3441     02E1  00C1               	movwf	(??___flmul^(0+384)+1)
  3442     02E2  30FF               	movlw	255
  3443     02E3  0549               	andwf	(___flmul@grs+2)^(0+384),w
  3444     02E4  00C2               	movwf	(??___flmul^(0+384)+2)
  3445     02E5  307F               	movlw	127
  3446     02E6  054A               	andwf	(___flmul@grs+3)^(0+384),w
  3447     02E7  00C3               	movwf	(??___flmul^(0+384)+3)
  3448     02E8  0843               	movf	(??___flmul+3)^(0+384),w
  3449     02E9  0442               	iorwf	(??___flmul+2)^(0+384),w
  3450     02EA  0441               	iorwf	(??___flmul+1)^(0+384),w
  3451     02EB  0440               	iorwf	??___flmul^(0+384),w
  3452     02EC  1903               	skipnz
  3453     02ED  2AEF               	goto	u7401
  3454     02EE  2AF0               	goto	u7400
  3455     02EF                     u7401:
  3456     02EF  2AF3               	goto	l768
  3457     02F0                     u7400:
  3458     02F0                     l4371:
  3459     02F0  01C6               	clrf	___flmul@aexp^(0+384)
  3460     02F1  0AC6               	incf	___flmul@aexp^(0+384),f
  3461     02F2  2AF8               	goto	l4375
  3462     02F3                     l768:
  3463     02F3  1C4C               	btfss	___flmul@prod^(0+384),0
  3464     02F4  2AF6               	goto	u7411
  3465     02F5  2AF7               	goto	u7410
  3466     02F6                     u7411:
  3467     02F6  2AF8               	goto	l4375
  3468     02F7                     u7410:
  3469     02F7  2AF0               	goto	l4371
  3470     02F8                     l4375:
  3471     02F8  0846               	movf	___flmul@aexp^(0+384),w
  3472     02F9  1903               	btfsc	3,2
  3473     02FA  2AFC               	goto	u7421
  3474     02FB  2AFD               	goto	u7420
  3475     02FC                     u7421:
  3476     02FC  2B2E               	goto	l4385
  3477     02FD                     u7420:
  3478     02FD                     l4377:
  3479     02FD  3001               	movlw	1
  3480     02FE  07CC               	addwf	___flmul@prod^(0+384),f
  3481     02FF  3000               	movlw	0
  3482     0300  1803               	skipnc
  3483     0301  3001               	movlw	1
  3484     0302  07CD               	addwf	(___flmul@prod+1)^(0+384),f
  3485     0303  3000               	movlw	0
  3486     0304  1803               	skipnc
  3487     0305  3001               	movlw	1
  3488     0306  07CE               	addwf	(___flmul@prod+2)^(0+384),f
  3489     0307  3000               	movlw	0
  3490     0308  1803               	skipnc
  3491     0309  3001               	movlw	1
  3492     030A  07CF               	addwf	(___flmul@prod+3)^(0+384),f
  3493     030B                     l4379:
  3494     030B  1C4F               	btfss	(___flmul@prod+3)^(0+384),0
  3495     030C  2B0E               	goto	u7431
  3496     030D  2B0F               	goto	u7430
  3497     030E                     u7431:
  3498     030E  2B2E               	goto	l4385
  3499     030F                     u7430:
  3500     030F                     l4381:
  3501     030F  084C               	movf	___flmul@prod^(0+384),w
  3502     0310  00C0               	movwf	??___flmul^(0+384)
  3503     0311  084D               	movf	(___flmul@prod+1)^(0+384),w
  3504     0312  00C1               	movwf	(??___flmul^(0+384)+1)
  3505     0313  084E               	movf	(___flmul@prod+2)^(0+384),w
  3506     0314  00C2               	movwf	(??___flmul^(0+384)+2)
  3507     0315  084F               	movf	(___flmul@prod+3)^(0+384),w
  3508     0316  00C3               	movwf	(??___flmul^(0+384)+3)
  3509     0317  3001               	movlw	1
  3510     0318  00C4               	movwf	(??___flmul+4)^(0+384)
  3511     0319                     u7445:
  3512     0319  0D43               	rlf	(??___flmul^(0+384)+3),w
  3513     031A  0CC3               	rrf	(??___flmul^(0+384)+3),f
  3514     031B  0CC2               	rrf	(??___flmul^(0+384)+2),f
  3515     031C  0CC1               	rrf	(??___flmul^(0+384)+1),f
  3516     031D  0CC0               	rrf	??___flmul^(0+384),f
  3517     031E                     u7440:
  3518     031E  0BC4               	decfsz	(??___flmul+4)^(0+384),f
  3519     031F  2B19               	goto	u7445
  3520     0320  0843               	movf	(??___flmul+3)^(0+384),w
  3521     0321  00CF               	movwf	(___flmul@prod+3)^(0+384)
  3522     0322  0842               	movf	(??___flmul+2)^(0+384),w
  3523     0323  00CE               	movwf	(___flmul@prod+2)^(0+384)
  3524     0324  0841               	movf	(??___flmul+1)^(0+384),w
  3525     0325  00CD               	movwf	(___flmul@prod+1)^(0+384)
  3526     0326  0840               	movf	??___flmul^(0+384),w
  3527     0327  00CC               	movwf	___flmul@prod^(0+384)
  3528     0328                     l4383:
  3529     0328  3001               	movlw	1
  3530     0329  07D0               	addwf	___flmul@temp^(0+384),f
  3531     032A  1803               	skipnc
  3532     032B  0AD1               	incf	(___flmul@temp+1)^(0+384),f
  3533     032C  3000               	movlw	0
  3534     032D  07D1               	addwf	(___flmul@temp+1)^(0+384),f
  3535     032E                     l4385:
  3536     032E  0851               	movf	(___flmul@temp+1)^(0+384),w
  3537     032F  3A80               	xorlw	128
  3538     0330  00FF               	movwf	btemp+1
  3539     0331  3080               	movlw	128
  3540     0332  027F               	subwf	btemp+1,w
  3541     0333  1D03               	skipz
  3542     0334  2B37               	goto	u7455
  3543     0335  30FF               	movlw	255
  3544     0336  0250               	subwf	___flmul@temp^(0+384),w
  3545     0337                     u7455:
  3546     0337  1C03               	skipc
  3547     0338  2B3A               	goto	u7451
  3548     0339  2B3B               	goto	u7450
  3549     033A                     u7451:
  3550     033A  2B46               	goto	l4389
  3551     033B                     u7450:
  3552     033B                     l4387:
  3553     033B  307F               	movlw	127
  3554     033C  1683               	bsf	3,5	;RP0=1, select bank3
  3555     033D  1703               	bsf	3,6	;RP1=1, select bank3
  3556     033E  00CF               	movwf	(___flmul@prod+3)^(0+384)
  3557     033F  3080               	movlw	128
  3558     0340  00CE               	movwf	(___flmul@prod+2)^(0+384)
  3559     0341  3000               	movlw	0
  3560     0342  00CD               	movwf	(___flmul@prod+1)^(0+384)
  3561     0343  3000               	movlw	0
  3562     0344  00CC               	movwf	___flmul@prod^(0+384)
  3563     0345  2B77               	goto	l774
  3564     0346                     l4389:
  3565     0346  1683               	bsf	3,5	;RP0=1, select bank3
  3566     0347  1703               	bsf	3,6	;RP1=1, select bank3
  3567     0348  0851               	movf	(___flmul@temp+1)^(0+384),w
  3568     0349  3A80               	xorlw	128
  3569     034A  00FF               	movwf	btemp+1
  3570     034B  3080               	movlw	128
  3571     034C  027F               	subwf	btemp+1,w
  3572     034D  1D03               	skipz
  3573     034E  2B51               	goto	u7465
  3574     034F  3001               	movlw	1
  3575     0350  0250               	subwf	___flmul@temp^(0+384),w
  3576     0351                     u7465:
  3577     0351  1803               	skipnc
  3578     0352  2B54               	goto	u7461
  3579     0353  2B55               	goto	u7460
  3580     0354                     u7461:
  3581     0354  2B61               	goto	l4395
  3582     0355                     u7460:
  3583     0355                     l4391:
  3584     0355  3000               	movlw	0
  3585     0356  1683               	bsf	3,5	;RP0=1, select bank3
  3586     0357  1703               	bsf	3,6	;RP1=1, select bank3
  3587     0358  00CF               	movwf	(___flmul@prod+3)^(0+384)
  3588     0359  3000               	movlw	0
  3589     035A  00CE               	movwf	(___flmul@prod+2)^(0+384)
  3590     035B  3000               	movlw	0
  3591     035C  00CD               	movwf	(___flmul@prod+1)^(0+384)
  3592     035D  3000               	movlw	0
  3593     035E  00CC               	movwf	___flmul@prod^(0+384)
  3594     035F                     l4393:
  3595     035F  01C5               	clrf	___flmul@sign^(0+384)
  3596     0360  2B77               	goto	l774
  3597     0361                     l4395:
  3598     0361  1683               	bsf	3,5	;RP0=1, select bank3
  3599     0362  1703               	bsf	3,6	;RP1=1, select bank3
  3600     0363  0850               	movf	___flmul@temp^(0+384),w
  3601     0364  00CB               	movwf	___flmul@bexp^(0+384)
  3602     0365  30FF               	movlw	255
  3603     0366  05CC               	andwf	___flmul@prod^(0+384),f
  3604     0367  30FF               	movlw	255
  3605     0368  05CD               	andwf	(___flmul@prod+1)^(0+384),f
  3606     0369  307F               	movlw	127
  3607     036A  05CE               	andwf	(___flmul@prod+2)^(0+384),f
  3608     036B  3000               	movlw	0
  3609     036C  05CF               	andwf	(___flmul@prod+3)^(0+384),f
  3610     036D                     l4397:
  3611     036D  1C4B               	btfss	___flmul@bexp^(0+384),0
  3612     036E  2B70               	goto	u7471
  3613     036F  2B71               	goto	u7470
  3614     0370                     u7471:
  3615     0370  2B72               	goto	l4401
  3616     0371                     u7470:
  3617     0371                     l4399:
  3618     0371  17CE               	bsf	(___flmul@prod^(0+384)+2),7
  3619     0372                     l4401:
  3620     0372  084B               	movf	___flmul@bexp^(0+384),w
  3621     0373  00C0               	movwf	??___flmul^(0+384)
  3622     0374  1003               	clrc
  3623     0375  0C40               	rrf	??___flmul^(0+384),w
  3624     0376  00CF               	movwf	(___flmul@prod^(0+384)+3)
  3625     0377                     l774:
  3626     0377  0845               	movf	___flmul@sign^(0+384),w
  3627     0378  00C0               	movwf	??___flmul^(0+384)
  3628     0379  0840               	movf	??___flmul^(0+384),w
  3629     037A  04CF               	iorwf	(___flmul@prod^(0+384)+3),f
  3630     037B                     l4403:
  3631     037B  084F               	movf	(___flmul@prod+3)^(0+384),w
  3632     037C  00BB               	movwf	(?___flmul+3)^(0+384)
  3633     037D  084E               	movf	(___flmul@prod+2)^(0+384),w
  3634     037E  00BA               	movwf	(?___flmul+2)^(0+384)
  3635     037F  084D               	movf	(___flmul@prod+1)^(0+384),w
  3636     0380  00B9               	movwf	(?___flmul+1)^(0+384)
  3637     0381  084C               	movf	___flmul@prod^(0+384),w
  3638     0382  00B8               	movwf	?___flmul^(0+384)
  3639     0383                     l762:
  3640     0383  0008               	return
  3641     0384                     __end_of___flmul:
  3642                           
  3643                           	psect	text4
  3644     19F3                     __ptext4:	
  3645 ;; *************** function __Umul8_16 *****************
  3646 ;; Defined at:
  3647 ;;		line 4 in file "C:\Program Files\Microchip\xc8\v2.40\pic\sources\c90\common\Umul8_16.c"
  3648 ;; Parameters:    Size  Location     Type
  3649 ;;  multiplier      1    wreg     unsigned char 
  3650 ;;  multiplicand    1    0[BANK3 ] unsigned char 
  3651 ;; Auto vars:     Size  Location     Type
  3652 ;;  multiplier      1    8[BANK3 ] unsigned char 
  3653 ;;  word_mpld       2    6[BANK3 ] unsigned int 
  3654 ;;  product         2    4[BANK3 ] unsigned int 
  3655 ;; Return value:  Size  Location     Type
  3656 ;;                  2    0[BANK3 ] unsigned int 
  3657 ;; Registers used:
  3658 ;;		wreg, status,2, status,0
  3659 ;; Tracked objects:
  3660 ;;		On entry : 0/0
  3661 ;;		On exit  : 0/0
  3662 ;;		Unchanged: 0/0
  3663 ;; Data sizes:     COMMON   BANK0   BANK1   BANK3   BANK2
  3664 ;;      Params:         0       0       0       2       0
  3665 ;;      Locals:         0       0       0       5       0
  3666 ;;      Temps:          0       0       0       2       0
  3667 ;;      Totals:         0       0       0       9       0
  3668 ;;Total ram usage:        9 bytes
  3669 ;; Hardware stack levels used: 1
  3670 ;; Hardware stack levels required when called: 5
  3671 ;; This function calls:
  3672 ;;		Nothing
  3673 ;; This function is called by:
  3674 ;;		___flmul
  3675 ;; This function uses a non-reentrant model
  3676 ;;
  3677                           
  3678     19F3                     __Umul8_16:	
  3679                           ;psect for function __Umul8_16
  3680                           
  3681                           
  3682                           ;incstack = 0
  3683 ;; hardware stack exceeded
  3684                           ; Regs used in __Umul8_16: [wreg+status,2+status,0]
  3685                           ;__Umul8_16@multiplier stored from wreg
  3686     19F3  1683               	bsf	3,5	;RP0=1, select bank3
  3687     19F4  1703               	bsf	3,6	;RP1=1, select bank3
  3688     19F5  0098               	movwf	__Umul8_16@multiplier^(0+384)
  3689     19F6                     l4075:
  3690     19F6  0194               	clrf	__Umul8_16@product^(0+384)
  3691     19F7  0195               	clrf	(__Umul8_16@product+1)^(0+384)
  3692     19F8                     l4077:
  3693     19F8  0810               	movf	__Umul8_16@multiplicand^(0+384),w
  3694     19F9  0092               	movwf	??__Umul8_16^(0+384)
  3695     19FA  0193               	clrf	(??__Umul8_16^(0+384)+1)
  3696     19FB  0812               	movf	??__Umul8_16^(0+384),w
  3697     19FC  0096               	movwf	__Umul8_16@word_mpld^(0+384)
  3698     19FD  0813               	movf	(??__Umul8_16+1)^(0+384),w
  3699     19FE  0097               	movwf	(__Umul8_16@word_mpld+1)^(0+384)
  3700     19FF                     l4079:
  3701     19FF  1C18               	btfss	__Umul8_16@multiplier^(0+384),0
  3702     1A00  2A02               	goto	u6691
  3703     1A01  2A03               	goto	u6690
  3704     1A02                     u6691:
  3705     1A02  2A09               	goto	l781
  3706     1A03                     u6690:
  3707     1A03                     l4081:
  3708     1A03  0816               	movf	__Umul8_16@word_mpld^(0+384),w
  3709     1A04  0794               	addwf	__Umul8_16@product^(0+384),f
  3710     1A05  1803               	skipnc
  3711     1A06  0A95               	incf	(__Umul8_16@product+1)^(0+384),f
  3712     1A07  0817               	movf	(__Umul8_16@word_mpld+1)^(0+384),w
  3713     1A08  0795               	addwf	(__Umul8_16@product+1)^(0+384),f
  3714     1A09                     l781:
  3715     1A09  3001               	movlw	1
  3716     1A0A                     u6705:
  3717     1A0A  1003               	clrc
  3718     1A0B  0D96               	rlf	__Umul8_16@word_mpld^(0+384),f
  3719     1A0C  0D97               	rlf	(__Umul8_16@word_mpld+1)^(0+384),f
  3720     1A0D  3EFF               	addlw	-1
  3721     1A0E  1D03               	skipz
  3722     1A0F  2A0A               	goto	u6705
  3723     1A10  1003               	clrc
  3724     1A11  0C98               	rrf	__Umul8_16@multiplier^(0+384),f
  3725     1A12                     l4083:
  3726     1A12  0818               	movf	__Umul8_16@multiplier^(0+384),w
  3727     1A13  1D03               	btfss	3,2
  3728     1A14  2A16               	goto	u6711
  3729     1A15  2A17               	goto	u6710
  3730     1A16                     u6711:
  3731     1A16  29FF               	goto	l4079
  3732     1A17                     u6710:
  3733     1A17                     l4085:
  3734     1A17  0815               	movf	(__Umul8_16@product+1)^(0+384),w
  3735     1A18  0091               	movwf	(?__Umul8_16+1)^(0+384)
  3736     1A19  0814               	movf	__Umul8_16@product^(0+384),w
  3737     1A1A  0090               	movwf	?__Umul8_16^(0+384)
  3738     1A1B                     l783:
  3739     1A1B  0008               	return
  3740     1A1C                     __end_of__Umul8_16:
  3741                           
  3742                           	psect	text5
  3743     1ACD                     __ptext5:	
  3744 ;; *************** function _PWM_config *****************
  3745 ;; Defined at:
  3746 ;;		line 5 in file "PWM_SERVO1.c"
  3747 ;; Parameters:    Size  Location     Type
  3748 ;;  canal           1    wreg     unsigned char 
  3749 ;;  periodo_ms      4    0[BANK2 ] float 
  3750 ;; Auto vars:     Size  Location     Type
  3751 ;;  canal           1    4[BANK2 ] unsigned char 
  3752 ;; Return value:  Size  Location     Type
  3753 ;;                  1    wreg      void 
  3754 ;; Registers used:
  3755 ;;		wreg, status,2, status,0, btemp+1, pclath, cstack
  3756 ;; Tracked objects:
  3757 ;;		On entry : 0/0
  3758 ;;		On exit  : 0/0
  3759 ;;		Unchanged: 0/0
  3760 ;; Data sizes:     COMMON   BANK0   BANK1   BANK3   BANK2
  3761 ;;      Params:         0       0       0       0       4
  3762 ;;      Locals:         0       0       0       0       1
  3763 ;;      Temps:          0       0       0       0       0
  3764 ;;      Totals:         0       0       0       0       5
  3765 ;;Total ram usage:        5 bytes
  3766 ;; Hardware stack levels used: 1
  3767 ;; Hardware stack levels required when called: 6
  3768 ;; This function calls:
  3769 ;;		___fldiv
  3770 ;;		___fltol
  3771 ;; This function is called by:
  3772 ;;		_setup
  3773 ;; This function uses a non-reentrant model
  3774 ;;
  3775                           
  3776     1ACD                     _PWM_config:	
  3777                           ;psect for function _PWM_config
  3778                           
  3779                           
  3780                           ;incstack = 0
  3781                           ; Regs used in _PWM_config: [wreg+status,2+status,0+btemp+1+pclath+cstack]
  3782                           ;PWM_config@canal stored from wreg
  3783     1ACD  1283               	bcf	3,5	;RP0=0, select bank2
  3784     1ACE  1703               	bsf	3,6	;RP1=1, select bank2
  3785     1ACF  0094               	movwf	PWM_config@canal^(0+256)
  3786     1AD0                     l4429:
  3787                           
  3788                           ;PWM_SERVO1.c: 6:     PR2 = (char) (periodo_ms/(4*(1.0f/4000000)*16));
  3789     1AD0  0813               	movf	(PWM_config@periodo_ms+3)^(0+256),w
  3790     1AD1  1683               	bsf	3,5	;RP0=1, select bank3
  3791     1AD2  1703               	bsf	3,6	;RP1=1, select bank3
  3792     1AD3  00A5               	movwf	(___fldiv@b+3)^(0+384)
  3793     1AD4  1283               	bcf	3,5	;RP0=0, select bank2
  3794     1AD5  1703               	bsf	3,6	;RP1=1, select bank2
  3795     1AD6  0812               	movf	(PWM_config@periodo_ms+2)^(0+256),w
  3796     1AD7  1683               	bsf	3,5	;RP0=1, select bank3
  3797     1AD8  1703               	bsf	3,6	;RP1=1, select bank3
  3798     1AD9  00A4               	movwf	(___fldiv@b+2)^(0+384)
  3799     1ADA  1283               	bcf	3,5	;RP0=0, select bank2
  3800     1ADB  1703               	bsf	3,6	;RP1=1, select bank2
  3801     1ADC  0811               	movf	(PWM_config@periodo_ms+1)^(0+256),w
  3802     1ADD  1683               	bsf	3,5	;RP0=1, select bank3
  3803     1ADE  1703               	bsf	3,6	;RP1=1, select bank3
  3804     1ADF  00A3               	movwf	(___fldiv@b+1)^(0+384)
  3805     1AE0  1283               	bcf	3,5	;RP0=0, select bank2
  3806     1AE1  1703               	bsf	3,6	;RP1=1, select bank2
  3807     1AE2  0810               	movf	PWM_config@periodo_ms^(0+256),w
  3808     1AE3  1683               	bsf	3,5	;RP0=1, select bank3
  3809     1AE4  1703               	bsf	3,6	;RP1=1, select bank3
  3810     1AE5  00A2               	movwf	___fldiv@b^(0+384)
  3811     1AE6  3037               	movlw	55
  3812     1AE7  00A1               	movwf	(___fldiv@a+3)^(0+384)
  3813     1AE8  3086               	movlw	134
  3814     1AE9  00A0               	movwf	(___fldiv@a+2)^(0+384)
  3815     1AEA  3037               	movlw	55
  3816     1AEB  009F               	movwf	(___fldiv@a+1)^(0+384)
  3817     1AEC  30BD               	movlw	189
  3818     1AED  009E               	movwf	___fldiv@a^(0+384)
  3819     1AEE  160A  118A  217D  160A  158A  	fcall	___fldiv
  3820     1AF3  1683               	bsf	3,5	;RP0=1, select bank3
  3821     1AF4  1703               	bsf	3,6	;RP1=1, select bank3
  3822     1AF5  0821               	movf	(?___fldiv+3)^(0+384),w
  3823     1AF6  00E9               	movwf	(___fltol@f1+3)^(0+384)
  3824     1AF7  0820               	movf	(?___fldiv+2)^(0+384),w
  3825     1AF8  00E8               	movwf	(___fltol@f1+2)^(0+384)
  3826     1AF9  081F               	movf	(?___fldiv+1)^(0+384),w
  3827     1AFA  00E7               	movwf	(___fltol@f1+1)^(0+384)
  3828     1AFB  081E               	movf	?___fldiv^(0+384),w
  3829     1AFC  00E6               	movwf	___fltol@f1^(0+384)
  3830     1AFD  160A  158A  2255  160A  158A  	fcall	___fltol
  3831     1B02  1683               	bsf	3,5	;RP0=1, select bank3
  3832     1B03  1703               	bsf	3,6	;RP1=1, select bank3
  3833     1B04  0866               	movf	?___fltol^(0+384),w
  3834     1B05  1683               	bsf	3,5	;RP0=1, select bank1
  3835     1B06  1303               	bcf	3,6	;RP1=0, select bank1
  3836     1B07  0092               	movwf	18	;volatile
  3837     1B08                     l4431:
  3838                           
  3839                           ;PWM_SERVO1.c: 7:     if (canal == 1){
  3840     1B08  1283               	bcf	3,5	;RP0=0, select bank2
  3841     1B09  1703               	bsf	3,6	;RP1=1, select bank2
  3842     1B0A  0314               	decf	PWM_config@canal^(0+256),w
  3843     1B0B  1D03               	btfss	3,2
  3844     1B0C  2B0E               	goto	u7501
  3845     1B0D  2B0F               	goto	u7500
  3846     1B0E                     u7501:
  3847     1B0E  2B1F               	goto	l4443
  3848     1B0F                     u7500:
  3849     1B0F                     l4433:
  3850                           
  3851                           ;PWM_SERVO1.c: 8:         TRISCbits.TRISC2 = 1;
  3852     1B0F  1683               	bsf	3,5	;RP0=1, select bank1
  3853     1B10  1303               	bcf	3,6	;RP1=0, select bank1
  3854     1B11  1507               	bsf	7,2	;volatile
  3855     1B12                     l4435:
  3856                           
  3857                           ;PWM_SERVO1.c: 9:         CCP1CONbits.P1M = 0;
  3858     1B12  303F               	movlw	-193
  3859     1B13  1283               	bcf	3,5	;RP0=0, select bank0
  3860     1B14  1303               	bcf	3,6	;RP1=0, select bank0
  3861     1B15  0597               	andwf	23,f	;volatile
  3862                           
  3863                           ;PWM_SERVO1.c: 10:         CCP1CONbits.CCP1M = 0b1101;
  3864     1B16  0817               	movf	23,w	;volatile
  3865     1B17  39F0               	andlw	-16
  3866     1B18  380D               	iorlw	13
  3867     1B19  0097               	movwf	23	;volatile
  3868     1B1A                     l4437:
  3869                           
  3870                           ;PWM_SERVO1.c: 11:         CCPR1L = 255;
  3871     1B1A  30FF               	movlw	255
  3872     1B1B  0095               	movwf	21	;volatile
  3873     1B1C                     l4439:
  3874                           
  3875                           ;PWM_SERVO1.c: 12:         CCP1CONbits.DC1B0 = 0;
  3876     1B1C  1217               	bcf	23,4	;volatile
  3877     1B1D                     l4441:
  3878                           
  3879                           ;PWM_SERVO1.c: 13:         CCP1CONbits.DC1B1 = 0;
  3880     1B1D  1297               	bcf	23,5	;volatile
  3881                           
  3882                           ;PWM_SERVO1.c: 14:     }
  3883     1B1E  2B2F               	goto	l4455
  3884     1B1F                     l4443:
  3885     1B1F  3002               	movlw	2
  3886     1B20  0614               	xorwf	PWM_config@canal^(0+256),w
  3887     1B21  1D03               	btfss	3,2
  3888     1B22  2B24               	goto	u7511
  3889     1B23  2B25               	goto	u7510
  3890     1B24                     u7511:
  3891     1B24  2B2F               	goto	l4455
  3892     1B25                     u7510:
  3893     1B25                     l4445:
  3894                           
  3895                           ;PWM_SERVO1.c: 16:         TRISCbits.TRISC1 = 1;
  3896     1B25  1683               	bsf	3,5	;RP0=1, select bank1
  3897     1B26  1303               	bcf	3,6	;RP1=0, select bank1
  3898     1B27  1487               	bsf	7,1	;volatile
  3899     1B28                     l4447:
  3900                           
  3901                           ;PWM_SERVO1.c: 18:         CCP2CONbits.CCP2M = 0b1111;
  3902     1B28  300F               	movlw	15
  3903     1B29  1283               	bcf	3,5	;RP0=0, select bank0
  3904     1B2A  1303               	bcf	3,6	;RP1=0, select bank0
  3905     1B2B  049D               	iorwf	29,f	;volatile
  3906     1B2C                     l4449:
  3907                           
  3908                           ;PWM_SERVO1.c: 19:         CCPR2L = 0;
  3909     1B2C  019B               	clrf	27	;volatile
  3910     1B2D                     l4451:
  3911                           
  3912                           ;PWM_SERVO1.c: 20:         CCP2CONbits.DC2B0 = 0;
  3913     1B2D  121D               	bcf	29,4	;volatile
  3914     1B2E                     l4453:
  3915                           
  3916                           ;PWM_SERVO1.c: 21:         CCP2CONbits.DC2B1 = 0;
  3917     1B2E  129D               	bcf	29,5	;volatile
  3918     1B2F                     l4455:
  3919                           
  3920                           ;PWM_SERVO1.c: 23:     PIR1bits.TMR2IF = 0;
  3921     1B2F  1303               	bcf	3,6	;RP1=0, select bank0
  3922     1B30  108C               	bcf	12,1	;volatile
  3923     1B31                     l4457:
  3924                           
  3925                           ;PWM_SERVO1.c: 24:     T2CONbits.T2CKPS = 0b11;
  3926     1B31  3003               	movlw	3
  3927     1B32  0492               	iorwf	18,f	;volatile
  3928     1B33                     l4459:
  3929                           
  3930                           ;PWM_SERVO1.c: 25:     T2CONbits.TMR2ON = 1;
  3931     1B33  1512               	bsf	18,2	;volatile
  3932     1B34                     l276:	
  3933                           ;PWM_SERVO1.c: 26:     while(PIR1bits.TMR2IF == 0);
  3934                           
  3935     1B34  1C8C               	btfss	12,1	;volatile
  3936     1B35  2B37               	goto	u7521
  3937     1B36  2B38               	goto	u7520
  3938     1B37                     u7521:
  3939     1B37  2B34               	goto	l276
  3940     1B38                     u7520:
  3941     1B38                     l278:
  3942                           
  3943                           ;PWM_SERVO1.c: 27:     PIR1bits.TMR2IF = 0;
  3944     1B38  108C               	bcf	12,1	;volatile
  3945     1B39                     l4461:
  3946                           
  3947                           ;PWM_SERVO1.c: 28:     if (canal == 1)
  3948     1B39  1283               	bcf	3,5	;RP0=0, select bank2
  3949     1B3A  1703               	bsf	3,6	;RP1=1, select bank2
  3950     1B3B  0314               	decf	PWM_config@canal^(0+256),w
  3951     1B3C  1D03               	btfss	3,2
  3952     1B3D  2B3F               	goto	u7531
  3953     1B3E  2B40               	goto	u7530
  3954     1B3F                     u7531:
  3955     1B3F  2B44               	goto	l279
  3956     1B40                     u7530:
  3957     1B40                     l4463:
  3958                           
  3959                           ;PWM_SERVO1.c: 29:         TRISCbits.TRISC2 = 0;
  3960     1B40  1683               	bsf	3,5	;RP0=1, select bank1
  3961     1B41  1303               	bcf	3,6	;RP1=0, select bank1
  3962     1B42  1107               	bcf	7,2	;volatile
  3963     1B43  2B47               	goto	l281
  3964     1B44                     l279:	
  3965                           ;PWM_SERVO1.c: 30:     else
  3966                           
  3967                           
  3968                           ;PWM_SERVO1.c: 31:         TRISCbits.TRISC1 = 0;
  3969     1B44  1683               	bsf	3,5	;RP0=1, select bank1
  3970     1B45  1303               	bcf	3,6	;RP1=0, select bank1
  3971     1B46  1087               	bcf	7,1	;volatile
  3972     1B47                     l281:
  3973     1B47  0008               	return
  3974     1B48                     __end_of_PWM_config:
  3975                           
  3976                           	psect	text6
  3977     1A55                     __ptext6:	
  3978 ;; *************** function ___fltol *****************
  3979 ;; Defined at:
  3980 ;;		line 43 in file "C:\Program Files\Microchip\xc8\v2.40\pic\sources\c90\common\fltol.c"
  3981 ;; Parameters:    Size  Location     Type
  3982 ;;  f1              4   86[BANK3 ] void 
  3983 ;; Auto vars:     Size  Location     Type
  3984 ;;  exp1            1   95[BANK3 ] unsigned char 
  3985 ;;  sign1           1   94[BANK3 ] unsigned char 
  3986 ;; Return value:  Size  Location     Type
  3987 ;;                  4   86[BANK3 ] long 
  3988 ;; Registers used:
  3989 ;;		wreg, status,2, status,0
  3990 ;; Tracked objects:
  3991 ;;		On entry : 0/0
  3992 ;;		On exit  : 0/0
  3993 ;;		Unchanged: 0/0
  3994 ;; Data sizes:     COMMON   BANK0   BANK1   BANK3   BANK2
  3995 ;;      Params:         0       0       0       4       0
  3996 ;;      Locals:         0       0       0       2       0
  3997 ;;      Temps:          0       0       0       4       0
  3998 ;;      Totals:         0       0       0      10       0
  3999 ;;Total ram usage:       10 bytes
  4000 ;; Hardware stack levels used: 1
  4001 ;; Hardware stack levels required when called: 5
  4002 ;; This function calls:
  4003 ;;		Nothing
  4004 ;; This function is called by:
  4005 ;;		_main
  4006 ;;		_PWM_config
  4007 ;;		_PWM_duty
  4008 ;; This function uses a non-reentrant model
  4009 ;;
  4010                           
  4011     1A55                     ___fltol:	
  4012                           ;psect for function ___fltol
  4013                           
  4014     1A55                     l4089:	
  4015                           ;incstack = 0
  4016                           ; Regs used in ___fltol: [wreg+status,2+status,0]
  4017                           
  4018     1A55  1003               	clrc
  4019     1A56  1683               	bsf	3,5	;RP0=1, select bank3
  4020     1A57  1703               	bsf	3,6	;RP1=1, select bank3
  4021     1A58  0D68               	rlf	(___fltol@f1+2)^(0+384),w
  4022     1A59  0D69               	rlf	(___fltol@f1+3)^(0+384),w
  4023     1A5A  00EF               	movwf	___fltol@exp1^(0+384)
  4024     1A5B  086F               	movf	___fltol@exp1^(0+384),w
  4025     1A5C  1D03               	btfss	3,2
  4026     1A5D  2A5F               	goto	u6721
  4027     1A5E  2A60               	goto	u6720
  4028     1A5F                     u6721:
  4029     1A5F  2A69               	goto	l4095
  4030     1A60                     u6720:
  4031     1A60                     l4091:
  4032     1A60  3000               	movlw	0
  4033     1A61  00E9               	movwf	(?___fltol+3)^(0+384)
  4034     1A62  3000               	movlw	0
  4035     1A63  00E8               	movwf	(?___fltol+2)^(0+384)
  4036     1A64  3000               	movlw	0
  4037     1A65  00E7               	movwf	(?___fltol+1)^(0+384)
  4038     1A66  3000               	movlw	0
  4039     1A67  00E6               	movwf	?___fltol^(0+384)
  4040     1A68  2ACC               	goto	l559
  4041     1A69                     l4095:
  4042     1A69  0866               	movf	___fltol@f1^(0+384),w
  4043     1A6A  00EA               	movwf	??___fltol^(0+384)
  4044     1A6B  0867               	movf	(___fltol@f1+1)^(0+384),w
  4045     1A6C  00EB               	movwf	(??___fltol^(0+384)+1)
  4046     1A6D  0868               	movf	(___fltol@f1+2)^(0+384),w
  4047     1A6E  00EC               	movwf	(??___fltol^(0+384)+2)
  4048     1A6F  0869               	movf	(___fltol@f1+3)^(0+384),w
  4049     1A70  00ED               	movwf	(??___fltol^(0+384)+3)
  4050     1A71  301F               	movlw	31
  4051     1A72                     u6735:
  4052     1A72  1003               	clrc
  4053     1A73  0CED               	rrf	(??___fltol^(0+384)+3),f
  4054     1A74  0CEC               	rrf	(??___fltol^(0+384)+2),f
  4055     1A75  0CEB               	rrf	(??___fltol^(0+384)+1),f
  4056     1A76  0CEA               	rrf	??___fltol^(0+384),f
  4057     1A77                     u6730:
  4058     1A77  3EFF               	addlw	-1
  4059     1A78  1D03               	skipz
  4060     1A79  2A72               	goto	u6735
  4061     1A7A  086A               	movf	??___fltol^(0+384),w
  4062     1A7B  00EE               	movwf	___fltol@sign1^(0+384)
  4063     1A7C                     l4097:
  4064     1A7C  17E8               	bsf	(___fltol@f1^(0+384)+2),7
  4065     1A7D                     l4099:
  4066     1A7D  30FF               	movlw	255
  4067     1A7E  05E6               	andwf	___fltol@f1^(0+384),f
  4068     1A7F  30FF               	movlw	255
  4069     1A80  05E7               	andwf	(___fltol@f1+1)^(0+384),f
  4070     1A81  30FF               	movlw	255
  4071     1A82  05E8               	andwf	(___fltol@f1+2)^(0+384),f
  4072     1A83  3000               	movlw	0
  4073     1A84  05E9               	andwf	(___fltol@f1+3)^(0+384),f
  4074     1A85                     l4101:
  4075     1A85  3096               	movlw	150
  4076     1A86  02EF               	subwf	___fltol@exp1^(0+384),f
  4077     1A87                     l4103:
  4078     1A87  1FEF               	btfss	___fltol@exp1^(0+384),7
  4079     1A88  2A8A               	goto	u6741
  4080     1A89  2A8B               	goto	u6740
  4081     1A8A                     u6741:
  4082     1A8A  2AA5               	goto	l4113
  4083     1A8B                     u6740:
  4084     1A8B                     l4105:
  4085     1A8B  086F               	movf	___fltol@exp1^(0+384),w
  4086     1A8C  3A80               	xorlw	128
  4087     1A8D  3E97               	addlw	151
  4088     1A8E  1803               	skipnc
  4089     1A8F  2A91               	goto	u6751
  4090     1A90  2A92               	goto	u6750
  4091     1A91                     u6751:
  4092     1A91  2A93               	goto	l4111
  4093     1A92                     u6750:
  4094     1A92  2A60               	goto	l4091
  4095     1A93                     l4111:
  4096     1A93  3001               	movlw	1
  4097     1A94                     u6765:
  4098     1A94  1003               	clrc
  4099     1A95  0CE9               	rrf	(___fltol@f1+3)^(0+384),f
  4100     1A96  0CE8               	rrf	(___fltol@f1+2)^(0+384),f
  4101     1A97  0CE7               	rrf	(___fltol@f1+1)^(0+384),f
  4102     1A98  0CE6               	rrf	___fltol@f1^(0+384),f
  4103     1A99  3EFF               	addlw	-1
  4104     1A9A  1D03               	skipz
  4105     1A9B  2A94               	goto	u6765
  4106     1A9C  3001               	movlw	1
  4107     1A9D  00EA               	movwf	??___fltol^(0+384)
  4108     1A9E  086A               	movf	??___fltol^(0+384),w
  4109     1A9F  07EF               	addwf	___fltol@exp1^(0+384),f
  4110     1AA0  1D03               	btfss	3,2
  4111     1AA1  2AA3               	goto	u6771
  4112     1AA2  2AA4               	goto	u6770
  4113     1AA3                     u6771:
  4114     1AA3  2A93               	goto	l4111
  4115     1AA4                     u6770:
  4116     1AA4  2ABC               	goto	l4121
  4117     1AA5                     l4113:
  4118     1AA5  3020               	movlw	32
  4119     1AA6  026F               	subwf	___fltol@exp1^(0+384),w
  4120     1AA7  1C03               	skipc
  4121     1AA8  2AAA               	goto	u6781
  4122     1AA9  2AAB               	goto	u6780
  4123     1AAA                     u6781:
  4124     1AAA  2AB7               	goto	l566
  4125     1AAB                     u6780:
  4126     1AAB  2A60               	goto	l4091
  4127     1AAC                     l4119:
  4128     1AAC  3001               	movlw	1
  4129     1AAD  00EA               	movwf	??___fltol^(0+384)
  4130     1AAE                     u6795:
  4131     1AAE  1003               	clrc
  4132     1AAF  0DE6               	rlf	___fltol@f1^(0+384),f
  4133     1AB0  0DE7               	rlf	(___fltol@f1+1)^(0+384),f
  4134     1AB1  0DE8               	rlf	(___fltol@f1+2)^(0+384),f
  4135     1AB2  0DE9               	rlf	(___fltol@f1+3)^(0+384),f
  4136     1AB3  0BEA               	decfsz	??___fltol^(0+384),f
  4137     1AB4  2AAE               	goto	u6795
  4138     1AB5  3001               	movlw	1
  4139     1AB6  02EF               	subwf	___fltol@exp1^(0+384),f
  4140     1AB7                     l566:
  4141     1AB7  086F               	movf	___fltol@exp1^(0+384),w
  4142     1AB8  1D03               	btfss	3,2
  4143     1AB9  2ABB               	goto	u6801
  4144     1ABA  2ABC               	goto	u6800
  4145     1ABB                     u6801:
  4146     1ABB  2AAC               	goto	l4119
  4147     1ABC                     u6800:
  4148     1ABC                     l4121:
  4149     1ABC  086E               	movf	___fltol@sign1^(0+384),w
  4150     1ABD  1903               	btfsc	3,2
  4151     1ABE  2AC0               	goto	u6811
  4152     1ABF  2AC1               	goto	u6810
  4153     1AC0                     u6811:
  4154     1AC0  2ACC               	goto	l569
  4155     1AC1                     u6810:
  4156     1AC1                     l4123:
  4157     1AC1  09E6               	comf	___fltol@f1^(0+384),f
  4158     1AC2  09E7               	comf	(___fltol@f1+1)^(0+384),f
  4159     1AC3  09E8               	comf	(___fltol@f1+2)^(0+384),f
  4160     1AC4  09E9               	comf	(___fltol@f1+3)^(0+384),f
  4161     1AC5  0AE6               	incf	___fltol@f1^(0+384),f
  4162     1AC6  1903               	skipnz
  4163     1AC7  0AE7               	incf	(___fltol@f1+1)^(0+384),f
  4164     1AC8  1903               	skipnz
  4165     1AC9  0AE8               	incf	(___fltol@f1+2)^(0+384),f
  4166     1ACA  1903               	skipnz
  4167     1ACB  0AE9               	incf	(___fltol@f1+3)^(0+384),f
  4168     1ACC                     l569:
  4169     1ACC                     l559:
  4170     1ACC  0008               	return
  4171     1ACD                     __end_of___fltol:
  4172                           
  4173                           	psect	text7
  4174     117D                     __ptext7:	
  4175 ;; *************** function ___fldiv *****************
  4176 ;; Defined at:
  4177 ;;		line 8 in file "C:\Program Files\Microchip\xc8\v2.40\pic\sources\c90\common\sprcdiv.c"
  4178 ;; Parameters:    Size  Location     Type
  4179 ;;  a               4   14[BANK3 ] long 
  4180 ;;  b               4   18[BANK3 ] long 
  4181 ;; Auto vars:     Size  Location     Type
  4182 ;;  grs             4   34[BANK3 ] unsigned long 
  4183 ;;  rem             4   27[BANK3 ] unsigned long 
  4184 ;;  new_exp         2   32[BANK3 ] int 
  4185 ;;  aexp            1   39[BANK3 ] unsigned char 
  4186 ;;  bexp            1   38[BANK3 ] unsigned char 
  4187 ;;  sign            1   31[BANK3 ] unsigned char 
  4188 ;; Return value:  Size  Location     Type
  4189 ;;                  4   14[BANK3 ] unsigned char 
  4190 ;; Registers used:
  4191 ;;		wreg, status,2, status,0, btemp+1
  4192 ;; Tracked objects:
  4193 ;;		On entry : 0/0
  4194 ;;		On exit  : 0/0
  4195 ;;		Unchanged: 0/0
  4196 ;; Data sizes:     COMMON   BANK0   BANK1   BANK3   BANK2
  4197 ;;      Params:         0       0       0       8       0
  4198 ;;      Locals:         0       0       0      13       0
  4199 ;;      Temps:          0       0       0       5       0
  4200 ;;      Totals:         0       0       0      26       0
  4201 ;;Total ram usage:       26 bytes
  4202 ;; Hardware stack levels used: 1
  4203 ;; Hardware stack levels required when called: 5
  4204 ;; This function calls:
  4205 ;;		Nothing
  4206 ;; This function is called by:
  4207 ;;		_main
  4208 ;;		_PWM_config
  4209 ;;		_PWM_duty
  4210 ;; This function uses a non-reentrant model
  4211 ;;
  4212                           
  4213     117D                     ___fldiv:	
  4214                           ;psect for function ___fldiv
  4215                           
  4216     117D                     l4125:	
  4217                           ;incstack = 0
  4218                           ; Regs used in ___fldiv: [wreg+status,2+status,0+btemp+1]
  4219                           
  4220     117D  1683               	bsf	3,5	;RP0=1, select bank3
  4221     117E  1703               	bsf	3,6	;RP1=1, select bank3
  4222     117F  0825               	movf	(___fldiv@b^(0+384)+3),w
  4223     1180  3980               	andlw	128
  4224     1181  00AF               	movwf	___fldiv@sign^(0+384)
  4225     1182                     l4127:
  4226     1182  0825               	movf	(___fldiv@b^(0+384)+3),w
  4227     1183  00A6               	movwf	??___fldiv^(0+384)
  4228     1184  0726               	addwf	??___fldiv^(0+384),w
  4229     1185  00B6               	movwf	___fldiv@bexp^(0+384)
  4230     1186                     l4129:
  4231     1186  1FA4               	btfss	(___fldiv@b^(0+384)+2),7
  4232     1187  2989               	goto	u6821
  4233     1188  298A               	goto	u6820
  4234     1189                     u6821:
  4235     1189  298B               	goto	l4133
  4236     118A                     u6820:
  4237     118A                     l4131:
  4238     118A  1436               	bsf	___fldiv@bexp^(0+384),0
  4239     118B                     l4133:
  4240     118B  0836               	movf	___fldiv@bexp^(0+384),w
  4241     118C  1903               	btfsc	3,2
  4242     118D  298F               	goto	u6831
  4243     118E  2990               	goto	u6830
  4244     118F                     u6831:
  4245     118F  29A0               	goto	l4143
  4246     1190                     u6830:
  4247     1190                     l4135:
  4248     1190  0A36               	incf	___fldiv@bexp^(0+384),w
  4249     1191  1D03               	btfss	3,2
  4250     1192  2994               	goto	u6841
  4251     1193  2995               	goto	u6840
  4252     1194                     u6841:
  4253     1194  299D               	goto	l4139
  4254     1195                     u6840:
  4255     1195                     l4137:
  4256     1195  3000               	movlw	0
  4257     1196  00A5               	movwf	(___fldiv@b+3)^(0+384)
  4258     1197  3000               	movlw	0
  4259     1198  00A4               	movwf	(___fldiv@b+2)^(0+384)
  4260     1199  3000               	movlw	0
  4261     119A  00A3               	movwf	(___fldiv@b+1)^(0+384)
  4262     119B  3000               	movlw	0
  4263     119C  00A2               	movwf	___fldiv@b^(0+384)
  4264     119D                     l4139:
  4265     119D  17A4               	bsf	(___fldiv@b^(0+384)+2),7
  4266     119E                     l4141:
  4267     119E  01A5               	clrf	(___fldiv@b^(0+384)+3)
  4268     119F  29A8               	goto	l4145
  4269     11A0                     l4143:
  4270     11A0  3000               	movlw	0
  4271     11A1  00A5               	movwf	(___fldiv@b+3)^(0+384)
  4272     11A2  3000               	movlw	0
  4273     11A3  00A4               	movwf	(___fldiv@b+2)^(0+384)
  4274     11A4  3000               	movlw	0
  4275     11A5  00A3               	movwf	(___fldiv@b+1)^(0+384)
  4276     11A6  3000               	movlw	0
  4277     11A7  00A2               	movwf	___fldiv@b^(0+384)
  4278     11A8                     l4145:
  4279     11A8  0821               	movf	(___fldiv@a^(0+384)+3),w
  4280     11A9  3980               	andlw	128
  4281     11AA  00A6               	movwf	??___fldiv^(0+384)
  4282     11AB  0826               	movf	??___fldiv^(0+384),w
  4283     11AC  06AF               	xorwf	___fldiv@sign^(0+384),f
  4284     11AD                     l4147:
  4285     11AD  0821               	movf	(___fldiv@a^(0+384)+3),w
  4286     11AE  00A6               	movwf	??___fldiv^(0+384)
  4287     11AF  0726               	addwf	??___fldiv^(0+384),w
  4288     11B0  00B7               	movwf	___fldiv@aexp^(0+384)
  4289     11B1                     l4149:
  4290     11B1  1FA0               	btfss	(___fldiv@a^(0+384)+2),7
  4291     11B2  29B4               	goto	u6851
  4292     11B3  29B5               	goto	u6850
  4293     11B4                     u6851:
  4294     11B4  29B6               	goto	l4153
  4295     11B5                     u6850:
  4296     11B5                     l4151:
  4297     11B5  1437               	bsf	___fldiv@aexp^(0+384),0
  4298     11B6                     l4153:
  4299     11B6  0837               	movf	___fldiv@aexp^(0+384),w
  4300     11B7  1903               	btfsc	3,2
  4301     11B8  29BA               	goto	u6861
  4302     11B9  29BB               	goto	u6860
  4303     11BA                     u6861:
  4304     11BA  29CB               	goto	l4163
  4305     11BB                     u6860:
  4306     11BB                     l4155:
  4307     11BB  0A37               	incf	___fldiv@aexp^(0+384),w
  4308     11BC  1D03               	btfss	3,2
  4309     11BD  29BF               	goto	u6871
  4310     11BE  29C0               	goto	u6870
  4311     11BF                     u6871:
  4312     11BF  29C8               	goto	l4159
  4313     11C0                     u6870:
  4314     11C0                     l4157:
  4315     11C0  3000               	movlw	0
  4316     11C1  00A1               	movwf	(___fldiv@a+3)^(0+384)
  4317     11C2  3000               	movlw	0
  4318     11C3  00A0               	movwf	(___fldiv@a+2)^(0+384)
  4319     11C4  3000               	movlw	0
  4320     11C5  009F               	movwf	(___fldiv@a+1)^(0+384)
  4321     11C6  3000               	movlw	0
  4322     11C7  009E               	movwf	___fldiv@a^(0+384)
  4323     11C8                     l4159:
  4324     11C8  17A0               	bsf	(___fldiv@a^(0+384)+2),7
  4325     11C9                     l4161:
  4326     11C9  01A1               	clrf	(___fldiv@a^(0+384)+3)
  4327     11CA  29D3               	goto	l722
  4328     11CB                     l4163:
  4329     11CB  3000               	movlw	0
  4330     11CC  00A1               	movwf	(___fldiv@a+3)^(0+384)
  4331     11CD  3000               	movlw	0
  4332     11CE  00A0               	movwf	(___fldiv@a+2)^(0+384)
  4333     11CF  3000               	movlw	0
  4334     11D0  009F               	movwf	(___fldiv@a+1)^(0+384)
  4335     11D1  3000               	movlw	0
  4336     11D2  009E               	movwf	___fldiv@a^(0+384)
  4337     11D3                     l722:
  4338     11D3  0821               	movf	(___fldiv@a+3)^(0+384),w
  4339     11D4  0420               	iorwf	(___fldiv@a+2)^(0+384),w
  4340     11D5  041F               	iorwf	(___fldiv@a+1)^(0+384),w
  4341     11D6  041E               	iorwf	___fldiv@a^(0+384),w
  4342     11D7  1D03               	skipz
  4343     11D8  29DA               	goto	u6881
  4344     11D9  29DB               	goto	u6880
  4345     11DA                     u6881:
  4346     11DA  29F4               	goto	l4173
  4347     11DB                     u6880:
  4348     11DB                     l4165:
  4349     11DB  3000               	movlw	0
  4350     11DC  00A5               	movwf	(___fldiv@b+3)^(0+384)
  4351     11DD  3000               	movlw	0
  4352     11DE  00A4               	movwf	(___fldiv@b+2)^(0+384)
  4353     11DF  3000               	movlw	0
  4354     11E0  00A3               	movwf	(___fldiv@b+1)^(0+384)
  4355     11E1  3000               	movlw	0
  4356     11E2  00A2               	movwf	___fldiv@b^(0+384)
  4357     11E3  3080               	movlw	128
  4358     11E4  04A4               	iorwf	(___fldiv@b^(0+384)+2),f
  4359     11E5  307F               	movlw	127
  4360     11E6  04A5               	iorwf	((___fldiv@b+1)^(0+384)+2),f
  4361     11E7                     l4167:
  4362     11E7  082F               	movf	___fldiv@sign^(0+384),w
  4363     11E8  00A6               	movwf	??___fldiv^(0+384)
  4364     11E9  0826               	movf	??___fldiv^(0+384),w
  4365     11EA  04A5               	iorwf	(___fldiv@b^(0+384)+3),f
  4366     11EB                     l4169:
  4367     11EB  0825               	movf	(___fldiv@b+3)^(0+384),w
  4368     11EC  00A1               	movwf	(?___fldiv+3)^(0+384)
  4369     11ED  0824               	movf	(___fldiv@b+2)^(0+384),w
  4370     11EE  00A0               	movwf	(?___fldiv+2)^(0+384)
  4371     11EF  0823               	movf	(___fldiv@b+1)^(0+384),w
  4372     11F0  009F               	movwf	(?___fldiv+1)^(0+384)
  4373     11F1  0822               	movf	___fldiv@b^(0+384),w
  4374     11F2  009E               	movwf	?___fldiv^(0+384)
  4375     11F3  2B4F               	goto	l724
  4376     11F4                     l4173:
  4377     11F4  0836               	movf	___fldiv@bexp^(0+384),w
  4378     11F5  1D03               	btfss	3,2
  4379     11F6  29F8               	goto	u6891
  4380     11F7  29F9               	goto	u6890
  4381     11F8                     u6891:
  4382     11F8  2A02               	goto	l4179
  4383     11F9                     u6890:
  4384     11F9                     l4175:
  4385     11F9  3000               	movlw	0
  4386     11FA  00A1               	movwf	(?___fldiv+3)^(0+384)
  4387     11FB  3000               	movlw	0
  4388     11FC  00A0               	movwf	(?___fldiv+2)^(0+384)
  4389     11FD  3000               	movlw	0
  4390     11FE  009F               	movwf	(?___fldiv+1)^(0+384)
  4391     11FF  3000               	movlw	0
  4392     1200  009E               	movwf	?___fldiv^(0+384)
  4393     1201  2B4F               	goto	l724
  4394     1202                     l4179:
  4395     1202  0836               	movf	___fldiv@bexp^(0+384),w
  4396     1203  00A6               	movwf	??___fldiv^(0+384)
  4397     1204  01A7               	clrf	(??___fldiv^(0+384)+1)
  4398     1205  0827               	movf	(??___fldiv+1)^(0+384),w
  4399     1206  00A9               	movwf	((??___fldiv+2)^(0+384)+1)
  4400     1207  0837               	movf	___fldiv@aexp^(0+384),w
  4401     1208  0226               	subwf	??___fldiv^(0+384),w
  4402     1209  00A8               	movwf	(??___fldiv+2)^(0+384)
  4403     120A  1C03               	skipc
  4404     120B  03A9               	decf	((??___fldiv+2)^(0+384)+1),f
  4405     120C  0828               	movf	(??___fldiv+2)^(0+384),w
  4406     120D  3E7F               	addlw	127
  4407     120E  00B0               	movwf	___fldiv@new_exp^(0+384)
  4408     120F  0829               	movf	(??___fldiv+3)^(0+384),w
  4409     1210  1803               	skipnc
  4410     1211  3E01               	addlw	1
  4411     1212  3E00               	addlw	0
  4412     1213  00B1               	movwf	(___fldiv@new_exp+1)^(0+384)
  4413     1214                     l4181:
  4414     1214  0825               	movf	(___fldiv@b+3)^(0+384),w
  4415     1215  00AE               	movwf	(___fldiv@rem+3)^(0+384)
  4416     1216  0824               	movf	(___fldiv@b+2)^(0+384),w
  4417     1217  00AD               	movwf	(___fldiv@rem+2)^(0+384)
  4418     1218  0823               	movf	(___fldiv@b+1)^(0+384),w
  4419     1219  00AC               	movwf	(___fldiv@rem+1)^(0+384)
  4420     121A  0822               	movf	___fldiv@b^(0+384),w
  4421     121B  00AB               	movwf	___fldiv@rem^(0+384)
  4422     121C                     l4183:
  4423     121C  3000               	movlw	0
  4424     121D  00A5               	movwf	(___fldiv@b+3)^(0+384)
  4425     121E  3000               	movlw	0
  4426     121F  00A4               	movwf	(___fldiv@b+2)^(0+384)
  4427     1220  3000               	movlw	0
  4428     1221  00A3               	movwf	(___fldiv@b+1)^(0+384)
  4429     1222  3000               	movlw	0
  4430     1223  00A2               	movwf	___fldiv@b^(0+384)
  4431     1224                     l4185:
  4432     1224  3000               	movlw	0
  4433     1225  00B5               	movwf	(___fldiv@grs+3)^(0+384)
  4434     1226  3000               	movlw	0
  4435     1227  00B4               	movwf	(___fldiv@grs+2)^(0+384)
  4436     1228  3000               	movlw	0
  4437     1229  00B3               	movwf	(___fldiv@grs+1)^(0+384)
  4438     122A  3000               	movlw	0
  4439     122B  00B2               	movwf	___fldiv@grs^(0+384)
  4440     122C                     l4187:
  4441     122C  01B7               	clrf	___fldiv@aexp^(0+384)
  4442     122D  2A78               	goto	l4207
  4443     122E                     l4189:
  4444     122E  0837               	movf	___fldiv@aexp^(0+384),w
  4445     122F  1903               	btfsc	3,2
  4446     1230  2A32               	goto	u6901
  4447     1231  2A33               	goto	u6900
  4448     1232                     u6901:
  4449     1232  2A53               	goto	l4199
  4450     1233                     u6900:
  4451     1233                     l4191:
  4452     1233  3001               	movlw	1
  4453     1234  00A6               	movwf	??___fldiv^(0+384)
  4454     1235                     u6915:
  4455     1235  1003               	clrc
  4456     1236  0DAB               	rlf	___fldiv@rem^(0+384),f
  4457     1237  0DAC               	rlf	(___fldiv@rem+1)^(0+384),f
  4458     1238  0DAD               	rlf	(___fldiv@rem+2)^(0+384),f
  4459     1239  0DAE               	rlf	(___fldiv@rem+3)^(0+384),f
  4460     123A  0BA6               	decfsz	??___fldiv^(0+384),f
  4461     123B  2A35               	goto	u6915
  4462     123C  3001               	movlw	1
  4463     123D  00A6               	movwf	??___fldiv^(0+384)
  4464     123E                     u6925:
  4465     123E  1003               	clrc
  4466     123F  0DA2               	rlf	___fldiv@b^(0+384),f
  4467     1240  0DA3               	rlf	(___fldiv@b+1)^(0+384),f
  4468     1241  0DA4               	rlf	(___fldiv@b+2)^(0+384),f
  4469     1242  0DA5               	rlf	(___fldiv@b+3)^(0+384),f
  4470     1243  0BA6               	decfsz	??___fldiv^(0+384),f
  4471     1244  2A3E               	goto	u6925
  4472     1245                     l4193:
  4473     1245  1FB5               	btfss	(___fldiv@grs+3)^(0+384),7
  4474     1246  2A48               	goto	u6931
  4475     1247  2A49               	goto	u6930
  4476     1248                     u6931:
  4477     1248  2A4A               	goto	l4197
  4478     1249                     u6930:
  4479     1249                     l4195:
  4480     1249  1422               	bsf	___fldiv@b^(0+384),0
  4481     124A                     l4197:
  4482     124A  3001               	movlw	1
  4483     124B  00A6               	movwf	??___fldiv^(0+384)
  4484     124C                     u6945:
  4485     124C  1003               	clrc
  4486     124D  0DB2               	rlf	___fldiv@grs^(0+384),f
  4487     124E  0DB3               	rlf	(___fldiv@grs+1)^(0+384),f
  4488     124F  0DB4               	rlf	(___fldiv@grs+2)^(0+384),f
  4489     1250  0DB5               	rlf	(___fldiv@grs+3)^(0+384),f
  4490     1251  0BA6               	decfsz	??___fldiv^(0+384),f
  4491     1252  2A4C               	goto	u6945
  4492     1253                     l4199:
  4493     1253  0821               	movf	(___fldiv@a+3)^(0+384),w
  4494     1254  022E               	subwf	(___fldiv@rem+3)^(0+384),w
  4495     1255  1D03               	skipz
  4496     1256  2A61               	goto	u6955
  4497     1257  0820               	movf	(___fldiv@a+2)^(0+384),w
  4498     1258  022D               	subwf	(___fldiv@rem+2)^(0+384),w
  4499     1259  1D03               	skipz
  4500     125A  2A61               	goto	u6955
  4501     125B  081F               	movf	(___fldiv@a+1)^(0+384),w
  4502     125C  022C               	subwf	(___fldiv@rem+1)^(0+384),w
  4503     125D  1D03               	skipz
  4504     125E  2A61               	goto	u6955
  4505     125F  081E               	movf	___fldiv@a^(0+384),w
  4506     1260  022B               	subwf	___fldiv@rem^(0+384),w
  4507     1261                     u6955:
  4508     1261  1C03               	skipc
  4509     1262  2A64               	goto	u6951
  4510     1263  2A65               	goto	u6950
  4511     1264                     u6951:
  4512     1264  2A74               	goto	l4205
  4513     1265                     u6950:
  4514     1265                     l4201:
  4515     1265  1735               	bsf	(___fldiv@grs^(0+384)+3),6
  4516     1266                     l4203:
  4517     1266  081E               	movf	___fldiv@a^(0+384),w
  4518     1267  02AB               	subwf	___fldiv@rem^(0+384),f
  4519     1268  081F               	movf	(___fldiv@a+1)^(0+384),w
  4520     1269  1C03               	skipc
  4521     126A  0F1F               	incfsz	(___fldiv@a+1)^(0+384),w
  4522     126B  02AC               	subwf	(___fldiv@rem+1)^(0+384),f
  4523     126C  0820               	movf	(___fldiv@a+2)^(0+384),w
  4524     126D  1C03               	skipc
  4525     126E  0F20               	incfsz	(___fldiv@a+2)^(0+384),w
  4526     126F  02AD               	subwf	(___fldiv@rem+2)^(0+384),f
  4527     1270  0821               	movf	(___fldiv@a+3)^(0+384),w
  4528     1271  1C03               	skipc
  4529     1272  0F21               	incfsz	(___fldiv@a+3)^(0+384),w
  4530     1273  02AE               	subwf	(___fldiv@rem+3)^(0+384),f
  4531     1274                     l4205:
  4532     1274  3001               	movlw	1
  4533     1275  00A6               	movwf	??___fldiv^(0+384)
  4534     1276  0826               	movf	??___fldiv^(0+384),w
  4535     1277  07B7               	addwf	___fldiv@aexp^(0+384),f
  4536     1278                     l4207:
  4537     1278  301A               	movlw	26
  4538     1279  0237               	subwf	___fldiv@aexp^(0+384),w
  4539     127A  1C03               	skipc
  4540     127B  2A7D               	goto	u6961
  4541     127C  2A7E               	goto	u6960
  4542     127D                     u6961:
  4543     127D  2A2E               	goto	l4189
  4544     127E                     u6960:
  4545     127E                     l4209:
  4546     127E  082E               	movf	(___fldiv@rem+3)^(0+384),w
  4547     127F  042D               	iorwf	(___fldiv@rem+2)^(0+384),w
  4548     1280  042C               	iorwf	(___fldiv@rem+1)^(0+384),w
  4549     1281  042B               	iorwf	___fldiv@rem^(0+384),w
  4550     1282  1903               	skipnz
  4551     1283  2A85               	goto	u6971
  4552     1284  2A86               	goto	u6970
  4553     1285                     u6971:
  4554     1285  2AA5               	goto	l4223
  4555     1286                     u6970:
  4556     1286                     l4211:
  4557     1286  1432               	bsf	___fldiv@grs^(0+384),0
  4558     1287  2AA5               	goto	l4223
  4559     1288                     l4213:
  4560     1288  3001               	movlw	1
  4561     1289  00A6               	movwf	??___fldiv^(0+384)
  4562     128A                     u6985:
  4563     128A  1003               	clrc
  4564     128B  0DA2               	rlf	___fldiv@b^(0+384),f
  4565     128C  0DA3               	rlf	(___fldiv@b+1)^(0+384),f
  4566     128D  0DA4               	rlf	(___fldiv@b+2)^(0+384),f
  4567     128E  0DA5               	rlf	(___fldiv@b+3)^(0+384),f
  4568     128F  0BA6               	decfsz	??___fldiv^(0+384),f
  4569     1290  2A8A               	goto	u6985
  4570     1291                     l4215:
  4571     1291  1FB5               	btfss	(___fldiv@grs+3)^(0+384),7
  4572     1292  2A94               	goto	u6991
  4573     1293  2A95               	goto	u6990
  4574     1294                     u6991:
  4575     1294  2A96               	goto	l4219
  4576     1295                     u6990:
  4577     1295                     l4217:
  4578     1295  1422               	bsf	___fldiv@b^(0+384),0
  4579     1296                     l4219:
  4580     1296  3001               	movlw	1
  4581     1297  00A6               	movwf	??___fldiv^(0+384)
  4582     1298                     u7005:
  4583     1298  1003               	clrc
  4584     1299  0DB2               	rlf	___fldiv@grs^(0+384),f
  4585     129A  0DB3               	rlf	(___fldiv@grs+1)^(0+384),f
  4586     129B  0DB4               	rlf	(___fldiv@grs+2)^(0+384),f
  4587     129C  0DB5               	rlf	(___fldiv@grs+3)^(0+384),f
  4588     129D  0BA6               	decfsz	??___fldiv^(0+384),f
  4589     129E  2A98               	goto	u7005
  4590     129F                     l4221:
  4591     129F  30FF               	movlw	255
  4592     12A0  07B0               	addwf	___fldiv@new_exp^(0+384),f
  4593     12A1  1803               	skipnc
  4594     12A2  0AB1               	incf	(___fldiv@new_exp+1)^(0+384),f
  4595     12A3  30FF               	movlw	255
  4596     12A4  07B1               	addwf	(___fldiv@new_exp+1)^(0+384),f
  4597     12A5                     l4223:
  4598     12A5  1FA4               	btfss	(___fldiv@b+2)^(0+384),7
  4599     12A6  2AA8               	goto	u7011
  4600     12A7  2AA9               	goto	u7010
  4601     12A8                     u7011:
  4602     12A8  2A88               	goto	l4213
  4603     12A9                     u7010:
  4604     12A9                     l4225:
  4605     12A9  01B7               	clrf	___fldiv@aexp^(0+384)
  4606     12AA                     l4227:
  4607     12AA  1FB5               	btfss	(___fldiv@grs+3)^(0+384),7
  4608     12AB  2AAD               	goto	u7021
  4609     12AC  2AAE               	goto	u7020
  4610     12AD                     u7021:
  4611     12AD  2ACA               	goto	l4235
  4612     12AE                     u7020:
  4613     12AE                     l4229:
  4614     12AE  30FF               	movlw	255
  4615     12AF  0532               	andwf	___fldiv@grs^(0+384),w
  4616     12B0  00A6               	movwf	??___fldiv^(0+384)
  4617     12B1  30FF               	movlw	255
  4618     12B2  0533               	andwf	(___fldiv@grs+1)^(0+384),w
  4619     12B3  00A7               	movwf	(??___fldiv^(0+384)+1)
  4620     12B4  30FF               	movlw	255
  4621     12B5  0534               	andwf	(___fldiv@grs+2)^(0+384),w
  4622     12B6  00A8               	movwf	(??___fldiv^(0+384)+2)
  4623     12B7  307F               	movlw	127
  4624     12B8  0535               	andwf	(___fldiv@grs+3)^(0+384),w
  4625     12B9  00A9               	movwf	(??___fldiv^(0+384)+3)
  4626     12BA  0829               	movf	(??___fldiv+3)^(0+384),w
  4627     12BB  0428               	iorwf	(??___fldiv+2)^(0+384),w
  4628     12BC  0427               	iorwf	(??___fldiv+1)^(0+384),w
  4629     12BD  0426               	iorwf	??___fldiv^(0+384),w
  4630     12BE  1903               	skipnz
  4631     12BF  2AC1               	goto	u7031
  4632     12C0  2AC2               	goto	u7030
  4633     12C1                     u7031:
  4634     12C1  2AC5               	goto	l738
  4635     12C2                     u7030:
  4636     12C2                     l4231:
  4637     12C2  01B7               	clrf	___fldiv@aexp^(0+384)
  4638     12C3  0AB7               	incf	___fldiv@aexp^(0+384),f
  4639     12C4  2ACA               	goto	l4235
  4640     12C5                     l738:
  4641     12C5  1C22               	btfss	___fldiv@b^(0+384),0
  4642     12C6  2AC8               	goto	u7041
  4643     12C7  2AC9               	goto	u7040
  4644     12C8                     u7041:
  4645     12C8  2ACA               	goto	l4235
  4646     12C9                     u7040:
  4647     12C9  2AC2               	goto	l4231
  4648     12CA                     l4235:
  4649     12CA  0837               	movf	___fldiv@aexp^(0+384),w
  4650     12CB  1903               	btfsc	3,2
  4651     12CC  2ACE               	goto	u7051
  4652     12CD  2ACF               	goto	u7050
  4653     12CE                     u7051:
  4654     12CE  2B00               	goto	l4245
  4655     12CF                     u7050:
  4656     12CF                     l4237:
  4657     12CF  3001               	movlw	1
  4658     12D0  07A2               	addwf	___fldiv@b^(0+384),f
  4659     12D1  3000               	movlw	0
  4660     12D2  1803               	skipnc
  4661     12D3  3001               	movlw	1
  4662     12D4  07A3               	addwf	(___fldiv@b+1)^(0+384),f
  4663     12D5  3000               	movlw	0
  4664     12D6  1803               	skipnc
  4665     12D7  3001               	movlw	1
  4666     12D8  07A4               	addwf	(___fldiv@b+2)^(0+384),f
  4667     12D9  3000               	movlw	0
  4668     12DA  1803               	skipnc
  4669     12DB  3001               	movlw	1
  4670     12DC  07A5               	addwf	(___fldiv@b+3)^(0+384),f
  4671     12DD                     l4239:
  4672     12DD  1C25               	btfss	(___fldiv@b+3)^(0+384),0
  4673     12DE  2AE0               	goto	u7061
  4674     12DF  2AE1               	goto	u7060
  4675     12E0                     u7061:
  4676     12E0  2B00               	goto	l4245
  4677     12E1                     u7060:
  4678     12E1                     l4241:
  4679     12E1  0822               	movf	___fldiv@b^(0+384),w
  4680     12E2  00A6               	movwf	??___fldiv^(0+384)
  4681     12E3  0823               	movf	(___fldiv@b+1)^(0+384),w
  4682     12E4  00A7               	movwf	(??___fldiv^(0+384)+1)
  4683     12E5  0824               	movf	(___fldiv@b+2)^(0+384),w
  4684     12E6  00A8               	movwf	(??___fldiv^(0+384)+2)
  4685     12E7  0825               	movf	(___fldiv@b+3)^(0+384),w
  4686     12E8  00A9               	movwf	(??___fldiv^(0+384)+3)
  4687     12E9  3001               	movlw	1
  4688     12EA  00AA               	movwf	(??___fldiv+4)^(0+384)
  4689     12EB                     u7075:
  4690     12EB  0D29               	rlf	(??___fldiv^(0+384)+3),w
  4691     12EC  0CA9               	rrf	(??___fldiv^(0+384)+3),f
  4692     12ED  0CA8               	rrf	(??___fldiv^(0+384)+2),f
  4693     12EE  0CA7               	rrf	(??___fldiv^(0+384)+1),f
  4694     12EF  0CA6               	rrf	??___fldiv^(0+384),f
  4695     12F0                     u7070:
  4696     12F0  0BAA               	decfsz	(??___fldiv+4)^(0+384),f
  4697     12F1  2AEB               	goto	u7075
  4698     12F2  0829               	movf	(??___fldiv+3)^(0+384),w
  4699     12F3  00A5               	movwf	(___fldiv@b+3)^(0+384)
  4700     12F4  0828               	movf	(??___fldiv+2)^(0+384),w
  4701     12F5  00A4               	movwf	(___fldiv@b+2)^(0+384)
  4702     12F6  0827               	movf	(??___fldiv+1)^(0+384),w
  4703     12F7  00A3               	movwf	(___fldiv@b+1)^(0+384)
  4704     12F8  0826               	movf	??___fldiv^(0+384),w
  4705     12F9  00A2               	movwf	___fldiv@b^(0+384)
  4706     12FA                     l4243:
  4707     12FA  3001               	movlw	1
  4708     12FB  07B0               	addwf	___fldiv@new_exp^(0+384),f
  4709     12FC  1803               	skipnc
  4710     12FD  0AB1               	incf	(___fldiv@new_exp+1)^(0+384),f
  4711     12FE  3000               	movlw	0
  4712     12FF  07B1               	addwf	(___fldiv@new_exp+1)^(0+384),f
  4713     1300                     l4245:
  4714     1300  0831               	movf	(___fldiv@new_exp+1)^(0+384),w
  4715     1301  3A80               	xorlw	128
  4716     1302  00FF               	movwf	btemp+1
  4717     1303  3080               	movlw	128
  4718     1304  027F               	subwf	btemp+1,w
  4719     1305  1D03               	skipz
  4720     1306  2B09               	goto	u7085
  4721     1307  30FF               	movlw	255
  4722     1308  0230               	subwf	___fldiv@new_exp^(0+384),w
  4723     1309                     u7085:
  4724     1309  1C03               	skipc
  4725     130A  2B0C               	goto	u7081
  4726     130B  2B0D               	goto	u7080
  4727     130C                     u7081:
  4728     130C  2B1B               	goto	l4249
  4729     130D                     u7080:
  4730     130D                     l4247:
  4731     130D  30FF               	movlw	255
  4732     130E  1683               	bsf	3,5	;RP0=1, select bank3
  4733     130F  1703               	bsf	3,6	;RP1=1, select bank3
  4734     1310  00B0               	movwf	___fldiv@new_exp^(0+384)
  4735     1311  3000               	movlw	0
  4736     1312  00B1               	movwf	(___fldiv@new_exp^(0+384)+1)
  4737     1313  3000               	movlw	0
  4738     1314  00A5               	movwf	(___fldiv@b+3)^(0+384)
  4739     1315  3000               	movlw	0
  4740     1316  00A4               	movwf	(___fldiv@b+2)^(0+384)
  4741     1317  3000               	movlw	0
  4742     1318  00A3               	movwf	(___fldiv@b+1)^(0+384)
  4743     1319  3000               	movlw	0
  4744     131A  00A2               	movwf	___fldiv@b^(0+384)
  4745     131B                     l4249:
  4746     131B  1683               	bsf	3,5	;RP0=1, select bank3
  4747     131C  1703               	bsf	3,6	;RP1=1, select bank3
  4748     131D  0831               	movf	(___fldiv@new_exp+1)^(0+384),w
  4749     131E  3A80               	xorlw	128
  4750     131F  00FF               	movwf	btemp+1
  4751     1320  3080               	movlw	128
  4752     1321  027F               	subwf	btemp+1,w
  4753     1322  1D03               	skipz
  4754     1323  2B26               	goto	u7095
  4755     1324  3001               	movlw	1
  4756     1325  0230               	subwf	___fldiv@new_exp^(0+384),w
  4757     1326                     u7095:
  4758     1326  1803               	skipnc
  4759     1327  2B29               	goto	u7091
  4760     1328  2B2A               	goto	u7090
  4761     1329                     u7091:
  4762     1329  2B37               	goto	l744
  4763     132A                     u7090:
  4764     132A                     l4251:
  4765     132A  1683               	bsf	3,5	;RP0=1, select bank3
  4766     132B  1703               	bsf	3,6	;RP1=1, select bank3
  4767     132C  01B0               	clrf	___fldiv@new_exp^(0+384)
  4768     132D  01B1               	clrf	(___fldiv@new_exp+1)^(0+384)
  4769     132E                     l4253:
  4770     132E  3000               	movlw	0
  4771     132F  00A5               	movwf	(___fldiv@b+3)^(0+384)
  4772     1330  3000               	movlw	0
  4773     1331  00A4               	movwf	(___fldiv@b+2)^(0+384)
  4774     1332  3000               	movlw	0
  4775     1333  00A3               	movwf	(___fldiv@b+1)^(0+384)
  4776     1334  3000               	movlw	0
  4777     1335  00A2               	movwf	___fldiv@b^(0+384)
  4778     1336                     l4255:
  4779     1336  01AF               	clrf	___fldiv@sign^(0+384)
  4780     1337                     l744:
  4781     1337  1683               	bsf	3,5	;RP0=1, select bank3
  4782     1338  1703               	bsf	3,6	;RP1=1, select bank3
  4783     1339  0830               	movf	___fldiv@new_exp^(0+384),w
  4784     133A  00B6               	movwf	___fldiv@bexp^(0+384)
  4785     133B                     l4257:
  4786     133B  1C36               	btfss	___fldiv@bexp^(0+384),0
  4787     133C  2B3E               	goto	u7101
  4788     133D  2B3F               	goto	u7100
  4789     133E                     u7101:
  4790     133E  2B41               	goto	l4261
  4791     133F                     u7100:
  4792     133F                     l4259:
  4793     133F  17A4               	bsf	(___fldiv@b^(0+384)+2),7
  4794     1340  2B45               	goto	l746
  4795     1341                     l4261:
  4796     1341  307F               	movlw	127
  4797     1342  00A6               	movwf	??___fldiv^(0+384)
  4798     1343  0826               	movf	??___fldiv^(0+384),w
  4799     1344  05A4               	andwf	(___fldiv@b^(0+384)+2),f
  4800     1345                     l746:
  4801     1345  0836               	movf	___fldiv@bexp^(0+384),w
  4802     1346  00A6               	movwf	??___fldiv^(0+384)
  4803     1347  1003               	clrc
  4804     1348  0C26               	rrf	??___fldiv^(0+384),w
  4805     1349  00A5               	movwf	(___fldiv@b^(0+384)+3)
  4806     134A  082F               	movf	___fldiv@sign^(0+384),w
  4807     134B  00A6               	movwf	??___fldiv^(0+384)
  4808     134C  0826               	movf	??___fldiv^(0+384),w
  4809     134D  04A5               	iorwf	(___fldiv@b^(0+384)+3),f
  4810     134E  29EB               	goto	l4169
  4811     134F                     l724:
  4812     134F  0008               	return
  4813     1350                     __end_of___fldiv:
  4814                           
  4815                           	psect	text8
  4816     19A7                     __ptext8:	
  4817 ;; *************** function _initUART *****************
  4818 ;; Defined at:
  4819 ;;		line 372 in file "Progra_IRONMAN.c"
  4820 ;; Parameters:    Size  Location     Type
  4821 ;;		None
  4822 ;; Auto vars:     Size  Location     Type
  4823 ;;		None
  4824 ;; Return value:  Size  Location     Type
  4825 ;;                  1    wreg      void 
  4826 ;; Registers used:
  4827 ;;		wreg, status,2
  4828 ;; Tracked objects:
  4829 ;;		On entry : 0/0
  4830 ;;		On exit  : 0/0
  4831 ;;		Unchanged: 0/0
  4832 ;; Data sizes:     COMMON   BANK0   BANK1   BANK3   BANK2
  4833 ;;      Params:         0       0       0       0       0
  4834 ;;      Locals:         0       0       0       0       0
  4835 ;;      Temps:          0       0       0       0       0
  4836 ;;      Totals:         0       0       0       0       0
  4837 ;;Total ram usage:        0 bytes
  4838 ;; Hardware stack levels used: 1
  4839 ;; Hardware stack levels required when called: 5
  4840 ;; This function calls:
  4841 ;;		Nothing
  4842 ;; This function is called by:
  4843 ;;		_main
  4844 ;; This function uses a non-reentrant model
  4845 ;;
  4846                           
  4847     19A7                     _initUART:	
  4848                           ;psect for function _initUART
  4849                           
  4850     19A7                     l4549:	
  4851                           ;incstack = 0
  4852                           ; Regs used in _initUART: [wreg+status,2]
  4853                           
  4854                           
  4855                           ;Progra_IRONMAN.c: 374:     SPBRG = 25;
  4856     19A7  3019               	movlw	25
  4857     19A8  1683               	bsf	3,5	;RP0=1, select bank1
  4858     19A9  1303               	bcf	3,6	;RP1=0, select bank1
  4859     19AA  0099               	movwf	25	;volatile
  4860     19AB                     l4551:
  4861                           
  4862                           ;Progra_IRONMAN.c: 375:     SPBRGH = 0;
  4863     19AB  019A               	clrf	26	;volatile
  4864     19AC                     l4553:
  4865                           
  4866                           ;Progra_IRONMAN.c: 376:     BRGH = 1;
  4867     19AC  1518               	bsf	24,2	;volatile
  4868     19AD                     l4555:
  4869                           
  4870                           ;Progra_IRONMAN.c: 377:     BRG16 = 0;
  4871     19AD  1683               	bsf	3,5	;RP0=1, select bank3
  4872     19AE  1703               	bsf	3,6	;RP1=1, select bank3
  4873     19AF  1187               	bcf	7,3	;volatile
  4874     19B0                     l4557:
  4875                           
  4876                           ;Progra_IRONMAN.c: 380:     CREN = 1;
  4877     19B0  1283               	bcf	3,5	;RP0=0, select bank0
  4878     19B1  1303               	bcf	3,6	;RP1=0, select bank0
  4879     19B2  1618               	bsf	24,4	;volatile
  4880     19B3                     l4559:
  4881                           
  4882                           ;Progra_IRONMAN.c: 381:     SYNC = 0;
  4883     19B3  1683               	bsf	3,5	;RP0=1, select bank1
  4884     19B4  1303               	bcf	3,6	;RP1=0, select bank1
  4885     19B5  1218               	bcf	24,4	;volatile
  4886     19B6                     l4561:
  4887                           
  4888                           ;Progra_IRONMAN.c: 382:     SPEN = 1;
  4889     19B6  1283               	bcf	3,5	;RP0=0, select bank0
  4890     19B7  1303               	bcf	3,6	;RP1=0, select bank0
  4891     19B8  1798               	bsf	24,7	;volatile
  4892     19B9                     l4563:
  4893                           
  4894                           ;Progra_IRONMAN.c: 383:     TXSTAbits.TXEN = 1;
  4895     19B9  1683               	bsf	3,5	;RP0=1, select bank1
  4896     19BA  1303               	bcf	3,6	;RP1=0, select bank1
  4897     19BB  1698               	bsf	24,5	;volatile
  4898     19BC                     l4565:
  4899                           
  4900                           ;Progra_IRONMAN.c: 386:     RCSTAbits.RX9 = 0;
  4901     19BC  1283               	bcf	3,5	;RP0=0, select bank0
  4902     19BD  1303               	bcf	3,6	;RP1=0, select bank0
  4903     19BE  1318               	bcf	24,6	;volatile
  4904     19BF                     l4567:
  4905                           
  4906                           ;Progra_IRONMAN.c: 389:     TXEN = 1;
  4907     19BF  1683               	bsf	3,5	;RP0=1, select bank1
  4908     19C0  1303               	bcf	3,6	;RP1=0, select bank1
  4909     19C1  1698               	bsf	24,5	;volatile
  4910     19C2                     l4569:
  4911                           
  4912                           ;Progra_IRONMAN.c: 390:     TXIF = 0;
  4913     19C2  1283               	bcf	3,5	;RP0=0, select bank0
  4914     19C3  1303               	bcf	3,6	;RP1=0, select bank0
  4915     19C4  120C               	bcf	12,4	;volatile
  4916     19C5                     l4571:
  4917                           
  4918                           ;Progra_IRONMAN.c: 394:     PIE1bits.RCIE = 1;
  4919     19C5  1683               	bsf	3,5	;RP0=1, select bank1
  4920     19C6  1303               	bcf	3,6	;RP1=0, select bank1
  4921     19C7  168C               	bsf	12,5	;volatile
  4922     19C8                     l4573:
  4923                           
  4924                           ;Progra_IRONMAN.c: 395:     PIR1bits.RCIF = 0;
  4925     19C8  1283               	bcf	3,5	;RP0=0, select bank0
  4926     19C9  1303               	bcf	3,6	;RP1=0, select bank0
  4927     19CA  128C               	bcf	12,5	;volatile
  4928     19CB                     l234:
  4929     19CB  0008               	return
  4930     19CC                     __end_of_initUART:
  4931                           
  4932                           	psect	text9
  4933     10C3                     __ptext9:	
  4934 ;; *************** function ___xxtofl *****************
  4935 ;; Defined at:
  4936 ;;		line 10 in file "C:\Program Files\Microchip\xc8\v2.40\pic\sources\c90\common\xxtofl.c"
  4937 ;; Parameters:    Size  Location     Type
  4938 ;;  sign            1    wreg     unsigned char 
  4939 ;;  val             4    0[BANK3 ] long 
  4940 ;; Auto vars:     Size  Location     Type
  4941 ;;  sign            1    8[BANK3 ] unsigned char 
  4942 ;;  arg             4   10[BANK3 ] unsigned long 
  4943 ;;  exp             1    9[BANK3 ] unsigned char 
  4944 ;; Return value:  Size  Location     Type
  4945 ;;                  4    0[BANK3 ] unsigned char 
  4946 ;; Registers used:
  4947 ;;		wreg, status,2, status,0
  4948 ;; Tracked objects:
  4949 ;;		On entry : 0/0
  4950 ;;		On exit  : 0/0
  4951 ;;		Unchanged: 0/0
  4952 ;; Data sizes:     COMMON   BANK0   BANK1   BANK3   BANK2
  4953 ;;      Params:         0       0       0       4       0
  4954 ;;      Locals:         0       0       0       6       0
  4955 ;;      Temps:          0       0       0       4       0
  4956 ;;      Totals:         0       0       0      14       0
  4957 ;;Total ram usage:       14 bytes
  4958 ;; Hardware stack levels used: 1
  4959 ;; Hardware stack levels required when called: 5
  4960 ;; This function calls:
  4961 ;;		Nothing
  4962 ;; This function is called by:
  4963 ;;		_main
  4964 ;; This function uses a non-reentrant model
  4965 ;;
  4966                           
  4967     10C3                     ___xxtofl:	
  4968                           ;psect for function ___xxtofl
  4969                           
  4970                           
  4971                           ;incstack = 0
  4972                           ; Regs used in ___xxtofl: [wreg+status,2+status,0]
  4973                           ;___xxtofl@sign stored from wreg
  4974     10C3  1683               	bsf	3,5	;RP0=1, select bank3
  4975     10C4  1703               	bsf	3,6	;RP1=1, select bank3
  4976     10C5  0098               	movwf	___xxtofl@sign^(0+384)
  4977     10C6                     l4575:
  4978     10C6  0818               	movf	___xxtofl@sign^(0+384),w
  4979     10C7  1903               	btfsc	3,2
  4980     10C8  28CA               	goto	u7541
  4981     10C9  28CB               	goto	u7540
  4982     10CA                     u7541:
  4983     10CA  28DF               	goto	l4581
  4984     10CB                     u7540:
  4985     10CB                     l4577:
  4986     10CB  1F93               	btfss	(___xxtofl@val+3)^(0+384),7
  4987     10CC  28CE               	goto	u7551
  4988     10CD  28CF               	goto	u7550
  4989     10CE                     u7551:
  4990     10CE  28DF               	goto	l4581
  4991     10CF                     u7550:
  4992     10CF                     l4579:
  4993     10CF  0910               	comf	___xxtofl@val^(0+384),w
  4994     10D0  009A               	movwf	___xxtofl@arg^(0+384)
  4995     10D1  0911               	comf	(___xxtofl@val^(0+384)+1),w
  4996     10D2  009B               	movwf	(___xxtofl@arg+1)^(0+384)
  4997     10D3  0912               	comf	(___xxtofl@val^(0+384)+2),w
  4998     10D4  009C               	movwf	(___xxtofl@arg+2)^(0+384)
  4999     10D5  0913               	comf	(___xxtofl@val^(0+384)+3),w
  5000     10D6  009D               	movwf	(___xxtofl@arg+3)^(0+384)
  5001     10D7  0A9A               	incf	___xxtofl@arg^(0+384),f
  5002     10D8  1903               	skipnz
  5003     10D9  0A9B               	incf	(___xxtofl@arg+1)^(0+384),f
  5004     10DA  1903               	skipnz
  5005     10DB  0A9C               	incf	(___xxtofl@arg+2)^(0+384),f
  5006     10DC  1903               	skipnz
  5007     10DD  0A9D               	incf	(___xxtofl@arg+3)^(0+384),f
  5008     10DE  28E7               	goto	l806
  5009     10DF                     l4581:
  5010     10DF  0813               	movf	(___xxtofl@val+3)^(0+384),w
  5011     10E0  009D               	movwf	(___xxtofl@arg+3)^(0+384)
  5012     10E1  0812               	movf	(___xxtofl@val+2)^(0+384),w
  5013     10E2  009C               	movwf	(___xxtofl@arg+2)^(0+384)
  5014     10E3  0811               	movf	(___xxtofl@val+1)^(0+384),w
  5015     10E4  009B               	movwf	(___xxtofl@arg+1)^(0+384)
  5016     10E5  0810               	movf	___xxtofl@val^(0+384),w
  5017     10E6  009A               	movwf	___xxtofl@arg^(0+384)
  5018     10E7                     l806:
  5019     10E7  0813               	movf	(___xxtofl@val+3)^(0+384),w
  5020     10E8  0412               	iorwf	(___xxtofl@val+2)^(0+384),w
  5021     10E9  0411               	iorwf	(___xxtofl@val+1)^(0+384),w
  5022     10EA  0410               	iorwf	___xxtofl@val^(0+384),w
  5023     10EB  1D03               	skipz
  5024     10EC  28EE               	goto	u7561
  5025     10ED  28EF               	goto	u7560
  5026     10EE                     u7561:
  5027     10EE  28F8               	goto	l4587
  5028     10EF                     u7560:
  5029     10EF                     l4583:
  5030     10EF  3000               	movlw	0
  5031     10F0  0093               	movwf	(?___xxtofl+3)^(0+384)
  5032     10F1  3000               	movlw	0
  5033     10F2  0092               	movwf	(?___xxtofl+2)^(0+384)
  5034     10F3  3000               	movlw	0
  5035     10F4  0091               	movwf	(?___xxtofl+1)^(0+384)
  5036     10F5  3000               	movlw	0
  5037     10F6  0090               	movwf	?___xxtofl^(0+384)
  5038     10F7  297C               	goto	l808
  5039     10F8                     l4587:
  5040     10F8  3096               	movlw	150
  5041     10F9  0099               	movwf	___xxtofl@exp^(0+384)
  5042     10FA  2908               	goto	l4591
  5043     10FB                     l4589:
  5044     10FB  3001               	movlw	1
  5045     10FC  0094               	movwf	??___xxtofl^(0+384)
  5046     10FD  0814               	movf	??___xxtofl^(0+384),w
  5047     10FE  0799               	addwf	___xxtofl@exp^(0+384),f
  5048     10FF  3001               	movlw	1
  5049     1100                     u7575:
  5050     1100  1003               	clrc
  5051     1101  0C9D               	rrf	(___xxtofl@arg+3)^(0+384),f
  5052     1102  0C9C               	rrf	(___xxtofl@arg+2)^(0+384),f
  5053     1103  0C9B               	rrf	(___xxtofl@arg+1)^(0+384),f
  5054     1104  0C9A               	rrf	___xxtofl@arg^(0+384),f
  5055     1105  3EFF               	addlw	-1
  5056     1106  1D03               	skipz
  5057     1107  2900               	goto	u7575
  5058     1108                     l4591:
  5059     1108  30FE               	movlw	254
  5060     1109  051D               	andwf	(___xxtofl@arg+3)^(0+384),w
  5061     110A  1D03               	btfss	3,2
  5062     110B  290D               	goto	u7581
  5063     110C  290E               	goto	u7580
  5064     110D                     u7581:
  5065     110D  28FB               	goto	l4589
  5066     110E                     u7580:
  5067     110E  292A               	goto	l812
  5068     110F                     l4593:
  5069     110F  3001               	movlw	1
  5070     1110  0094               	movwf	??___xxtofl^(0+384)
  5071     1111  0814               	movf	??___xxtofl^(0+384),w
  5072     1112  0799               	addwf	___xxtofl@exp^(0+384),f
  5073     1113                     l4595:
  5074     1113  3001               	movlw	1
  5075     1114  079A               	addwf	___xxtofl@arg^(0+384),f
  5076     1115  3000               	movlw	0
  5077     1116  1803               	skipnc
  5078     1117  3001               	movlw	1
  5079     1118  079B               	addwf	(___xxtofl@arg+1)^(0+384),f
  5080     1119  3000               	movlw	0
  5081     111A  1803               	skipnc
  5082     111B  3001               	movlw	1
  5083     111C  079C               	addwf	(___xxtofl@arg+2)^(0+384),f
  5084     111D  3000               	movlw	0
  5085     111E  1803               	skipnc
  5086     111F  3001               	movlw	1
  5087     1120  079D               	addwf	(___xxtofl@arg+3)^(0+384),f
  5088     1121                     l4597:
  5089     1121  3001               	movlw	1
  5090     1122                     u7595:
  5091     1122  1003               	clrc
  5092     1123  0C9D               	rrf	(___xxtofl@arg+3)^(0+384),f
  5093     1124  0C9C               	rrf	(___xxtofl@arg+2)^(0+384),f
  5094     1125  0C9B               	rrf	(___xxtofl@arg+1)^(0+384),f
  5095     1126  0C9A               	rrf	___xxtofl@arg^(0+384),f
  5096     1127  3EFF               	addlw	-1
  5097     1128  1D03               	skipz
  5098     1129  2922               	goto	u7595
  5099     112A                     l812:
  5100     112A  30FF               	movlw	255
  5101     112B  051D               	andwf	(___xxtofl@arg+3)^(0+384),w
  5102     112C  1D03               	btfss	3,2
  5103     112D  292F               	goto	u7601
  5104     112E  2930               	goto	u7600
  5105     112F                     u7601:
  5106     112F  290F               	goto	l4593
  5107     1130                     u7600:
  5108     1130  293C               	goto	l4601
  5109     1131                     l4599:
  5110     1131  3001               	movlw	1
  5111     1132  0299               	subwf	___xxtofl@exp^(0+384),f
  5112     1133  3001               	movlw	1
  5113     1134  0094               	movwf	??___xxtofl^(0+384)
  5114     1135                     u7615:
  5115     1135  1003               	clrc
  5116     1136  0D9A               	rlf	___xxtofl@arg^(0+384),f
  5117     1137  0D9B               	rlf	(___xxtofl@arg+1)^(0+384),f
  5118     1138  0D9C               	rlf	(___xxtofl@arg+2)^(0+384),f
  5119     1139  0D9D               	rlf	(___xxtofl@arg+3)^(0+384),f
  5120     113A  0B94               	decfsz	??___xxtofl^(0+384),f
  5121     113B  2935               	goto	u7615
  5122     113C                     l4601:
  5123     113C  1B9C               	btfsc	(___xxtofl@arg+2)^(0+384),7
  5124     113D  293F               	goto	u7621
  5125     113E  2940               	goto	u7620
  5126     113F                     u7621:
  5127     113F  2946               	goto	l819
  5128     1140                     u7620:
  5129     1140                     l4603:
  5130     1140  3002               	movlw	2
  5131     1141  0219               	subwf	___xxtofl@exp^(0+384),w
  5132     1142  1803               	skipnc
  5133     1143  2945               	goto	u7631
  5134     1144  2946               	goto	u7630
  5135     1145                     u7631:
  5136     1145  2931               	goto	l4599
  5137     1146                     u7630:
  5138     1146                     l819:
  5139     1146  1819               	btfsc	___xxtofl@exp^(0+384),0
  5140     1147  2949               	goto	u7641
  5141     1148  294A               	goto	u7640
  5142     1149                     u7641:
  5143     1149  2952               	goto	l820
  5144     114A                     u7640:
  5145     114A                     l4605:
  5146     114A  30FF               	movlw	255
  5147     114B  059A               	andwf	___xxtofl@arg^(0+384),f
  5148     114C  30FF               	movlw	255
  5149     114D  059B               	andwf	(___xxtofl@arg+1)^(0+384),f
  5150     114E  307F               	movlw	127
  5151     114F  059C               	andwf	(___xxtofl@arg+2)^(0+384),f
  5152     1150  30FF               	movlw	255
  5153     1151  059D               	andwf	(___xxtofl@arg+3)^(0+384),f
  5154     1152                     l820:
  5155     1152  1003               	clrc
  5156     1153  0C99               	rrf	___xxtofl@exp^(0+384),f
  5157     1154                     l4607:
  5158     1154  0819               	movf	___xxtofl@exp^(0+384),w
  5159     1155  0094               	movwf	??___xxtofl^(0+384)
  5160     1156  0195               	clrf	(??___xxtofl^(0+384)+1)
  5161     1157  0196               	clrf	(??___xxtofl^(0+384)+2)
  5162     1158  0197               	clrf	(??___xxtofl^(0+384)+3)
  5163     1159  3018               	movlw	24
  5164     115A                     u7655:
  5165     115A  1003               	clrc
  5166     115B  0D94               	rlf	??___xxtofl^(0+384),f
  5167     115C  0D95               	rlf	(??___xxtofl^(0+384)+1),f
  5168     115D  0D96               	rlf	(??___xxtofl^(0+384)+2),f
  5169     115E  0D97               	rlf	(??___xxtofl^(0+384)+3),f
  5170     115F                     u7650:
  5171     115F  3EFF               	addlw	-1
  5172     1160  1D03               	skipz
  5173     1161  295A               	goto	u7655
  5174     1162  0814               	movf	??___xxtofl^(0+384),w
  5175     1163  049A               	iorwf	___xxtofl@arg^(0+384),f
  5176     1164  0815               	movf	(??___xxtofl+1)^(0+384),w
  5177     1165  049B               	iorwf	(___xxtofl@arg+1)^(0+384),f
  5178     1166  0816               	movf	(??___xxtofl+2)^(0+384),w
  5179     1167  049C               	iorwf	(___xxtofl@arg+2)^(0+384),f
  5180     1168  0817               	movf	(??___xxtofl+3)^(0+384),w
  5181     1169  049D               	iorwf	(___xxtofl@arg+3)^(0+384),f
  5182     116A                     l4609:
  5183     116A  0818               	movf	___xxtofl@sign^(0+384),w
  5184     116B  1903               	btfsc	3,2
  5185     116C  296E               	goto	u7661
  5186     116D  296F               	goto	u7660
  5187     116E                     u7661:
  5188     116E  2974               	goto	l4615
  5189     116F                     u7660:
  5190     116F                     l4611:
  5191     116F  1F93               	btfss	(___xxtofl@val+3)^(0+384),7
  5192     1170  2972               	goto	u7671
  5193     1171  2973               	goto	u7670
  5194     1172                     u7671:
  5195     1172  2974               	goto	l4615
  5196     1173                     u7670:
  5197     1173                     l4613:
  5198     1173  179D               	bsf	(___xxtofl@arg^(0+384)+3),7
  5199     1174                     l4615:
  5200     1174  081D               	movf	(___xxtofl@arg+3)^(0+384),w
  5201     1175  0093               	movwf	(?___xxtofl+3)^(0+384)
  5202     1176  081C               	movf	(___xxtofl@arg+2)^(0+384),w
  5203     1177  0092               	movwf	(?___xxtofl+2)^(0+384)
  5204     1178  081B               	movf	(___xxtofl@arg+1)^(0+384),w
  5205     1179  0091               	movwf	(?___xxtofl+1)^(0+384)
  5206     117A  081A               	movf	___xxtofl@arg^(0+384),w
  5207     117B  0090               	movwf	?___xxtofl^(0+384)
  5208     117C                     l808:
  5209     117C  0008               	return
  5210     117D                     __end_of___xxtofl:
  5211                           
  5212                           	psect	text10
  5213     15A8                     __ptext10:	
  5214 ;; *************** function ___fladd *****************
  5215 ;; Defined at:
  5216 ;;		line 10 in file "C:\Program Files\Microchip\xc8\v2.40\pic\sources\c90\common\sprcadd.c"
  5217 ;; Parameters:    Size  Location     Type
  5218 ;;  b               4   66[BANK3 ] unsigned char 
  5219 ;;  a               4   70[BANK3 ] unsigned char 
  5220 ;; Auto vars:     Size  Location     Type
  5221 ;;  grs             1   85[BANK3 ] unsigned char 
  5222 ;;  bexp            1   84[BANK3 ] unsigned char 
  5223 ;;  aexp            1   83[BANK3 ] unsigned char 
  5224 ;;  signs           1   82[BANK3 ] unsigned char 
  5225 ;; Return value:  Size  Location     Type
  5226 ;;                  4   66[BANK3 ] unsigned char 
  5227 ;; Registers used:
  5228 ;;		wreg, status,2, status,0, btemp+1
  5229 ;; Tracked objects:
  5230 ;;		On entry : 0/0
  5231 ;;		On exit  : 0/0
  5232 ;;		Unchanged: 0/0
  5233 ;; Data sizes:     COMMON   BANK0   BANK1   BANK3   BANK2
  5234 ;;      Params:         0       0       0       8       0
  5235 ;;      Locals:         0       0       0       4       0
  5236 ;;      Temps:          0       0       0       8       0
  5237 ;;      Totals:         0       0       0      20       0
  5238 ;;Total ram usage:       20 bytes
  5239 ;; Hardware stack levels used: 1
  5240 ;; Hardware stack levels required when called: 5
  5241 ;; This function calls:
  5242 ;;		Nothing
  5243 ;; This function is called by:
  5244 ;;		_main
  5245 ;; This function uses a non-reentrant model
  5246 ;;
  5247                           
  5248     15A8                     ___fladd:	
  5249                           ;psect for function ___fladd
  5250                           
  5251     15A8                     l3671:	
  5252                           ;incstack = 0
  5253                           ; Regs used in ___fladd: [wreg+status,2+status,0+btemp+1]
  5254                           
  5255     15A8  1683               	bsf	3,5	;RP0=1, select bank3
  5256     15A9  1703               	bsf	3,6	;RP1=1, select bank3
  5257     15AA  0855               	movf	(___fladd@b^(0+384)+3),w
  5258     15AB  3980               	andlw	128
  5259     15AC  00E2               	movwf	___fladd@signs^(0+384)
  5260     15AD                     l3673:
  5261     15AD  0855               	movf	(___fladd@b^(0+384)+3),w
  5262     15AE  00DA               	movwf	??___fladd^(0+384)
  5263     15AF  075A               	addwf	??___fladd^(0+384),w
  5264     15B0  00E4               	movwf	___fladd@bexp^(0+384)
  5265     15B1                     l3675:
  5266     15B1  1FD4               	btfss	(___fladd@b^(0+384)+2),7
  5267     15B2  2DB4               	goto	u5761
  5268     15B3  2DB5               	goto	u5760
  5269     15B4                     u5761:
  5270     15B4  2DB6               	goto	l3679
  5271     15B5                     u5760:
  5272     15B5                     l3677:
  5273     15B5  1464               	bsf	___fladd@bexp^(0+384),0
  5274     15B6                     l3679:
  5275     15B6  0864               	movf	___fladd@bexp^(0+384),w
  5276     15B7  1903               	btfsc	3,2
  5277     15B8  2DBA               	goto	u5771
  5278     15B9  2DBB               	goto	u5770
  5279     15BA                     u5771:
  5280     15BA  2DCB               	goto	l3689
  5281     15BB                     u5770:
  5282     15BB                     l3681:
  5283     15BB  0A64               	incf	___fladd@bexp^(0+384),w
  5284     15BC  1D03               	btfss	3,2
  5285     15BD  2DBF               	goto	u5781
  5286     15BE  2DC0               	goto	u5780
  5287     15BF                     u5781:
  5288     15BF  2DC8               	goto	l3685
  5289     15C0                     u5780:
  5290     15C0                     l3683:
  5291     15C0  3000               	movlw	0
  5292     15C1  00D5               	movwf	(___fladd@b+3)^(0+384)
  5293     15C2  3000               	movlw	0
  5294     15C3  00D4               	movwf	(___fladd@b+2)^(0+384)
  5295     15C4  3000               	movlw	0
  5296     15C5  00D3               	movwf	(___fladd@b+1)^(0+384)
  5297     15C6  3000               	movlw	0
  5298     15C7  00D2               	movwf	___fladd@b^(0+384)
  5299     15C8                     l3685:
  5300     15C8  17D4               	bsf	(___fladd@b^(0+384)+2),7
  5301     15C9                     l3687:
  5302     15C9  01D5               	clrf	(___fladd@b^(0+384)+3)
  5303     15CA  2DD3               	goto	l3691
  5304     15CB                     l3689:
  5305     15CB  3000               	movlw	0
  5306     15CC  00D5               	movwf	(___fladd@b+3)^(0+384)
  5307     15CD  3000               	movlw	0
  5308     15CE  00D4               	movwf	(___fladd@b+2)^(0+384)
  5309     15CF  3000               	movlw	0
  5310     15D0  00D3               	movwf	(___fladd@b+1)^(0+384)
  5311     15D1  3000               	movlw	0
  5312     15D2  00D2               	movwf	___fladd@b^(0+384)
  5313     15D3                     l3691:
  5314     15D3  0859               	movf	(___fladd@a^(0+384)+3),w
  5315     15D4  3980               	andlw	128
  5316     15D5  00E3               	movwf	___fladd@aexp^(0+384)
  5317     15D6                     l3693:
  5318     15D6  0863               	movf	___fladd@aexp^(0+384),w
  5319     15D7  0662               	xorwf	___fladd@signs^(0+384),w
  5320     15D8  1903               	skipnz
  5321     15D9  2DDB               	goto	u5791
  5322     15DA  2DDC               	goto	u5790
  5323     15DB                     u5791:
  5324     15DB  2DDD               	goto	l3697
  5325     15DC                     u5790:
  5326     15DC                     l3695:
  5327     15DC  1762               	bsf	___fladd@signs^(0+384),6
  5328     15DD                     l3697:
  5329     15DD  0859               	movf	(___fladd@a^(0+384)+3),w
  5330     15DE  00DA               	movwf	??___fladd^(0+384)
  5331     15DF  075A               	addwf	??___fladd^(0+384),w
  5332     15E0  00E3               	movwf	___fladd@aexp^(0+384)
  5333     15E1                     l3699:
  5334     15E1  1FD8               	btfss	(___fladd@a^(0+384)+2),7
  5335     15E2  2DE4               	goto	u5801
  5336     15E3  2DE5               	goto	u5800
  5337     15E4                     u5801:
  5338     15E4  2DE6               	goto	l3703
  5339     15E5                     u5800:
  5340     15E5                     l3701:
  5341     15E5  1463               	bsf	___fladd@aexp^(0+384),0
  5342     15E6                     l3703:
  5343     15E6  0863               	movf	___fladd@aexp^(0+384),w
  5344     15E7  1903               	btfsc	3,2
  5345     15E8  2DEA               	goto	u5811
  5346     15E9  2DEB               	goto	u5810
  5347     15EA                     u5811:
  5348     15EA  2DFB               	goto	l3713
  5349     15EB                     u5810:
  5350     15EB                     l3705:
  5351     15EB  0A63               	incf	___fladd@aexp^(0+384),w
  5352     15EC  1D03               	btfss	3,2
  5353     15ED  2DEF               	goto	u5821
  5354     15EE  2DF0               	goto	u5820
  5355     15EF                     u5821:
  5356     15EF  2DF8               	goto	l3709
  5357     15F0                     u5820:
  5358     15F0                     l3707:
  5359     15F0  3000               	movlw	0
  5360     15F1  00D9               	movwf	(___fladd@a+3)^(0+384)
  5361     15F2  3000               	movlw	0
  5362     15F3  00D8               	movwf	(___fladd@a+2)^(0+384)
  5363     15F4  3000               	movlw	0
  5364     15F5  00D7               	movwf	(___fladd@a+1)^(0+384)
  5365     15F6  3000               	movlw	0
  5366     15F7  00D6               	movwf	___fladd@a^(0+384)
  5367     15F8                     l3709:
  5368     15F8  17D8               	bsf	(___fladd@a^(0+384)+2),7
  5369     15F9                     l3711:
  5370     15F9  01D9               	clrf	(___fladd@a^(0+384)+3)
  5371     15FA  2E03               	goto	l666
  5372     15FB                     l3713:
  5373     15FB  3000               	movlw	0
  5374     15FC  00D9               	movwf	(___fladd@a+3)^(0+384)
  5375     15FD  3000               	movlw	0
  5376     15FE  00D8               	movwf	(___fladd@a+2)^(0+384)
  5377     15FF  3000               	movlw	0
  5378     1600  00D7               	movwf	(___fladd@a+1)^(0+384)
  5379     1601  3000               	movlw	0
  5380     1602  00D6               	movwf	___fladd@a^(0+384)
  5381     1603                     l666:
  5382     1603  0864               	movf	___fladd@bexp^(0+384),w
  5383     1604  0263               	subwf	___fladd@aexp^(0+384),w
  5384     1605  1803               	skipnc
  5385     1606  2E08               	goto	u5831
  5386     1607  2E09               	goto	u5830
  5387     1608                     u5831:
  5388     1608  2E2F               	goto	l3749
  5389     1609                     u5830:
  5390     1609                     l3715:
  5391     1609  1F62               	btfss	___fladd@signs^(0+384),6
  5392     160A  2E0C               	goto	u5841
  5393     160B  2E0D               	goto	u5840
  5394     160C                     u5841:
  5395     160C  2E11               	goto	l3719
  5396     160D                     u5840:
  5397     160D                     l3717:
  5398     160D  3080               	movlw	128
  5399     160E  00DA               	movwf	??___fladd^(0+384)
  5400     160F  085A               	movf	??___fladd^(0+384),w
  5401     1610  06E2               	xorwf	___fladd@signs^(0+384),f
  5402     1611                     l3719:
  5403     1611  0864               	movf	___fladd@bexp^(0+384),w
  5404     1612  00E5               	movwf	___fladd@grs^(0+384)
  5405     1613                     l3721:
  5406     1613  0863               	movf	___fladd@aexp^(0+384),w
  5407     1614  00E4               	movwf	___fladd@bexp^(0+384)
  5408     1615                     l3723:
  5409     1615  0865               	movf	___fladd@grs^(0+384),w
  5410     1616  00E3               	movwf	___fladd@aexp^(0+384)
  5411     1617                     l3725:
  5412     1617  0852               	movf	___fladd@b^(0+384),w
  5413     1618  00E5               	movwf	___fladd@grs^(0+384)
  5414     1619                     l3727:
  5415     1619  0856               	movf	___fladd@a^(0+384),w
  5416     161A  00D2               	movwf	___fladd@b^(0+384)
  5417     161B                     l3729:
  5418     161B  0865               	movf	___fladd@grs^(0+384),w
  5419     161C  00D6               	movwf	___fladd@a^(0+384)
  5420     161D                     l3731:
  5421     161D  0853               	movf	(___fladd@b^(0+384)+1),w
  5422     161E  00E5               	movwf	___fladd@grs^(0+384)
  5423     161F                     l3733:
  5424     161F  0857               	movf	(___fladd@a^(0+384)+1),w
  5425     1620  00D3               	movwf	(___fladd@b^(0+384)+1)
  5426     1621                     l3735:
  5427     1621  0865               	movf	___fladd@grs^(0+384),w
  5428     1622  00D7               	movwf	(___fladd@a^(0+384)+1)
  5429     1623                     l3737:
  5430     1623  0854               	movf	(___fladd@b^(0+384)+2),w
  5431     1624  00E5               	movwf	___fladd@grs^(0+384)
  5432     1625                     l3739:
  5433     1625  0858               	movf	(___fladd@a^(0+384)+2),w
  5434     1626  00D4               	movwf	(___fladd@b^(0+384)+2)
  5435     1627                     l3741:
  5436     1627  0865               	movf	___fladd@grs^(0+384),w
  5437     1628  00D8               	movwf	(___fladd@a^(0+384)+2)
  5438     1629                     l3743:
  5439     1629  0855               	movf	(___fladd@b^(0+384)+3),w
  5440     162A  00E5               	movwf	___fladd@grs^(0+384)
  5441     162B                     l3745:
  5442     162B  0859               	movf	(___fladd@a^(0+384)+3),w
  5443     162C  00D5               	movwf	(___fladd@b^(0+384)+3)
  5444     162D                     l3747:
  5445     162D  0865               	movf	___fladd@grs^(0+384),w
  5446     162E  00D9               	movwf	(___fladd@a^(0+384)+3)
  5447     162F                     l3749:
  5448     162F  01E5               	clrf	___fladd@grs^(0+384)
  5449     1630                     l3751:
  5450     1630  0863               	movf	___fladd@aexp^(0+384),w
  5451     1631  00DA               	movwf	??___fladd^(0+384)
  5452     1632  01DB               	clrf	(??___fladd^(0+384)+1)
  5453     1633  085B               	movf	(??___fladd+1)^(0+384),w
  5454     1634  00DD               	movwf	((??___fladd+2)^(0+384)+1)
  5455     1635  0864               	movf	___fladd@bexp^(0+384),w
  5456     1636  025A               	subwf	??___fladd^(0+384),w
  5457     1637  00DC               	movwf	(??___fladd+2)^(0+384)
  5458     1638  1C03               	skipc
  5459     1639  03DD               	decf	((??___fladd+2)^(0+384)+1),f
  5460     163A  085D               	movf	(??___fladd+3)^(0+384),w
  5461     163B  3A80               	xorlw	128
  5462     163C  00FF               	movwf	btemp+1
  5463     163D  3080               	movlw	128
  5464     163E  027F               	subwf	btemp+1,w
  5465     163F  1D03               	skipz
  5466     1640  2E43               	goto	u5855
  5467     1641  301A               	movlw	26
  5468     1642  025C               	subwf	(??___fladd+2)^(0+384),w
  5469     1643                     u5855:
  5470     1643  1C03               	skipc
  5471     1644  2E46               	goto	u5851
  5472     1645  2E47               	goto	u5850
  5473     1646                     u5851:
  5474     1646  2E7E               	goto	l3767
  5475     1647                     u5850:
  5476     1647                     l3753:
  5477     1647  1683               	bsf	3,5	;RP0=1, select bank3
  5478     1648  1703               	bsf	3,6	;RP1=1, select bank3
  5479     1649  0855               	movf	(___fladd@b+3)^(0+384),w
  5480     164A  0454               	iorwf	(___fladd@b+2)^(0+384),w
  5481     164B  0453               	iorwf	(___fladd@b+1)^(0+384),w
  5482     164C  0452               	iorwf	___fladd@b^(0+384),w
  5483     164D  1D03               	skipz
  5484     164E  2E50               	goto	u5861
  5485     164F  2E52               	goto	u5860
  5486     1650                     u5861:
  5487     1650  3001               	movlw	1
  5488     1651  2E53               	goto	u5870
  5489     1652                     u5860:
  5490     1652  3000               	movlw	0
  5491     1653                     u5870:
  5492     1653  00E5               	movwf	___fladd@grs^(0+384)
  5493     1654  3000               	movlw	0
  5494     1655  00D5               	movwf	(___fladd@b+3)^(0+384)
  5495     1656  3000               	movlw	0
  5496     1657  00D4               	movwf	(___fladd@b+2)^(0+384)
  5497     1658  3000               	movlw	0
  5498     1659  00D3               	movwf	(___fladd@b+1)^(0+384)
  5499     165A  3000               	movlw	0
  5500     165B  00D2               	movwf	___fladd@b^(0+384)
  5501     165C  0863               	movf	___fladd@aexp^(0+384),w
  5502     165D  00E4               	movwf	___fladd@bexp^(0+384)
  5503     165E  2E86               	goto	l670
  5504     165F                     l672:
  5505     165F  1C65               	btfss	___fladd@grs^(0+384),0
  5506     1660  2E62               	goto	u5881
  5507     1661  2E63               	goto	u5880
  5508     1662                     u5881:
  5509     1662  2E6A               	goto	l3757
  5510     1663                     u5880:
  5511     1663                     l3755:
  5512     1663  0865               	movf	___fladd@grs^(0+384),w
  5513     1664  00DA               	movwf	??___fladd^(0+384)
  5514     1665  1003               	clrc
  5515     1666  0C5A               	rrf	??___fladd^(0+384),w
  5516     1667  3801               	iorlw	1
  5517     1668  00E5               	movwf	___fladd@grs^(0+384)
  5518     1669  2E6C               	goto	l3759
  5519     166A                     l3757:
  5520     166A  1003               	clrc
  5521     166B  0CE5               	rrf	___fladd@grs^(0+384),f
  5522     166C                     l3759:
  5523     166C  1C52               	btfss	___fladd@b^(0+384),0
  5524     166D  2E6F               	goto	u5891
  5525     166E  2E70               	goto	u5890
  5526     166F                     u5891:
  5527     166F  2E71               	goto	l3763
  5528     1670                     u5890:
  5529     1670                     l3761:
  5530     1670  17E5               	bsf	___fladd@grs^(0+384),7
  5531     1671                     l3763:
  5532     1671  3001               	movlw	1
  5533     1672  00DA               	movwf	??___fladd^(0+384)
  5534     1673                     u5905:
  5535     1673  0D55               	rlf	(___fladd@b+3)^(0+384),w
  5536     1674  0CD5               	rrf	(___fladd@b+3)^(0+384),f
  5537     1675  0CD4               	rrf	(___fladd@b+2)^(0+384),f
  5538     1676  0CD3               	rrf	(___fladd@b+1)^(0+384),f
  5539     1677  0CD2               	rrf	___fladd@b^(0+384),f
  5540     1678  0BDA               	decfsz	(??___fladd^(0+384))& (0+127),f
  5541     1679  2E73               	goto	u5905
  5542     167A                     l3765:
  5543     167A  3001               	movlw	1
  5544     167B  00DA               	movwf	??___fladd^(0+384)
  5545     167C  085A               	movf	??___fladd^(0+384),w
  5546     167D  07E4               	addwf	___fladd@bexp^(0+384),f
  5547     167E                     l3767:
  5548     167E  1683               	bsf	3,5	;RP0=1, select bank3
  5549     167F  1703               	bsf	3,6	;RP1=1, select bank3
  5550     1680  0863               	movf	___fladd@aexp^(0+384),w
  5551     1681  0264               	subwf	___fladd@bexp^(0+384),w
  5552     1682  1C03               	skipc
  5553     1683  2E85               	goto	u5911
  5554     1684  2E86               	goto	u5910
  5555     1685                     u5911:
  5556     1685  2E5F               	goto	l672
  5557     1686                     u5910:
  5558     1686                     l670:
  5559     1686  1B62               	btfsc	___fladd@signs^(0+384),6
  5560     1687  2E89               	goto	u5921
  5561     1688  2E8A               	goto	u5920
  5562     1689                     u5921:
  5563     1689  2ED3               	goto	l3793
  5564     168A                     u5920:
  5565     168A                     l3769:
  5566     168A  0864               	movf	___fladd@bexp^(0+384),w
  5567     168B  1D03               	btfss	3,2
  5568     168C  2E8E               	goto	u5931
  5569     168D  2E8F               	goto	u5930
  5570     168E                     u5931:
  5571     168E  2E98               	goto	l3775
  5572     168F                     u5930:
  5573     168F                     l3771:
  5574     168F  3000               	movlw	0
  5575     1690  00D5               	movwf	(?___fladd+3)^(0+384)
  5576     1691  3000               	movlw	0
  5577     1692  00D4               	movwf	(?___fladd+2)^(0+384)
  5578     1693  3000               	movlw	0
  5579     1694  00D3               	movwf	(?___fladd+1)^(0+384)
  5580     1695  3000               	movlw	0
  5581     1696  00D2               	movwf	?___fladd^(0+384)
  5582     1697  2FFF               	goto	l679
  5583     1698                     l3775:
  5584     1698  0856               	movf	___fladd@a^(0+384),w
  5585     1699  07D2               	addwf	___fladd@b^(0+384),f
  5586     169A  0857               	movf	(___fladd@a+1)^(0+384),w
  5587     169B  1103               	clrz
  5588     169C  1803               	skipnc
  5589     169D  3E01               	addlw	1
  5590     169E  1903               	skipnz
  5591     169F  2EA1               	goto	u5941
  5592     16A0  07D3               	addwf	(___fladd@b+1)^(0+384),f
  5593     16A1                     u5941:
  5594     16A1  0858               	movf	(___fladd@a+2)^(0+384),w
  5595     16A2  1103               	clrz
  5596     16A3  1803               	skipnc
  5597     16A4  3E01               	addlw	1
  5598     16A5  1903               	skipnz
  5599     16A6  2EA8               	goto	u5942
  5600     16A7  07D4               	addwf	(___fladd@b+2)^(0+384),f
  5601     16A8                     u5942:
  5602     16A8  0859               	movf	(___fladd@a+3)^(0+384),w
  5603     16A9  1103               	clrz
  5604     16AA  1803               	skipnc
  5605     16AB  3E01               	addlw	1
  5606     16AC  1903               	skipnz
  5607     16AD  2EAF               	goto	u5943
  5608     16AE  07D5               	addwf	(___fladd@b+3)^(0+384),f
  5609     16AF                     u5943:
  5610     16AF                     l3777:
  5611     16AF  1C55               	btfss	(___fladd@b+3)^(0+384),0
  5612     16B0  2EB2               	goto	u5951
  5613     16B1  2EB3               	goto	u5950
  5614     16B2                     u5951:
  5615     16B2  2F87               	goto	l3827
  5616     16B3                     u5950:
  5617     16B3                     l3779:
  5618     16B3  1C65               	btfss	___fladd@grs^(0+384),0
  5619     16B4  2EB6               	goto	u5961
  5620     16B5  2EB7               	goto	u5960
  5621     16B6                     u5961:
  5622     16B6  2EBE               	goto	l3783
  5623     16B7                     u5960:
  5624     16B7                     l3781:
  5625     16B7  0865               	movf	___fladd@grs^(0+384),w
  5626     16B8  00DA               	movwf	??___fladd^(0+384)
  5627     16B9  1003               	clrc
  5628     16BA  0C5A               	rrf	??___fladd^(0+384),w
  5629     16BB  3801               	iorlw	1
  5630     16BC  00E5               	movwf	___fladd@grs^(0+384)
  5631     16BD  2EC0               	goto	l3785
  5632     16BE                     l3783:
  5633     16BE  1003               	clrc
  5634     16BF  0CE5               	rrf	___fladd@grs^(0+384),f
  5635     16C0                     l3785:
  5636     16C0  1C52               	btfss	___fladd@b^(0+384),0
  5637     16C1  2EC3               	goto	u5971
  5638     16C2  2EC4               	goto	u5970
  5639     16C3                     u5971:
  5640     16C3  2EC5               	goto	l3789
  5641     16C4                     u5970:
  5642     16C4                     l3787:
  5643     16C4  17E5               	bsf	___fladd@grs^(0+384),7
  5644     16C5                     l3789:
  5645     16C5  3001               	movlw	1
  5646     16C6  00DA               	movwf	??___fladd^(0+384)
  5647     16C7                     u5985:
  5648     16C7  0D55               	rlf	(___fladd@b+3)^(0+384),w
  5649     16C8  0CD5               	rrf	(___fladd@b+3)^(0+384),f
  5650     16C9  0CD4               	rrf	(___fladd@b+2)^(0+384),f
  5651     16CA  0CD3               	rrf	(___fladd@b+1)^(0+384),f
  5652     16CB  0CD2               	rrf	___fladd@b^(0+384),f
  5653     16CC  0BDA               	decfsz	(??___fladd^(0+384))& (0+127),f
  5654     16CD  2EC7               	goto	u5985
  5655     16CE                     l3791:
  5656     16CE  3001               	movlw	1
  5657     16CF  00DA               	movwf	??___fladd^(0+384)
  5658     16D0  085A               	movf	??___fladd^(0+384),w
  5659     16D1  07E4               	addwf	___fladd@bexp^(0+384),f
  5660     16D2  2F87               	goto	l3827
  5661     16D3                     l3793:
  5662     16D3  0855               	movf	(___fladd@b+3)^(0+384),w
  5663     16D4  3A80               	xorlw	128
  5664     16D5  00FF               	movwf	btemp+1
  5665     16D6  0859               	movf	(___fladd@a+3)^(0+384),w
  5666     16D7  3A80               	xorlw	128
  5667     16D8  027F               	subwf	btemp+1,w
  5668     16D9  1D03               	skipz
  5669     16DA  2EE5               	goto	u5993
  5670     16DB  0858               	movf	(___fladd@a+2)^(0+384),w
  5671     16DC  0254               	subwf	(___fladd@b+2)^(0+384),w
  5672     16DD  1D03               	skipz
  5673     16DE  2EE5               	goto	u5993
  5674     16DF  0857               	movf	(___fladd@a+1)^(0+384),w
  5675     16E0  0253               	subwf	(___fladd@b+1)^(0+384),w
  5676     16E1  1D03               	skipz
  5677     16E2  2EE5               	goto	u5993
  5678     16E3  0856               	movf	___fladd@a^(0+384),w
  5679     16E4  0252               	subwf	___fladd@b^(0+384),w
  5680     16E5                     u5993:
  5681     16E5  1803               	skipnc
  5682     16E6  2EE8               	goto	u5991
  5683     16E7  2EE9               	goto	u5990
  5684     16E8                     u5991:
  5685     16E8  2F41               	goto	l3803
  5686     16E9                     u5990:
  5687     16E9                     l3795:
  5688     16E9  30FF               	movlw	255
  5689     16EA  00DA               	movwf	??___fladd^(0+384)
  5690     16EB  30FF               	movlw	255
  5691     16EC  00DB               	movwf	(??___fladd^(0+384)+1)
  5692     16ED  30FF               	movlw	255
  5693     16EE  00DC               	movwf	(??___fladd^(0+384)+2)
  5694     16EF  30FF               	movlw	255
  5695     16F0  00DD               	movwf	(??___fladd^(0+384)+3)
  5696     16F1  0856               	movf	___fladd@a^(0+384),w
  5697     16F2  00DE               	movwf	(??___fladd+4)^(0+384)
  5698     16F3  0857               	movf	(___fladd@a+1)^(0+384),w
  5699     16F4  00DF               	movwf	((??___fladd+4)^(0+384)+1)
  5700     16F5  0858               	movf	(___fladd@a+2)^(0+384),w
  5701     16F6  00E0               	movwf	((??___fladd+4)^(0+384)+2)
  5702     16F7  0859               	movf	(___fladd@a+3)^(0+384),w
  5703     16F8  00E1               	movwf	((??___fladd+4)^(0+384)+3)
  5704     16F9  0852               	movf	___fladd@b^(0+384),w
  5705     16FA  02DE               	subwf	(??___fladd+4)^(0+384),f
  5706     16FB  0853               	movf	(___fladd@b+1)^(0+384),w
  5707     16FC  1C03               	skipc
  5708     16FD  0F53               	incfsz	(___fladd@b+1)^(0+384),w
  5709     16FE  2F00               	goto	u6001
  5710     16FF  2F01               	goto	u6002
  5711     1700                     u6001:
  5712     1700  02DF               	subwf	((??___fladd+4)^(0+384)+1),f
  5713     1701                     u6002:
  5714     1701  0854               	movf	(___fladd@b+2)^(0+384),w
  5715     1702  1C03               	skipc
  5716     1703  0F54               	incfsz	(___fladd@b+2)^(0+384),w
  5717     1704  2F06               	goto	u6003
  5718     1705  2F07               	goto	u6004
  5719     1706                     u6003:
  5720     1706  02E0               	subwf	((??___fladd+4)^(0+384)+2),f
  5721     1707                     u6004:
  5722     1707  0855               	movf	(___fladd@b+3)^(0+384),w
  5723     1708  1C03               	skipc
  5724     1709  0F55               	incfsz	(___fladd@b+3)^(0+384),w
  5725     170A  2F0C               	goto	u6005
  5726     170B  2F0D               	goto	u6006
  5727     170C                     u6005:
  5728     170C  02E1               	subwf	((??___fladd+4)^(0+384)+3),f
  5729     170D                     u6006:
  5730     170D  085E               	movf	(??___fladd+4)^(0+384),w
  5731     170E  07DA               	addwf	??___fladd^(0+384),f
  5732     170F  085F               	movf	(??___fladd+5)^(0+384),w
  5733     1710  1803               	skipnc
  5734     1711  0F5F               	incfsz	(??___fladd+5)^(0+384),w
  5735     1712  2F14               	goto	u6010
  5736     1713  2F15               	goto	u6011
  5737     1714                     u6010:
  5738     1714  07DB               	addwf	(??___fladd^(0+384)+1),f
  5739     1715                     u6011:
  5740     1715  0860               	movf	(??___fladd+6)^(0+384),w
  5741     1716  1803               	skipnc
  5742     1717  0F60               	incfsz	(??___fladd+6)^(0+384),w
  5743     1718  2F1A               	goto	u6012
  5744     1719  2F1B               	goto	u6013
  5745     171A                     u6012:
  5746     171A  07DC               	addwf	(??___fladd^(0+384)+2),f
  5747     171B                     u6013:
  5748     171B  0861               	movf	(??___fladd+7)^(0+384),w
  5749     171C  1803               	skipnc
  5750     171D  0A61               	incf	(??___fladd+7)^(0+384),w
  5751     171E  07DD               	addwf	(??___fladd^(0+384)+3),f
  5752     171F  085D               	movf	(??___fladd+3)^(0+384),w
  5753     1720  00D5               	movwf	(___fladd@b+3)^(0+384)
  5754     1721  085C               	movf	(??___fladd+2)^(0+384),w
  5755     1722  00D4               	movwf	(___fladd@b+2)^(0+384)
  5756     1723  085B               	movf	(??___fladd+1)^(0+384),w
  5757     1724  00D3               	movwf	(___fladd@b+1)^(0+384)
  5758     1725  085A               	movf	??___fladd^(0+384),w
  5759     1726  00D2               	movwf	___fladd@b^(0+384)
  5760     1727                     l3797:
  5761     1727  3080               	movlw	128
  5762     1728  00DA               	movwf	??___fladd^(0+384)
  5763     1729  085A               	movf	??___fladd^(0+384),w
  5764     172A  06E2               	xorwf	___fladd@signs^(0+384),f
  5765     172B  09E5               	comf	___fladd@grs^(0+384),f
  5766     172C  0AE5               	incf	___fladd@grs^(0+384),f
  5767     172D                     l3799:
  5768     172D  0865               	movf	___fladd@grs^(0+384),w
  5769     172E  1D03               	btfss	3,2
  5770     172F  2F31               	goto	u6021
  5771     1730  2F32               	goto	u6020
  5772     1731                     u6021:
  5773     1731  2F4F               	goto	l687
  5774     1732                     u6020:
  5775     1732                     l3801:
  5776     1732  3001               	movlw	1
  5777     1733  07D2               	addwf	___fladd@b^(0+384),f
  5778     1734  3000               	movlw	0
  5779     1735  1803               	skipnc
  5780     1736  3001               	movlw	1
  5781     1737  07D3               	addwf	(___fladd@b+1)^(0+384),f
  5782     1738  3000               	movlw	0
  5783     1739  1803               	skipnc
  5784     173A  3001               	movlw	1
  5785     173B  07D4               	addwf	(___fladd@b+2)^(0+384),f
  5786     173C  3000               	movlw	0
  5787     173D  1803               	skipnc
  5788     173E  3001               	movlw	1
  5789     173F  07D5               	addwf	(___fladd@b+3)^(0+384),f
  5790     1740  2F4F               	goto	l687
  5791     1741                     l3803:
  5792     1741  0856               	movf	___fladd@a^(0+384),w
  5793     1742  02D2               	subwf	___fladd@b^(0+384),f
  5794     1743  0857               	movf	(___fladd@a+1)^(0+384),w
  5795     1744  1C03               	skipc
  5796     1745  0F57               	incfsz	(___fladd@a+1)^(0+384),w
  5797     1746  02D3               	subwf	(___fladd@b+1)^(0+384),f
  5798     1747  0858               	movf	(___fladd@a+2)^(0+384),w
  5799     1748  1C03               	skipc
  5800     1749  0F58               	incfsz	(___fladd@a+2)^(0+384),w
  5801     174A  02D4               	subwf	(___fladd@b+2)^(0+384),f
  5802     174B  0859               	movf	(___fladd@a+3)^(0+384),w
  5803     174C  1C03               	skipc
  5804     174D  0F59               	incfsz	(___fladd@a+3)^(0+384),w
  5805     174E  02D5               	subwf	(___fladd@b+3)^(0+384),f
  5806     174F                     l687:
  5807     174F  0855               	movf	(___fladd@b+3)^(0+384),w
  5808     1750  0454               	iorwf	(___fladd@b+2)^(0+384),w
  5809     1751  0453               	iorwf	(___fladd@b+1)^(0+384),w
  5810     1752  0452               	iorwf	___fladd@b^(0+384),w
  5811     1753  1D03               	skipz
  5812     1754  2F56               	goto	u6031
  5813     1755  2F57               	goto	u6030
  5814     1756                     u6031:
  5815     1756  2F83               	goto	l3825
  5816     1757                     u6030:
  5817     1757                     l3805:
  5818     1757  0865               	movf	___fladd@grs^(0+384),w
  5819     1758  1D03               	btfss	3,2
  5820     1759  2F5B               	goto	u6041
  5821     175A  2F5C               	goto	u6040
  5822     175B                     u6041:
  5823     175B  2F83               	goto	l3825
  5824     175C                     u6040:
  5825     175C                     l3807:
  5826     175C  3000               	movlw	0
  5827     175D  00D5               	movwf	(?___fladd+3)^(0+384)
  5828     175E  3000               	movlw	0
  5829     175F  00D4               	movwf	(?___fladd+2)^(0+384)
  5830     1760  3000               	movlw	0
  5831     1761  00D3               	movwf	(?___fladd+1)^(0+384)
  5832     1762  3000               	movlw	0
  5833     1763  00D2               	movwf	?___fladd^(0+384)
  5834     1764  2FFF               	goto	l679
  5835     1765                     l3811:
  5836     1765  3001               	movlw	1
  5837     1766  00DA               	movwf	??___fladd^(0+384)
  5838     1767                     u6055:
  5839     1767  1003               	clrc
  5840     1768  0DD2               	rlf	___fladd@b^(0+384),f
  5841     1769  0DD3               	rlf	(___fladd@b+1)^(0+384),f
  5842     176A  0DD4               	rlf	(___fladd@b+2)^(0+384),f
  5843     176B  0DD5               	rlf	(___fladd@b+3)^(0+384),f
  5844     176C  0BDA               	decfsz	??___fladd^(0+384),f
  5845     176D  2F67               	goto	u6055
  5846     176E                     l3813:
  5847     176E  1FE5               	btfss	___fladd@grs^(0+384),7
  5848     176F  2F71               	goto	u6061
  5849     1770  2F72               	goto	u6060
  5850     1771                     u6061:
  5851     1771  2F73               	goto	l691
  5852     1772                     u6060:
  5853     1772                     l3815:
  5854     1772  1452               	bsf	___fladd@b^(0+384),0
  5855     1773                     l691:
  5856     1773  1C65               	btfss	___fladd@grs^(0+384),0
  5857     1774  2F76               	goto	u6071
  5858     1775  2F77               	goto	u6070
  5859     1776                     u6071:
  5860     1776  2F7A               	goto	l3819
  5861     1777                     u6070:
  5862     1777                     l3817:
  5863     1777  1403               	setc
  5864     1778  0DE5               	rlf	___fladd@grs^(0+384),f
  5865     1779  2F7C               	goto	l3821
  5866     177A                     l3819:
  5867     177A  1003               	clrc
  5868     177B  0DE5               	rlf	___fladd@grs^(0+384),f
  5869     177C                     l3821:
  5870     177C  0864               	movf	___fladd@bexp^(0+384),w
  5871     177D  1903               	btfsc	3,2
  5872     177E  2F80               	goto	u6081
  5873     177F  2F81               	goto	u6080
  5874     1780                     u6081:
  5875     1780  2F83               	goto	l3825
  5876     1781                     u6080:
  5877     1781                     l3823:
  5878     1781  3001               	movlw	1
  5879     1782  02E4               	subwf	___fladd@bexp^(0+384),f
  5880     1783                     l3825:
  5881     1783  1FD4               	btfss	(___fladd@b+2)^(0+384),7
  5882     1784  2F86               	goto	u6091
  5883     1785  2F87               	goto	u6090
  5884     1786                     u6091:
  5885     1786  2F65               	goto	l3811
  5886     1787                     u6090:
  5887     1787                     l3827:
  5888     1787  01E3               	clrf	___fladd@aexp^(0+384)
  5889     1788                     l3829:
  5890     1788  1FE5               	btfss	___fladd@grs^(0+384),7
  5891     1789  2F8B               	goto	u6101
  5892     178A  2F8C               	goto	u6100
  5893     178B                     u6101:
  5894     178B  2F9A               	goto	l3837
  5895     178C                     u6100:
  5896     178C                     l3831:
  5897     178C  0865               	movf	___fladd@grs^(0+384),w
  5898     178D  397F               	andlw	127
  5899     178E  1903               	btfsc	3,2
  5900     178F  2F91               	goto	u6111
  5901     1790  2F92               	goto	u6110
  5902     1791                     u6111:
  5903     1791  2F95               	goto	l697
  5904     1792                     u6110:
  5905     1792                     l3833:
  5906     1792  01E3               	clrf	___fladd@aexp^(0+384)
  5907     1793  0AE3               	incf	___fladd@aexp^(0+384),f
  5908     1794  2F9A               	goto	l3837
  5909     1795                     l697:
  5910     1795  1C52               	btfss	___fladd@b^(0+384),0
  5911     1796  2F98               	goto	u6121
  5912     1797  2F99               	goto	u6120
  5913     1798                     u6121:
  5914     1798  2F9A               	goto	l3837
  5915     1799                     u6120:
  5916     1799  2F92               	goto	l3833
  5917     179A                     l3837:
  5918     179A  0863               	movf	___fladd@aexp^(0+384),w
  5919     179B  1903               	btfsc	3,2
  5920     179C  2F9E               	goto	u6131
  5921     179D  2F9F               	goto	u6130
  5922     179E                     u6131:
  5923     179E  2FD3               	goto	l700
  5924     179F                     u6130:
  5925     179F                     l3839:
  5926     179F  3001               	movlw	1
  5927     17A0  07D2               	addwf	___fladd@b^(0+384),f
  5928     17A1  3000               	movlw	0
  5929     17A2  1803               	skipnc
  5930     17A3  3001               	movlw	1
  5931     17A4  07D3               	addwf	(___fladd@b+1)^(0+384),f
  5932     17A5  3000               	movlw	0
  5933     17A6  1803               	skipnc
  5934     17A7  3001               	movlw	1
  5935     17A8  07D4               	addwf	(___fladd@b+2)^(0+384),f
  5936     17A9  3000               	movlw	0
  5937     17AA  1803               	skipnc
  5938     17AB  3001               	movlw	1
  5939     17AC  07D5               	addwf	(___fladd@b+3)^(0+384),f
  5940     17AD                     l3841:
  5941     17AD  1C55               	btfss	(___fladd@b+3)^(0+384),0
  5942     17AE  2FB0               	goto	u6141
  5943     17AF  2FB1               	goto	u6140
  5944     17B0                     u6141:
  5945     17B0  2FD3               	goto	l700
  5946     17B1                     u6140:
  5947     17B1                     l3843:
  5948     17B1  0852               	movf	___fladd@b^(0+384),w
  5949     17B2  00DA               	movwf	??___fladd^(0+384)
  5950     17B3  0853               	movf	(___fladd@b+1)^(0+384),w
  5951     17B4  00DB               	movwf	(??___fladd^(0+384)+1)
  5952     17B5  0854               	movf	(___fladd@b+2)^(0+384),w
  5953     17B6  00DC               	movwf	(??___fladd^(0+384)+2)
  5954     17B7  0855               	movf	(___fladd@b+3)^(0+384),w
  5955     17B8  00DD               	movwf	(??___fladd^(0+384)+3)
  5956     17B9  3001               	movlw	1
  5957     17BA  00DE               	movwf	(??___fladd+4)^(0+384)
  5958     17BB                     u6155:
  5959     17BB  0D5D               	rlf	(??___fladd^(0+384)+3),w
  5960     17BC  0CDD               	rrf	(??___fladd^(0+384)+3),f
  5961     17BD  0CDC               	rrf	(??___fladd^(0+384)+2),f
  5962     17BE  0CDB               	rrf	(??___fladd^(0+384)+1),f
  5963     17BF  0CDA               	rrf	??___fladd^(0+384),f
  5964     17C0                     u6150:
  5965     17C0  0BDE               	decfsz	(??___fladd+4)^(0+384),f
  5966     17C1  2FBB               	goto	u6155
  5967     17C2  085D               	movf	(??___fladd+3)^(0+384),w
  5968     17C3  00D5               	movwf	(___fladd@b+3)^(0+384)
  5969     17C4  085C               	movf	(??___fladd+2)^(0+384),w
  5970     17C5  00D4               	movwf	(___fladd@b+2)^(0+384)
  5971     17C6  085B               	movf	(??___fladd+1)^(0+384),w
  5972     17C7  00D3               	movwf	(___fladd@b+1)^(0+384)
  5973     17C8  085A               	movf	??___fladd^(0+384),w
  5974     17C9  00D2               	movwf	___fladd@b^(0+384)
  5975     17CA  0A64               	incf	___fladd@bexp^(0+384),w
  5976     17CB  1903               	btfsc	3,2
  5977     17CC  2FCE               	goto	u6161
  5978     17CD  2FCF               	goto	u6160
  5979     17CE                     u6161:
  5980     17CE  2FD3               	goto	l700
  5981     17CF                     u6160:
  5982     17CF                     l3845:
  5983     17CF  3001               	movlw	1
  5984     17D0  00DA               	movwf	??___fladd^(0+384)
  5985     17D1  085A               	movf	??___fladd^(0+384),w
  5986     17D2  07E4               	addwf	___fladd@bexp^(0+384),f
  5987     17D3                     l700:
  5988     17D3  0A64               	incf	___fladd@bexp^(0+384),w
  5989     17D4  1903               	btfsc	3,2
  5990     17D5  2FD7               	goto	u6171
  5991     17D6  2FD8               	goto	u6170
  5992     17D7                     u6171:
  5993     17D7  2FDD               	goto	l3849
  5994     17D8                     u6170:
  5995     17D8                     l3847:
  5996     17D8  0864               	movf	___fladd@bexp^(0+384),w
  5997     17D9  1D03               	btfss	3,2
  5998     17DA  2FDC               	goto	u6181
  5999     17DB  2FDD               	goto	u6180
  6000     17DC                     u6181:
  6001     17DC  2FEB               	goto	l3855
  6002     17DD                     u6180:
  6003     17DD                     l3849:
  6004     17DD  3000               	movlw	0
  6005     17DE  00D5               	movwf	(___fladd@b+3)^(0+384)
  6006     17DF  3000               	movlw	0
  6007     17E0  00D4               	movwf	(___fladd@b+2)^(0+384)
  6008     17E1  3000               	movlw	0
  6009     17E2  00D3               	movwf	(___fladd@b+1)^(0+384)
  6010     17E3  3000               	movlw	0
  6011     17E4  00D2               	movwf	___fladd@b^(0+384)
  6012     17E5                     l3851:
  6013     17E5  0864               	movf	___fladd@bexp^(0+384),w
  6014     17E6  1D03               	btfss	3,2
  6015     17E7  2FE9               	goto	u6191
  6016     17E8  2FEA               	goto	u6190
  6017     17E9                     u6191:
  6018     17E9  2FEB               	goto	l3855
  6019     17EA                     u6190:
  6020     17EA                     l3853:
  6021     17EA  01E2               	clrf	___fladd@signs^(0+384)
  6022     17EB                     l3855:
  6023     17EB  1C64               	btfss	___fladd@bexp^(0+384),0
  6024     17EC  2FEE               	goto	u6201
  6025     17ED  2FEF               	goto	u6200
  6026     17EE                     u6201:
  6027     17EE  2FF1               	goto	l3859
  6028     17EF                     u6200:
  6029     17EF                     l3857:
  6030     17EF  17D4               	bsf	(___fladd@b^(0+384)+2),7
  6031     17F0  2FF5               	goto	l708
  6032     17F1                     l3859:
  6033     17F1  307F               	movlw	127
  6034     17F2  00DA               	movwf	??___fladd^(0+384)
  6035     17F3  085A               	movf	??___fladd^(0+384),w
  6036     17F4  05D4               	andwf	(___fladd@b^(0+384)+2),f
  6037     17F5                     l708:
  6038     17F5  0864               	movf	___fladd@bexp^(0+384),w
  6039     17F6  00DA               	movwf	??___fladd^(0+384)
  6040     17F7  1003               	clrc
  6041     17F8  0C5A               	rrf	??___fladd^(0+384),w
  6042     17F9  00D5               	movwf	(___fladd@b^(0+384)+3)
  6043     17FA                     l3861:
  6044     17FA  1FE2               	btfss	___fladd@signs^(0+384),7
  6045     17FB  2FFD               	goto	u6211
  6046     17FC  2FFE               	goto	u6210
  6047     17FD                     u6211:
  6048     17FD  2FFF               	goto	l709
  6049     17FE                     u6210:
  6050     17FE                     l3863:
  6051     17FE  17D5               	bsf	(___fladd@b^(0+384)+3),7
  6052     17FF                     l709:
  6053     17FF                     l679:
  6054     17FF  0008               	return
  6055     1800                     __end_of___fladd:
  6056                           
  6057                           	psect	text11
  6058     09C2                     __ptext11:	
  6059 ;; *************** function _isr *****************
  6060 ;; Defined at:
  6061 ;;		line 75 in file "Progra_IRONMAN.c"
  6062 ;; Parameters:    Size  Location     Type
  6063 ;;		None
  6064 ;; Auto vars:     Size  Location     Type
  6065 ;;		None
  6066 ;; Return value:  Size  Location     Type
  6067 ;;                  1    wreg      void 
  6068 ;; Registers used:
  6069 ;;		wreg, fsr0l, fsr0h, status,2, status,0, btemp+1, pclath, cstack
  6070 ;; Tracked objects:
  6071 ;;		On entry : 0/0
  6072 ;;		On exit  : 0/0
  6073 ;;		Unchanged: 0/0
  6074 ;; Data sizes:     COMMON   BANK0   BANK1   BANK3   BANK2
  6075 ;;      Params:         0       0       0       0       0
  6076 ;;      Locals:         0       0       4       0       0
  6077 ;;      Temps:          0       0       8       0       0
  6078 ;;      Totals:         0       0      12       0       0
  6079 ;;Total ram usage:       12 bytes
  6080 ;; Hardware stack levels used: 1
  6081 ;; Hardware stack levels required when called: 4
  6082 ;; This function calls:
  6083 ;;		_TXT
  6084 ;;		_pulse
  6085 ;;		_read_EEPROM
  6086 ;;		_servos
  6087 ;;		_write_EEPROM
  6088 ;;		i1_PWM_duty
  6089 ;;		i1___fladd
  6090 ;;		i1___fldiv
  6091 ;;		i1___flmul
  6092 ;;		i1___fltol
  6093 ;;		i1___xxtofl
  6094 ;; This function is called by:
  6095 ;;		Interrupt level 1
  6096 ;; This function uses a non-reentrant model
  6097 ;;
  6098                           
  6099     09C2                     _isr:	
  6100                           ;psect for function _isr
  6101                           
  6102     09C2                     i1l3909:
  6103                           
  6104                           ;Progra_IRONMAN.c: 77:     if (INTCONbits.T0IF)
  6105     09C2  1D0B               	btfss	11,2	;volatile
  6106     09C3  29C5               	goto	u636_21
  6107     09C4  29C6               	goto	u636_20
  6108     09C5                     u636_21:
  6109     09C5  29CC               	goto	i1l3915
  6110     09C6                     u636_20:
  6111     09C6                     i1l3911:
  6112                           
  6113                           ;Progra_IRONMAN.c: 78:     {;Progra_IRONMAN.c: 79:         pulse();
  6114     09C6  160A  158A  221C  120A  158A  	fcall	_pulse
  6115     09CB                     i1l3913:
  6116                           
  6117                           ;Progra_IRONMAN.c: 80:         INTCONbits.T0IF = 0;
  6118     09CB  110B               	bcf	11,2	;volatile
  6119     09CC                     i1l3915:
  6120                           
  6121                           ;Progra_IRONMAN.c: 84:     if(PIR1bits.RCIF){
  6122     09CC  1283               	bcf	3,5	;RP0=0, select bank0
  6123     09CD  1303               	bcf	3,6	;RP1=0, select bank0
  6124     09CE  1E8C               	btfss	12,5	;volatile
  6125     09CF  29D1               	goto	u637_21
  6126     09D0  29D2               	goto	u637_20
  6127     09D1                     u637_21:
  6128     09D1  29D7               	goto	i1l3919
  6129     09D2                     u637_20:
  6130     09D2                     i1l3917:
  6131                           
  6132                           ;Progra_IRONMAN.c: 85:         TXT();
  6133     09D2  160A  158A  2348  120A  158A  	fcall	_TXT
  6134     09D7                     i1l3919:
  6135                           
  6136                           ;Progra_IRONMAN.c: 91:     if (INTCONbits.RBIF)
  6137     09D7  1C0B               	btfss	11,0	;volatile
  6138     09D8  29DA               	goto	u638_21
  6139     09D9  29DB               	goto	u638_20
  6140     09DA                     u638_21:
  6141     09DA  2A49               	goto	i1l3953
  6142     09DB                     u638_20:
  6143     09DB                     i1l3921:
  6144                           
  6145                           ;Progra_IRONMAN.c: 92:     {;Progra_IRONMAN.c: 93:         if (PORTBbits.RB0 == 0){
  6146     09DB  1283               	bcf	3,5	;RP0=0, select bank0
  6147     09DC  1303               	bcf	3,6	;RP1=0, select bank0
  6148     09DD  1806               	btfsc	6,0	;volatile
  6149     09DE  29E0               	goto	u639_21
  6150     09DF  29E1               	goto	u639_20
  6151     09E0                     u639_21:
  6152     09E0  29F0               	goto	i1l150
  6153     09E1                     u639_20:
  6154     09E1                     i1l3923:
  6155                           
  6156                           ;Progra_IRONMAN.c: 94:             modo = modo + 1;
  6157     09E1  1683               	bsf	3,5	;RP0=1, select bank1
  6158     09E2  1303               	bcf	3,6	;RP1=0, select bank1
  6159     09E3  0851               	movf	_modo^(0+128),w
  6160     09E4  3E01               	addlw	1
  6161     09E5  00D1               	movwf	_modo^(0+128)
  6162     09E6  0852               	movf	(_modo+1)^(0+128),w
  6163     09E7  1803               	skipnc
  6164     09E8  3E01               	addlw	1
  6165     09E9  3E00               	addlw	0
  6166     09EA  00D2               	movwf	(_modo+1)^(0+128)
  6167     09EB                     i1l3925:
  6168                           
  6169                           ;Progra_IRONMAN.c: 95:             contador = 0;
  6170     09EB  1283               	bcf	3,5	;RP0=0, select bank2
  6171     09EC  1703               	bsf	3,6	;RP1=1, select bank2
  6172     09ED  01B3               	clrf	_contador^(0+256)
  6173     09EE  01B4               	clrf	(_contador+1)^(0+256)
  6174                           
  6175                           ;Progra_IRONMAN.c: 96:         }
  6176     09EF  2A48               	goto	i1l3951
  6177     09F0                     i1l150:	
  6178                           ;Progra_IRONMAN.c: 98:         else if (PORTBbits.RB1 == 0){
  6179                           
  6180     09F0  1886               	btfsc	6,1	;volatile
  6181     09F1  29F3               	goto	u640_21
  6182     09F2  29F4               	goto	u640_20
  6183     09F3                     u640_21:
  6184     09F3  29FA               	goto	i1l152
  6185     09F4                     u640_20:
  6186     09F4                     i1l3927:
  6187                           
  6188                           ;Progra_IRONMAN.c: 99:             servo = servo + 1;
  6189     09F4  1683               	bsf	3,5	;RP0=1, select bank1
  6190     09F5  1303               	bcf	3,6	;RP1=0, select bank1
  6191     09F6  0858               	movf	_servo^(0+128),w
  6192     09F7  3E01               	addlw	1
  6193     09F8  00D8               	movwf	_servo^(0+128)
  6194     09F9  29EB               	goto	i1l3925
  6195     09FA                     i1l152:	
  6196                           ;Progra_IRONMAN.c: 103:         else if (PORTBbits.RB2 == 0){
  6197                           
  6198     09FA  1906               	btfsc	6,2	;volatile
  6199     09FB  29FD               	goto	u641_21
  6200     09FC  29FE               	goto	u641_20
  6201     09FD                     u641_21:
  6202     09FD  2A05               	goto	i1l154
  6203     09FE                     u641_20:
  6204     09FE                     i1l3931:
  6205                           
  6206                           ;Progra_IRONMAN.c: 104:             address++;
  6207     09FE  3001               	movlw	1
  6208     09FF  1683               	bsf	3,5	;RP0=1, select bank1
  6209     0A00  1303               	bcf	3,6	;RP1=0, select bank1
  6210     0A01  00B9               	movwf	??_isr^(0+128)
  6211     0A02  0839               	movf	??_isr^(0+128),w
  6212     0A03  07D5               	addwf	_address^(0+128),f
  6213     0A04  29EB               	goto	i1l3925
  6214     0A05                     i1l154:	
  6215                           ;Progra_IRONMAN.c: 109:         else if (PORTBbits.RB3 == 0){
  6216                           
  6217     0A05  1986               	btfsc	6,3	;volatile
  6218     0A06  2A08               	goto	u642_21
  6219     0A07  2A09               	goto	u642_20
  6220     0A08                     u642_21:
  6221     0A08  2A0E               	goto	i1l156
  6222     0A09                     u642_20:
  6223     0A09                     i1l3935:
  6224                           
  6225                           ;Progra_IRONMAN.c: 110:             address--;
  6226     0A09  3001               	movlw	1
  6227     0A0A  1683               	bsf	3,5	;RP0=1, select bank1
  6228     0A0B  1303               	bcf	3,6	;RP1=0, select bank1
  6229     0A0C  02D5               	subwf	_address^(0+128),f
  6230     0A0D  29EB               	goto	i1l3925
  6231     0A0E                     i1l156:	
  6232                           ;Progra_IRONMAN.c: 114:         else if (PORTBbits.RB4 == 0){
  6233                           
  6234     0A0E  1A06               	btfsc	6,4	;volatile
  6235     0A0F  2A11               	goto	u643_21
  6236     0A10  2A12               	goto	u643_20
  6237     0A11                     u643_21:
  6238     0A11  2A1D               	goto	i1l158
  6239     0A12                     u643_20:
  6240     0A12                     i1l3939:
  6241                           
  6242                           ;Progra_IRONMAN.c: 115:             write_EEPROM (address, potenciometro);
  6243     0A12  1683               	bsf	3,5	;RP0=1, select bank1
  6244     0A13  1303               	bcf	3,6	;RP1=0, select bank1
  6245     0A14  0853               	movf	_potenciometro^(0+128),w
  6246     0A15  00F0               	movwf	write_EEPROM@data
  6247     0A16  0855               	movf	_address^(0+128),w
  6248     0A17  160A  158A  2160  120A  158A  	fcall	_write_EEPROM
  6249     0A1C  29EB               	goto	i1l3925
  6250     0A1D                     i1l158:	
  6251                           ;Progra_IRONMAN.c: 119:         else if (PORTBbits.RB5 == 0){
  6252                           
  6253     0A1D  1A86               	btfsc	6,5	;volatile
  6254     0A1E  2A20               	goto	u644_21
  6255     0A1F  2A21               	goto	u644_20
  6256     0A20                     u644_21:
  6257     0A20  2A3D               	goto	i1l160
  6258     0A21                     u644_20:
  6259     0A21                     i1l3943:
  6260                           
  6261                           ;Progra_IRONMAN.c: 121:             data = read_EEPROM(address);
  6262     0A21  1683               	bsf	3,5	;RP0=1, select bank1
  6263     0A22  1303               	bcf	3,6	;RP1=0, select bank1
  6264     0A23  0855               	movf	_address^(0+128),w
  6265     0A24  160A  158A  2149  120A  158A  	fcall	_read_EEPROM
  6266     0A29  1683               	bsf	3,5	;RP0=1, select bank1
  6267     0A2A  1303               	bcf	3,6	;RP1=0, select bank1
  6268     0A2B  00D4               	movwf	_data^(0+128)
  6269     0A2C                     i1l3945:
  6270                           
  6271                           ;Progra_IRONMAN.c: 123:             contador = 0;
  6272     0A2C  1283               	bcf	3,5	;RP0=0, select bank2
  6273     0A2D  1703               	bsf	3,6	;RP1=1, select bank2
  6274     0A2E  01B3               	clrf	_contador^(0+256)
  6275     0A2F  01B4               	clrf	(_contador+1)^(0+256)
  6276     0A30                     i1l3947:
  6277                           
  6278                           ;Progra_IRONMAN.c: 124:             servos(data, modo);
  6279     0A30  1683               	bsf	3,5	;RP0=1, select bank1
  6280     0A31  1303               	bcf	3,6	;RP1=0, select bank1
  6281     0A32  0852               	movf	(_modo+1)^(0+128),w
  6282     0A33  00AF               	movwf	(servos@modo+1)^(0+128)
  6283     0A34  0851               	movf	_modo^(0+128),w
  6284     0A35  00AE               	movwf	servos@modo^(0+128)
  6285     0A36  0854               	movf	_data^(0+128),w
  6286     0A37  160A  158A  245C  120A  158A  	fcall	_servos
  6287                           
  6288                           ;Progra_IRONMAN.c: 125:         }
  6289     0A3C  2A48               	goto	i1l3951
  6290     0A3D                     i1l160:	
  6291                           ;Progra_IRONMAN.c: 127:         else if (PORTBbits.RB6 == 0){
  6292                           
  6293     0A3D  1B06               	btfsc	6,6	;volatile
  6294     0A3E  2A40               	goto	u645_21
  6295     0A3F  2A41               	goto	u645_20
  6296     0A40                     u645_21:
  6297     0A40  2A48               	goto	i1l157
  6298     0A41                     u645_20:
  6299     0A41                     i1l3949:
  6300                           
  6301                           ;Progra_IRONMAN.c: 128:              contador = 1;
  6302     0A41  3001               	movlw	1
  6303     0A42  1283               	bcf	3,5	;RP0=0, select bank2
  6304     0A43  1703               	bsf	3,6	;RP1=1, select bank2
  6305     0A44  00B3               	movwf	_contador^(0+256)
  6306     0A45  3000               	movlw	0
  6307     0A46  00B4               	movwf	(_contador^(0+256)+1)
  6308     0A47  2A48               	goto	i1l3951
  6309     0A48                     i1l157:
  6310     0A48                     i1l3951:
  6311                           
  6312                           ;Progra_IRONMAN.c: 132:         INTCONbits.RBIF = 0;
  6313     0A48  100B               	bcf	11,0	;volatile
  6314     0A49                     i1l3953:
  6315                           
  6316                           ;Progra_IRONMAN.c: 136:     if (PIR1bits.ADIF) {
  6317     0A49  1283               	bcf	3,5	;RP0=0, select bank0
  6318     0A4A  1303               	bcf	3,6	;RP1=0, select bank0
  6319     0A4B  1F0C               	btfss	12,6	;volatile
  6320     0A4C  2A4E               	goto	u646_21
  6321     0A4D  2A4F               	goto	u646_20
  6322     0A4E                     u646_21:
  6323     0A4E  2CC8               	goto	i1l175
  6324     0A4F                     u646_20:
  6325     0A4F                     i1l3955:
  6326                           
  6327                           ;Progra_IRONMAN.c: 137:         if(modo == 0){
  6328     0A4F  1683               	bsf	3,5	;RP0=1, select bank1
  6329     0A50  1303               	bcf	3,6	;RP1=0, select bank1
  6330     0A51  0851               	movf	_modo^(0+128),w
  6331     0A52  0452               	iorwf	(_modo+1)^(0+128),w
  6332     0A53  1D03               	btfss	3,2
  6333     0A54  2A56               	goto	u647_21
  6334     0A55  2A57               	goto	u647_20
  6335     0A56                     u647_21:
  6336     0A56  2CA8               	goto	i1l3973
  6337     0A57                     u647_20:
  6338     0A57                     i1l3957:
  6339                           
  6340                           ;Progra_IRONMAN.c: 140:             if (ADCON0bits.CHS == 0b0000){
  6341     0A57  1283               	bcf	3,5	;RP0=0, select bank0
  6342     0A58  1303               	bcf	3,6	;RP1=0, select bank0
  6343     0A59  0C1F               	rrf	31,w	;volatile
  6344     0A5A  1683               	bsf	3,5	;RP0=1, select bank1
  6345     0A5B  1303               	bcf	3,6	;RP1=0, select bank1
  6346     0A5C  00B9               	movwf	??_isr^(0+128)
  6347     0A5D  0C39               	rrf	??_isr^(0+128),w
  6348     0A5E  390F               	andlw	15
  6349     0A5F  3A00               	xorlw	0
  6350     0A60  1D03               	skipz
  6351     0A61  2A63               	goto	u648_21
  6352     0A62  2A64               	goto	u648_20
  6353     0A63                     u648_21:
  6354     0A63  2B15               	goto	i1l3961
  6355     0A64                     u648_20:
  6356     0A64                     i1l3959:
  6357                           
  6358                           ;Progra_IRONMAN.c: 141:                 valorPot1 = 0.6*ADRESH;
  6359     0A64  1283               	bcf	3,5	;RP0=0, select bank0
  6360     0A65  1303               	bcf	3,6	;RP1=0, select bank0
  6361     0A66  081E               	movf	30,w	;volatile
  6362     0A67  1683               	bsf	3,5	;RP0=1, select bank1
  6363     0A68  1303               	bcf	3,6	;RP1=0, select bank1
  6364     0A69  00B9               	movwf	??_isr^(0+128)
  6365     0A6A  01BA               	clrf	(??_isr^(0+128)+1)
  6366     0A6B  01BB               	clrf	(??_isr^(0+128)+2)
  6367     0A6C  01BC               	clrf	(??_isr^(0+128)+3)
  6368     0A6D  083C               	movf	(??_isr+3)^(0+128),w
  6369     0A6E  00F3               	movwf	i1___xxtofl@val+3
  6370     0A6F  083B               	movf	(??_isr+2)^(0+128),w
  6371     0A70  00F2               	movwf	i1___xxtofl@val+2
  6372     0A71  083A               	movf	(??_isr+1)^(0+128),w
  6373     0A72  00F1               	movwf	i1___xxtofl@val+1
  6374     0A73  0839               	movf	??_isr^(0+128),w
  6375     0A74  00F0               	movwf	i1___xxtofl@val
  6376     0A75  3001               	movlw	1
  6377     0A76  160A  118A  200B  120A  158A  	fcall	i1___xxtofl
  6378     0A7B  0873               	movf	?i1___xxtofl+3,w
  6379     0A7C  1283               	bcf	3,5	;RP0=0, select bank0
  6380     0A7D  1303               	bcf	3,6	;RP1=0, select bank0
  6381     0A7E  00C1               	movwf	i1___flmul@a+3
  6382     0A7F  0872               	movf	?i1___xxtofl+2,w
  6383     0A80  00C0               	movwf	i1___flmul@a+2
  6384     0A81  0871               	movf	?i1___xxtofl+1,w
  6385     0A82  00BF               	movwf	i1___flmul@a+1
  6386     0A83  0870               	movf	?i1___xxtofl,w
  6387     0A84  00BE               	movwf	i1___flmul@a
  6388     0A85  303F               	movlw	63
  6389     0A86  00BD               	movwf	i1___flmul@b+3
  6390     0A87  3019               	movlw	25
  6391     0A88  00BC               	movwf	i1___flmul@b+2
  6392     0A89  3099               	movlw	153
  6393     0A8A  00BB               	movwf	i1___flmul@b+1
  6394     0A8B  309A               	movlw	154
  6395     0A8C  00BA               	movwf	i1___flmul@b
  6396     0A8D  120A  118A  2384  120A  158A  	fcall	i1___flmul
  6397     0A92  1283               	bcf	3,5	;RP0=0, select bank0
  6398     0A93  1303               	bcf	3,6	;RP1=0, select bank0
  6399     0A94  083D               	movf	?i1___flmul+3,w
  6400     0A95  00EB               	movwf	i1___fltol@f1+3
  6401     0A96  083C               	movf	?i1___flmul+2,w
  6402     0A97  00EA               	movwf	i1___fltol@f1+2
  6403     0A98  083B               	movf	?i1___flmul+1,w
  6404     0A99  00E9               	movwf	i1___fltol@f1+1
  6405     0A9A  083A               	movf	?i1___flmul,w
  6406     0A9B  00E8               	movwf	i1___fltol@f1
  6407     0A9C  120A  158A  2006  120A  158A  	fcall	i1___fltol
  6408     0AA1  1283               	bcf	3,5	;RP0=0, select bank0
  6409     0AA2  1303               	bcf	3,6	;RP1=0, select bank0
  6410     0AA3  0869               	movf	?i1___fltol+1,w
  6411     0AA4  1683               	bsf	3,5	;RP0=1, select bank1
  6412     0AA5  1303               	bcf	3,6	;RP1=0, select bank1
  6413     0AA6  00D0               	movwf	(_valorPot1+1)^(0+128)
  6414     0AA7  1283               	bcf	3,5	;RP0=0, select bank0
  6415     0AA8  1303               	bcf	3,6	;RP1=0, select bank0
  6416     0AA9  0868               	movf	?i1___fltol,w
  6417     0AAA  1683               	bsf	3,5	;RP0=1, select bank1
  6418     0AAB  1303               	bcf	3,6	;RP1=0, select bank1
  6419     0AAC  00CF               	movwf	_valorPot1^(0+128)
  6420                           
  6421                           ;Progra_IRONMAN.c: 142:                 PWM_duty(1, 0.00025f*((valorPot1)/255.0f));
  6422     0AAD  3039               	movlw	57
  6423     0AAE  1283               	bcf	3,5	;RP0=0, select bank0
  6424     0AAF  1303               	bcf	3,6	;RP1=0, select bank0
  6425     0AB0  00BD               	movwf	i1___flmul@b+3
  6426     0AB1  3083               	movlw	131
  6427     0AB2  00BC               	movwf	i1___flmul@b+2
  6428     0AB3  3012               	movlw	18
  6429     0AB4  00BB               	movwf	i1___flmul@b+1
  6430     0AB5  306F               	movlw	111
  6431     0AB6  00BA               	movwf	i1___flmul@b
  6432     0AB7  3043               	movlw	67
  6433     0AB8  00A3               	movwf	i1___fldiv@a+3
  6434     0AB9  307F               	movlw	127
  6435     0ABA  00A2               	movwf	i1___fldiv@a+2
  6436     0ABB  3000               	movlw	0
  6437     0ABC  00A1               	movwf	i1___fldiv@a+1
  6438     0ABD  3000               	movlw	0
  6439     0ABE  00A0               	movwf	i1___fldiv@a
  6440     0ABF  1683               	bsf	3,5	;RP0=1, select bank1
  6441     0AC0  1303               	bcf	3,6	;RP1=0, select bank1
  6442     0AC1  084F               	movf	_valorPot1^(0+128),w
  6443     0AC2  00F0               	movwf	i1___xxtofl@val
  6444     0AC3  0850               	movf	(_valorPot1+1)^(0+128),w
  6445     0AC4  00F1               	movwf	i1___xxtofl@val+1
  6446     0AC5  3000               	movlw	0
  6447     0AC6  1BF1               	btfsc	i1___xxtofl@val+1,7
  6448     0AC7  30FF               	movlw	255
  6449     0AC8  00F2               	movwf	i1___xxtofl@val+2
  6450     0AC9  00F3               	movwf	i1___xxtofl@val+3
  6451     0ACA  3001               	movlw	1
  6452     0ACB  160A  118A  200B  120A  158A  	fcall	i1___xxtofl
  6453     0AD0  0873               	movf	?i1___xxtofl+3,w
  6454     0AD1  1283               	bcf	3,5	;RP0=0, select bank0
  6455     0AD2  1303               	bcf	3,6	;RP1=0, select bank0
  6456     0AD3  00A7               	movwf	i1___fldiv@b+3
  6457     0AD4  0872               	movf	?i1___xxtofl+2,w
  6458     0AD5  00A6               	movwf	i1___fldiv@b+2
  6459     0AD6  0871               	movf	?i1___xxtofl+1,w
  6460     0AD7  00A5               	movwf	i1___fldiv@b+1
  6461     0AD8  0870               	movf	?i1___xxtofl,w
  6462     0AD9  00A4               	movwf	i1___fldiv@b
  6463     0ADA  160A  158A  262D  120A  158A  	fcall	i1___fldiv
  6464     0ADF  1283               	bcf	3,5	;RP0=0, select bank0
  6465     0AE0  1303               	bcf	3,6	;RP1=0, select bank0
  6466     0AE1  0823               	movf	?i1___fldiv+3,w
  6467     0AE2  00C1               	movwf	i1___flmul@a+3
  6468     0AE3  0822               	movf	?i1___fldiv+2,w
  6469     0AE4  00C0               	movwf	i1___flmul@a+2
  6470     0AE5  0821               	movf	?i1___fldiv+1,w
  6471     0AE6  00BF               	movwf	i1___flmul@a+1
  6472     0AE7  0820               	movf	?i1___fldiv,w
  6473     0AE8  00BE               	movwf	i1___flmul@a
  6474     0AE9  120A  118A  2384  120A  158A  	fcall	i1___flmul
  6475     0AEE  1283               	bcf	3,5	;RP0=0, select bank0
  6476     0AEF  1303               	bcf	3,6	;RP1=0, select bank0
  6477     0AF0  083D               	movf	?i1___flmul+3,w
  6478     0AF1  1683               	bsf	3,5	;RP0=1, select bank1
  6479     0AF2  1303               	bcf	3,6	;RP1=0, select bank1
  6480     0AF3  00C4               	movwf	(_isr$1433+3)^(0+128)
  6481     0AF4  1283               	bcf	3,5	;RP0=0, select bank0
  6482     0AF5  1303               	bcf	3,6	;RP1=0, select bank0
  6483     0AF6  083C               	movf	?i1___flmul+2,w
  6484     0AF7  1683               	bsf	3,5	;RP0=1, select bank1
  6485     0AF8  1303               	bcf	3,6	;RP1=0, select bank1
  6486     0AF9  00C3               	movwf	(_isr$1433+2)^(0+128)
  6487     0AFA  1283               	bcf	3,5	;RP0=0, select bank0
  6488     0AFB  1303               	bcf	3,6	;RP1=0, select bank0
  6489     0AFC  083B               	movf	?i1___flmul+1,w
  6490     0AFD  1683               	bsf	3,5	;RP0=1, select bank1
  6491     0AFE  1303               	bcf	3,6	;RP1=0, select bank1
  6492     0AFF  00C2               	movwf	(_isr$1433+1)^(0+128)
  6493     0B00  1283               	bcf	3,5	;RP0=0, select bank0
  6494     0B01  1303               	bcf	3,6	;RP1=0, select bank0
  6495     0B02  083A               	movf	?i1___flmul,w
  6496     0B03  1683               	bsf	3,5	;RP0=1, select bank1
  6497     0B04  1303               	bcf	3,6	;RP1=0, select bank1
  6498     0B05  00C1               	movwf	_isr$1433^(0+128)
  6499                           
  6500                           ;Progra_IRONMAN.c: 142:                 PWM_duty(1, 0.00025f*((valorPot1)/255.0f));
  6501     0B06  0844               	movf	(_isr$1433+3)^(0+128),w
  6502     0B07  00A5               	movwf	(i1PWM_duty@duty+3)^(0+128)
  6503     0B08  0843               	movf	(_isr$1433+2)^(0+128),w
  6504     0B09  00A4               	movwf	(i1PWM_duty@duty+2)^(0+128)
  6505     0B0A  0842               	movf	(_isr$1433+1)^(0+128),w
  6506     0B0B  00A3               	movwf	(i1PWM_duty@duty+1)^(0+128)
  6507     0B0C  0841               	movf	_isr$1433^(0+128),w
  6508     0B0D  00A2               	movwf	i1PWM_duty@duty^(0+128)
  6509     0B0E  3001               	movlw	1
  6510     0B0F  120A  158A  2094  120A  158A  	fcall	i1_PWM_duty
  6511                           
  6512                           ;Progra_IRONMAN.c: 143:             }
  6513     0B14  2CC5               	goto	i1l3979
  6514     0B15                     i1l3961:
  6515     0B15  1283               	bcf	3,5	;RP0=0, select bank0
  6516     0B16  1303               	bcf	3,6	;RP1=0, select bank0
  6517     0B17  0C1F               	rrf	31,w	;volatile
  6518     0B18  1683               	bsf	3,5	;RP0=1, select bank1
  6519     0B19  1303               	bcf	3,6	;RP1=0, select bank1
  6520     0B1A  00B9               	movwf	??_isr^(0+128)
  6521     0B1B  0C39               	rrf	??_isr^(0+128),w
  6522     0B1C  390F               	andlw	15
  6523     0B1D  3A01               	xorlw	1
  6524     0B1E  1D03               	skipz
  6525     0B1F  2B21               	goto	u649_21
  6526     0B20  2B22               	goto	u649_20
  6527     0B21                     u649_21:
  6528     0B21  2B7D               	goto	i1l3965
  6529     0B22                     u649_20:
  6530     0B22                     i1l3963:
  6531                           
  6532                           ;Progra_IRONMAN.c: 146:                 ang1 = ((ADRESH*0.047)+6);
  6533     0B22  1283               	bcf	3,5	;RP0=0, select bank0
  6534     0B23  1303               	bcf	3,6	;RP1=0, select bank0
  6535     0B24  081E               	movf	30,w	;volatile
  6536     0B25  1683               	bsf	3,5	;RP0=1, select bank1
  6537     0B26  1303               	bcf	3,6	;RP1=0, select bank1
  6538     0B27  00B9               	movwf	??_isr^(0+128)
  6539     0B28  01BA               	clrf	(??_isr^(0+128)+1)
  6540     0B29  01BB               	clrf	(??_isr^(0+128)+2)
  6541     0B2A  01BC               	clrf	(??_isr^(0+128)+3)
  6542     0B2B  083C               	movf	(??_isr+3)^(0+128),w
  6543     0B2C  00F3               	movwf	i1___xxtofl@val+3
  6544     0B2D  083B               	movf	(??_isr+2)^(0+128),w
  6545     0B2E  00F2               	movwf	i1___xxtofl@val+2
  6546     0B2F  083A               	movf	(??_isr+1)^(0+128),w
  6547     0B30  00F1               	movwf	i1___xxtofl@val+1
  6548     0B31  0839               	movf	??_isr^(0+128),w
  6549     0B32  00F0               	movwf	i1___xxtofl@val
  6550     0B33  3001               	movlw	1
  6551     0B34  160A  118A  200B  120A  158A  	fcall	i1___xxtofl
  6552     0B39  0873               	movf	?i1___xxtofl+3,w
  6553     0B3A  1283               	bcf	3,5	;RP0=0, select bank0
  6554     0B3B  1303               	bcf	3,6	;RP1=0, select bank0
  6555     0B3C  00C1               	movwf	i1___flmul@a+3
  6556     0B3D  0872               	movf	?i1___xxtofl+2,w
  6557     0B3E  00C0               	movwf	i1___flmul@a+2
  6558     0B3F  0871               	movf	?i1___xxtofl+1,w
  6559     0B40  00BF               	movwf	i1___flmul@a+1
  6560     0B41  0870               	movf	?i1___xxtofl,w
  6561     0B42  00BE               	movwf	i1___flmul@a
  6562     0B43  303D               	movlw	61
  6563     0B44  00BD               	movwf	i1___flmul@b+3
  6564     0B45  3040               	movlw	64
  6565     0B46  00BC               	movwf	i1___flmul@b+2
  6566     0B47  3083               	movlw	131
  6567     0B48  00BB               	movwf	i1___flmul@b+1
  6568     0B49  3012               	movlw	18
  6569     0B4A  00BA               	movwf	i1___flmul@b
  6570     0B4B  120A  118A  2384  120A  158A  	fcall	i1___flmul
  6571     0B50  1283               	bcf	3,5	;RP0=0, select bank0
  6572     0B51  1303               	bcf	3,6	;RP1=0, select bank0
  6573     0B52  083D               	movf	?i1___flmul+3,w
  6574     0B53  00DB               	movwf	i1___fladd@a+3
  6575     0B54  083C               	movf	?i1___flmul+2,w
  6576     0B55  00DA               	movwf	i1___fladd@a+2
  6577     0B56  083B               	movf	?i1___flmul+1,w
  6578     0B57  00D9               	movwf	i1___fladd@a+1
  6579     0B58  083A               	movf	?i1___flmul,w
  6580     0B59  00D8               	movwf	i1___fladd@a
  6581     0B5A  3040               	movlw	64
  6582     0B5B  00D7               	movwf	i1___fladd@b+3
  6583     0B5C  30C0               	movlw	192
  6584     0B5D  00D6               	movwf	i1___fladd@b+2
  6585     0B5E  3000               	movlw	0
  6586     0B5F  00D5               	movwf	i1___fladd@b+1
  6587     0B60  3000               	movlw	0
  6588     0B61  00D4               	movwf	i1___fladd@b
  6589     0B62  160A  118A  2350  120A  158A  	fcall	i1___fladd
  6590     0B67  1283               	bcf	3,5	;RP0=0, select bank0
  6591     0B68  1303               	bcf	3,6	;RP1=0, select bank0
  6592     0B69  0857               	movf	?i1___fladd+3,w
  6593     0B6A  00EB               	movwf	i1___fltol@f1+3
  6594     0B6B  0856               	movf	?i1___fladd+2,w
  6595     0B6C  00EA               	movwf	i1___fltol@f1+2
  6596     0B6D  0855               	movf	?i1___fladd+1,w
  6597     0B6E  00E9               	movwf	i1___fltol@f1+1
  6598     0B6F  0854               	movf	?i1___fladd,w
  6599     0B70  00E8               	movwf	i1___fltol@f1
  6600     0B71  120A  158A  2006  120A  158A  	fcall	i1___fltol
  6601     0B76  1283               	bcf	3,5	;RP0=0, select bank0
  6602     0B77  1303               	bcf	3,6	;RP1=0, select bank0
  6603     0B78  0868               	movf	?i1___fltol,w
  6604     0B79  1283               	bcf	3,5	;RP0=0, select bank2
  6605     0B7A  1703               	bsf	3,6	;RP1=1, select bank2
  6606     0B7B  00B8               	movwf	_ang1^(0+256)
  6607                           
  6608                           ;Progra_IRONMAN.c: 147:             }
  6609     0B7C  2CC5               	goto	i1l3979
  6610     0B7D                     i1l3965:
  6611     0B7D  1283               	bcf	3,5	;RP0=0, select bank0
  6612     0B7E  1303               	bcf	3,6	;RP1=0, select bank0
  6613     0B7F  0C1F               	rrf	31,w	;volatile
  6614     0B80  1683               	bsf	3,5	;RP0=1, select bank1
  6615     0B81  1303               	bcf	3,6	;RP1=0, select bank1
  6616     0B82  00B9               	movwf	??_isr^(0+128)
  6617     0B83  0C39               	rrf	??_isr^(0+128),w
  6618     0B84  390F               	andlw	15
  6619     0B85  3A02               	xorlw	2
  6620     0B86  1D03               	skipz
  6621     0B87  2B89               	goto	u650_21
  6622     0B88  2B8A               	goto	u650_20
  6623     0B89                     u650_21:
  6624     0B89  2BE5               	goto	i1l3969
  6625     0B8A                     u650_20:
  6626     0B8A                     i1l3967:
  6627                           
  6628                           ;Progra_IRONMAN.c: 150:                 ang2 = ((ADRESH*0.047)+6);
  6629     0B8A  1283               	bcf	3,5	;RP0=0, select bank0
  6630     0B8B  1303               	bcf	3,6	;RP1=0, select bank0
  6631     0B8C  081E               	movf	30,w	;volatile
  6632     0B8D  1683               	bsf	3,5	;RP0=1, select bank1
  6633     0B8E  1303               	bcf	3,6	;RP1=0, select bank1
  6634     0B8F  00B9               	movwf	??_isr^(0+128)
  6635     0B90  01BA               	clrf	(??_isr^(0+128)+1)
  6636     0B91  01BB               	clrf	(??_isr^(0+128)+2)
  6637     0B92  01BC               	clrf	(??_isr^(0+128)+3)
  6638     0B93  083C               	movf	(??_isr+3)^(0+128),w
  6639     0B94  00F3               	movwf	i1___xxtofl@val+3
  6640     0B95  083B               	movf	(??_isr+2)^(0+128),w
  6641     0B96  00F2               	movwf	i1___xxtofl@val+2
  6642     0B97  083A               	movf	(??_isr+1)^(0+128),w
  6643     0B98  00F1               	movwf	i1___xxtofl@val+1
  6644     0B99  0839               	movf	??_isr^(0+128),w
  6645     0B9A  00F0               	movwf	i1___xxtofl@val
  6646     0B9B  3001               	movlw	1
  6647     0B9C  160A  118A  200B  120A  158A  	fcall	i1___xxtofl
  6648     0BA1  0873               	movf	?i1___xxtofl+3,w
  6649     0BA2  1283               	bcf	3,5	;RP0=0, select bank0
  6650     0BA3  1303               	bcf	3,6	;RP1=0, select bank0
  6651     0BA4  00C1               	movwf	i1___flmul@a+3
  6652     0BA5  0872               	movf	?i1___xxtofl+2,w
  6653     0BA6  00C0               	movwf	i1___flmul@a+2
  6654     0BA7  0871               	movf	?i1___xxtofl+1,w
  6655     0BA8  00BF               	movwf	i1___flmul@a+1
  6656     0BA9  0870               	movf	?i1___xxtofl,w
  6657     0BAA  00BE               	movwf	i1___flmul@a
  6658     0BAB  303D               	movlw	61
  6659     0BAC  00BD               	movwf	i1___flmul@b+3
  6660     0BAD  3040               	movlw	64
  6661     0BAE  00BC               	movwf	i1___flmul@b+2
  6662     0BAF  3083               	movlw	131
  6663     0BB0  00BB               	movwf	i1___flmul@b+1
  6664     0BB1  3012               	movlw	18
  6665     0BB2  00BA               	movwf	i1___flmul@b
  6666     0BB3  120A  118A  2384  120A  158A  	fcall	i1___flmul
  6667     0BB8  1283               	bcf	3,5	;RP0=0, select bank0
  6668     0BB9  1303               	bcf	3,6	;RP1=0, select bank0
  6669     0BBA  083D               	movf	?i1___flmul+3,w
  6670     0BBB  00DB               	movwf	i1___fladd@a+3
  6671     0BBC  083C               	movf	?i1___flmul+2,w
  6672     0BBD  00DA               	movwf	i1___fladd@a+2
  6673     0BBE  083B               	movf	?i1___flmul+1,w
  6674     0BBF  00D9               	movwf	i1___fladd@a+1
  6675     0BC0  083A               	movf	?i1___flmul,w
  6676     0BC1  00D8               	movwf	i1___fladd@a
  6677     0BC2  3040               	movlw	64
  6678     0BC3  00D7               	movwf	i1___fladd@b+3
  6679     0BC4  30C0               	movlw	192
  6680     0BC5  00D6               	movwf	i1___fladd@b+2
  6681     0BC6  3000               	movlw	0
  6682     0BC7  00D5               	movwf	i1___fladd@b+1
  6683     0BC8  3000               	movlw	0
  6684     0BC9  00D4               	movwf	i1___fladd@b
  6685     0BCA  160A  118A  2350  120A  158A  	fcall	i1___fladd
  6686     0BCF  1283               	bcf	3,5	;RP0=0, select bank0
  6687     0BD0  1303               	bcf	3,6	;RP1=0, select bank0
  6688     0BD1  0857               	movf	?i1___fladd+3,w
  6689     0BD2  00EB               	movwf	i1___fltol@f1+3
  6690     0BD3  0856               	movf	?i1___fladd+2,w
  6691     0BD4  00EA               	movwf	i1___fltol@f1+2
  6692     0BD5  0855               	movf	?i1___fladd+1,w
  6693     0BD6  00E9               	movwf	i1___fltol@f1+1
  6694     0BD7  0854               	movf	?i1___fladd,w
  6695     0BD8  00E8               	movwf	i1___fltol@f1
  6696     0BD9  120A  158A  2006  120A  158A  	fcall	i1___fltol
  6697     0BDE  1283               	bcf	3,5	;RP0=0, select bank0
  6698     0BDF  1303               	bcf	3,6	;RP1=0, select bank0
  6699     0BE0  0868               	movf	?i1___fltol,w
  6700     0BE1  1283               	bcf	3,5	;RP0=0, select bank2
  6701     0BE2  1703               	bsf	3,6	;RP1=1, select bank2
  6702     0BE3  00B7               	movwf	_ang2^(0+256)
  6703                           
  6704                           ;Progra_IRONMAN.c: 151:             }
  6705     0BE4  2CC5               	goto	i1l3979
  6706     0BE5                     i1l3969:
  6707     0BE5  1283               	bcf	3,5	;RP0=0, select bank0
  6708     0BE6  1303               	bcf	3,6	;RP1=0, select bank0
  6709     0BE7  0C1F               	rrf	31,w	;volatile
  6710     0BE8  1683               	bsf	3,5	;RP0=1, select bank1
  6711     0BE9  1303               	bcf	3,6	;RP1=0, select bank1
  6712     0BEA  00B9               	movwf	??_isr^(0+128)
  6713     0BEB  0C39               	rrf	??_isr^(0+128),w
  6714     0BEC  390F               	andlw	15
  6715     0BED  3A03               	xorlw	3
  6716     0BEE  1D03               	skipz
  6717     0BEF  2BF1               	goto	u651_21
  6718     0BF0  2BF2               	goto	u651_20
  6719     0BF1                     u651_21:
  6720     0BF1  2CA7               	goto	i1l166
  6721     0BF2                     u651_20:
  6722     0BF2                     i1l3971:
  6723                           
  6724                           ;Progra_IRONMAN.c: 154:                 valorPot2 = 0.9*ADRESH;
  6725     0BF2  1283               	bcf	3,5	;RP0=0, select bank0
  6726     0BF3  1303               	bcf	3,6	;RP1=0, select bank0
  6727     0BF4  081E               	movf	30,w	;volatile
  6728     0BF5  1683               	bsf	3,5	;RP0=1, select bank1
  6729     0BF6  1303               	bcf	3,6	;RP1=0, select bank1
  6730     0BF7  00B9               	movwf	??_isr^(0+128)
  6731     0BF8  01BA               	clrf	(??_isr^(0+128)+1)
  6732     0BF9  01BB               	clrf	(??_isr^(0+128)+2)
  6733     0BFA  01BC               	clrf	(??_isr^(0+128)+3)
  6734     0BFB  083C               	movf	(??_isr+3)^(0+128),w
  6735     0BFC  00F3               	movwf	i1___xxtofl@val+3
  6736     0BFD  083B               	movf	(??_isr+2)^(0+128),w
  6737     0BFE  00F2               	movwf	i1___xxtofl@val+2
  6738     0BFF  083A               	movf	(??_isr+1)^(0+128),w
  6739     0C00  00F1               	movwf	i1___xxtofl@val+1
  6740     0C01  0839               	movf	??_isr^(0+128),w
  6741     0C02  00F0               	movwf	i1___xxtofl@val
  6742     0C03  3001               	movlw	1
  6743     0C04  160A  118A  200B  120A  158A  	fcall	i1___xxtofl
  6744     0C09  0873               	movf	?i1___xxtofl+3,w
  6745     0C0A  1283               	bcf	3,5	;RP0=0, select bank0
  6746     0C0B  1303               	bcf	3,6	;RP1=0, select bank0
  6747     0C0C  00C1               	movwf	i1___flmul@a+3
  6748     0C0D  0872               	movf	?i1___xxtofl+2,w
  6749     0C0E  00C0               	movwf	i1___flmul@a+2
  6750     0C0F  0871               	movf	?i1___xxtofl+1,w
  6751     0C10  00BF               	movwf	i1___flmul@a+1
  6752     0C11  0870               	movf	?i1___xxtofl,w
  6753     0C12  00BE               	movwf	i1___flmul@a
  6754     0C13  303F               	movlw	63
  6755     0C14  00BD               	movwf	i1___flmul@b+3
  6756     0C15  3066               	movlw	102
  6757     0C16  00BC               	movwf	i1___flmul@b+2
  6758     0C17  3066               	movlw	102
  6759     0C18  00BB               	movwf	i1___flmul@b+1
  6760     0C19  3066               	movlw	102
  6761     0C1A  00BA               	movwf	i1___flmul@b
  6762     0C1B  120A  118A  2384  120A  158A  	fcall	i1___flmul
  6763     0C20  1283               	bcf	3,5	;RP0=0, select bank0
  6764     0C21  1303               	bcf	3,6	;RP1=0, select bank0
  6765     0C22  083D               	movf	?i1___flmul+3,w
  6766     0C23  00EB               	movwf	i1___fltol@f1+3
  6767     0C24  083C               	movf	?i1___flmul+2,w
  6768     0C25  00EA               	movwf	i1___fltol@f1+2
  6769     0C26  083B               	movf	?i1___flmul+1,w
  6770     0C27  00E9               	movwf	i1___fltol@f1+1
  6771     0C28  083A               	movf	?i1___flmul,w
  6772     0C29  00E8               	movwf	i1___fltol@f1
  6773     0C2A  120A  158A  2006  120A  158A  	fcall	i1___fltol
  6774     0C2F  1283               	bcf	3,5	;RP0=0, select bank0
  6775     0C30  1303               	bcf	3,6	;RP1=0, select bank0
  6776     0C31  0869               	movf	?i1___fltol+1,w
  6777     0C32  1683               	bsf	3,5	;RP0=1, select bank1
  6778     0C33  1303               	bcf	3,6	;RP1=0, select bank1
  6779     0C34  00CE               	movwf	(_valorPot2+1)^(0+128)
  6780     0C35  1283               	bcf	3,5	;RP0=0, select bank0
  6781     0C36  1303               	bcf	3,6	;RP1=0, select bank0
  6782     0C37  0868               	movf	?i1___fltol,w
  6783     0C38  1683               	bsf	3,5	;RP0=1, select bank1
  6784     0C39  1303               	bcf	3,6	;RP1=0, select bank1
  6785     0C3A  00CD               	movwf	_valorPot2^(0+128)
  6786                           
  6787                           ;Progra_IRONMAN.c: 155:                 PWM_duty(2, 0.00025f*((ADRESH)/255.0f));
  6788     0C3B  3039               	movlw	57
  6789     0C3C  1283               	bcf	3,5	;RP0=0, select bank0
  6790     0C3D  1303               	bcf	3,6	;RP1=0, select bank0
  6791     0C3E  00BD               	movwf	i1___flmul@b+3
  6792     0C3F  3083               	movlw	131
  6793     0C40  00BC               	movwf	i1___flmul@b+2
  6794     0C41  3012               	movlw	18
  6795     0C42  00BB               	movwf	i1___flmul@b+1
  6796     0C43  306F               	movlw	111
  6797     0C44  00BA               	movwf	i1___flmul@b
  6798     0C45  3043               	movlw	67
  6799     0C46  00A3               	movwf	i1___fldiv@a+3
  6800     0C47  307F               	movlw	127
  6801     0C48  00A2               	movwf	i1___fldiv@a+2
  6802     0C49  3000               	movlw	0
  6803     0C4A  00A1               	movwf	i1___fldiv@a+1
  6804     0C4B  3000               	movlw	0
  6805     0C4C  00A0               	movwf	i1___fldiv@a
  6806     0C4D  081E               	movf	30,w	;volatile
  6807     0C4E  1683               	bsf	3,5	;RP0=1, select bank1
  6808     0C4F  1303               	bcf	3,6	;RP1=0, select bank1
  6809     0C50  00B9               	movwf	??_isr^(0+128)
  6810     0C51  01BA               	clrf	(??_isr^(0+128)+1)
  6811     0C52  01BB               	clrf	(??_isr^(0+128)+2)
  6812     0C53  01BC               	clrf	(??_isr^(0+128)+3)
  6813     0C54  083C               	movf	(??_isr+3)^(0+128),w
  6814     0C55  00F3               	movwf	i1___xxtofl@val+3
  6815     0C56  083B               	movf	(??_isr+2)^(0+128),w
  6816     0C57  00F2               	movwf	i1___xxtofl@val+2
  6817     0C58  083A               	movf	(??_isr+1)^(0+128),w
  6818     0C59  00F1               	movwf	i1___xxtofl@val+1
  6819     0C5A  0839               	movf	??_isr^(0+128),w
  6820     0C5B  00F0               	movwf	i1___xxtofl@val
  6821     0C5C  3001               	movlw	1
  6822     0C5D  160A  118A  200B  120A  158A  	fcall	i1___xxtofl
  6823     0C62  0873               	movf	?i1___xxtofl+3,w
  6824     0C63  1283               	bcf	3,5	;RP0=0, select bank0
  6825     0C64  1303               	bcf	3,6	;RP1=0, select bank0
  6826     0C65  00A7               	movwf	i1___fldiv@b+3
  6827     0C66  0872               	movf	?i1___xxtofl+2,w
  6828     0C67  00A6               	movwf	i1___fldiv@b+2
  6829     0C68  0871               	movf	?i1___xxtofl+1,w
  6830     0C69  00A5               	movwf	i1___fldiv@b+1
  6831     0C6A  0870               	movf	?i1___xxtofl,w
  6832     0C6B  00A4               	movwf	i1___fldiv@b
  6833     0C6C  160A  158A  262D  120A  158A  	fcall	i1___fldiv
  6834     0C71  1283               	bcf	3,5	;RP0=0, select bank0
  6835     0C72  1303               	bcf	3,6	;RP1=0, select bank0
  6836     0C73  0823               	movf	?i1___fldiv+3,w
  6837     0C74  00C1               	movwf	i1___flmul@a+3
  6838     0C75  0822               	movf	?i1___fldiv+2,w
  6839     0C76  00C0               	movwf	i1___flmul@a+2
  6840     0C77  0821               	movf	?i1___fldiv+1,w
  6841     0C78  00BF               	movwf	i1___flmul@a+1
  6842     0C79  0820               	movf	?i1___fldiv,w
  6843     0C7A  00BE               	movwf	i1___flmul@a
  6844     0C7B  120A  118A  2384  120A  158A  	fcall	i1___flmul
  6845     0C80  1283               	bcf	3,5	;RP0=0, select bank0
  6846     0C81  1303               	bcf	3,6	;RP1=0, select bank0
  6847     0C82  083D               	movf	?i1___flmul+3,w
  6848     0C83  1683               	bsf	3,5	;RP0=1, select bank1
  6849     0C84  1303               	bcf	3,6	;RP1=0, select bank1
  6850     0C85  00C4               	movwf	(_isr$1433+3)^(0+128)
  6851     0C86  1283               	bcf	3,5	;RP0=0, select bank0
  6852     0C87  1303               	bcf	3,6	;RP1=0, select bank0
  6853     0C88  083C               	movf	?i1___flmul+2,w
  6854     0C89  1683               	bsf	3,5	;RP0=1, select bank1
  6855     0C8A  1303               	bcf	3,6	;RP1=0, select bank1
  6856     0C8B  00C3               	movwf	(_isr$1433+2)^(0+128)
  6857     0C8C  1283               	bcf	3,5	;RP0=0, select bank0
  6858     0C8D  1303               	bcf	3,6	;RP1=0, select bank0
  6859     0C8E  083B               	movf	?i1___flmul+1,w
  6860     0C8F  1683               	bsf	3,5	;RP0=1, select bank1
  6861     0C90  1303               	bcf	3,6	;RP1=0, select bank1
  6862     0C91  00C2               	movwf	(_isr$1433+1)^(0+128)
  6863     0C92  1283               	bcf	3,5	;RP0=0, select bank0
  6864     0C93  1303               	bcf	3,6	;RP1=0, select bank0
  6865     0C94  083A               	movf	?i1___flmul,w
  6866     0C95  1683               	bsf	3,5	;RP0=1, select bank1
  6867     0C96  1303               	bcf	3,6	;RP1=0, select bank1
  6868     0C97  00C1               	movwf	_isr$1433^(0+128)
  6869                           
  6870                           ;Progra_IRONMAN.c: 155:                 PWM_duty(2, 0.00025f*((ADRESH)/255.0f));
  6871     0C98  0844               	movf	(_isr$1433+3)^(0+128),w
  6872     0C99  00A5               	movwf	(i1PWM_duty@duty+3)^(0+128)
  6873     0C9A  0843               	movf	(_isr$1433+2)^(0+128),w
  6874     0C9B  00A4               	movwf	(i1PWM_duty@duty+2)^(0+128)
  6875     0C9C  0842               	movf	(_isr$1433+1)^(0+128),w
  6876     0C9D  00A3               	movwf	(i1PWM_duty@duty+1)^(0+128)
  6877     0C9E  0841               	movf	_isr$1433^(0+128),w
  6878     0C9F  00A2               	movwf	i1PWM_duty@duty^(0+128)
  6879     0CA0  3002               	movlw	2
  6880     0CA1  120A  158A  2094  120A  158A  	fcall	i1_PWM_duty
  6881     0CA6  2CC5               	goto	i1l3979
  6882     0CA7                     i1l166:
  6883                           
  6884                           ;Progra_IRONMAN.c: 157:         }
  6885     0CA7  2CC5               	goto	i1l3979
  6886     0CA8                     i1l3973:
  6887     0CA8  0351               	decf	_modo^(0+128),w
  6888     0CA9  0452               	iorwf	(_modo+1)^(0+128),w
  6889     0CAA  1D03               	btfss	3,2
  6890     0CAB  2CAD               	goto	u652_21
  6891     0CAC  2CAE               	goto	u652_20
  6892     0CAD                     u652_21:
  6893     0CAD  2CC5               	goto	i1l3979
  6894     0CAE                     u652_20:
  6895     0CAE                     i1l3975:
  6896                           
  6897                           ;Progra_IRONMAN.c: 160:             if (ADCON0bits.CHS == 0b0100){
  6898     0CAE  1283               	bcf	3,5	;RP0=0, select bank0
  6899     0CAF  1303               	bcf	3,6	;RP1=0, select bank0
  6900     0CB0  0C1F               	rrf	31,w	;volatile
  6901     0CB1  1683               	bsf	3,5	;RP0=1, select bank1
  6902     0CB2  1303               	bcf	3,6	;RP1=0, select bank1
  6903     0CB3  00B9               	movwf	??_isr^(0+128)
  6904     0CB4  0C39               	rrf	??_isr^(0+128),w
  6905     0CB5  390F               	andlw	15
  6906     0CB6  3A04               	xorlw	4
  6907     0CB7  1D03               	skipz
  6908     0CB8  2CBA               	goto	u653_21
  6909     0CB9  2CBB               	goto	u653_20
  6910     0CBA                     u653_21:
  6911     0CBA  2CC5               	goto	i1l3979
  6912     0CBB                     u653_20:
  6913     0CBB                     i1l3977:
  6914                           
  6915                           ;Progra_IRONMAN.c: 161:                 potenciometro = ADRESH;
  6916     0CBB  1283               	bcf	3,5	;RP0=0, select bank0
  6917     0CBC  1303               	bcf	3,6	;RP1=0, select bank0
  6918     0CBD  081E               	movf	30,w	;volatile
  6919     0CBE  1683               	bsf	3,5	;RP0=1, select bank1
  6920     0CBF  1303               	bcf	3,6	;RP1=0, select bank1
  6921     0CC0  00D3               	movwf	_potenciometro^(0+128)
  6922                           
  6923                           ;Progra_IRONMAN.c: 162:                 PORTD = potenciometro;
  6924     0CC1  0853               	movf	_potenciometro^(0+128),w
  6925     0CC2  1283               	bcf	3,5	;RP0=0, select bank0
  6926     0CC3  1303               	bcf	3,6	;RP1=0, select bank0
  6927     0CC4  0088               	movwf	8	;volatile
  6928     0CC5                     i1l3979:
  6929                           
  6930                           ;Progra_IRONMAN.c: 166:         PIR1bits.ADIF = 0;
  6931     0CC5  1283               	bcf	3,5	;RP0=0, select bank0
  6932     0CC6  1303               	bcf	3,6	;RP1=0, select bank0
  6933     0CC7  130C               	bcf	12,6	;volatile
  6934     0CC8                     i1l175:
  6935     0CC8  1683               	bsf	3,5	;RP0=1, select bank1
  6936     0CC9  1303               	bcf	3,6	;RP1=0, select bank1
  6937     0CCA  0840               	movf	(??_isr+7)^(0+128),w
  6938     0CCB  00FF               	movwf	btemp+1
  6939     0CCC  083F               	movf	(??_isr+6)^(0+128),w
  6940     0CCD  008A               	movwf	10
  6941     0CCE  083E               	movf	(??_isr+5)^(0+128),w
  6942     0CCF  0084               	movwf	4
  6943     0CD0  0E3D               	swapf	(??_isr+4)^(0+128),w
  6944     0CD1  0083               	movwf	3
  6945     0CD2  0EFE               	swapf	btemp,f
  6946     0CD3  0E7E               	swapf	btemp,w
  6947     0CD4  0009               	retfie
  6948     0CD5                     __end_of_isr:
  6949                           
  6950                           	psect	intentry
  6951     0004                     __pintentry:	
  6952                           ;incstack = 0
  6953 ;; hardware stack exceeded
  6954                           ; Regs used in _isr: [wreg-fsr0h+status,2+status,0+btemp+1+pclath+cstack]
  6955                           
  6956     0004                     interrupt_function:
  6957     007E                     saved_w	set	btemp
  6958     0004  00FE               	movwf	btemp
  6959     0005  0E03               	swapf	3,w
  6960     0006  1683               	bsf	3,5	;RP0=1, select bank1
  6961     0007  1303               	bcf	3,6	;RP1=0, select bank1
  6962     0008  00BD               	movwf	(??_isr+4)^(0+128)
  6963     0009  0804               	movf	4,w
  6964     000A  00BE               	movwf	(??_isr+5)^(0+128)
  6965     000B  080A               	movf	10,w
  6966     000C  00BF               	movwf	(??_isr+6)^(0+128)
  6967     000D  087F               	movf	btemp+1,w
  6968     000E  00C0               	movwf	(??_isr+7)^(0+128)
  6969     000F  120A  158A  29C2   	ljmp	_isr
  6970                           
  6971                           	psect	text12
  6972     1960                     __ptext12:	
  6973 ;; *************** function _write_EEPROM *****************
  6974 ;; Defined at:
  6975 ;;		line 413 in file "Progra_IRONMAN.c"
  6976 ;; Parameters:    Size  Location     Type
  6977 ;;  address         1    wreg     unsigned char 
  6978 ;;  data            1    0[COMMON] unsigned char 
  6979 ;; Auto vars:     Size  Location     Type
  6980 ;;  address         1    1[COMMON] unsigned char 
  6981 ;;  gieStatus       1    2[COMMON] unsigned char 
  6982 ;; Return value:  Size  Location     Type
  6983 ;;                  1    wreg      void 
  6984 ;; Registers used:
  6985 ;;		wreg, status,2, status,0
  6986 ;; Tracked objects:
  6987 ;;		On entry : 0/0
  6988 ;;		On exit  : 0/0
  6989 ;;		Unchanged: 0/0
  6990 ;; Data sizes:     COMMON   BANK0   BANK1   BANK3   BANK2
  6991 ;;      Params:         1       0       0       0       0
  6992 ;;      Locals:         2       0       0       0       0
  6993 ;;      Temps:          0       0       0       0       0
  6994 ;;      Totals:         3       0       0       0       0
  6995 ;;Total ram usage:        3 bytes
  6996 ;; Hardware stack levels used: 1
  6997 ;; This function calls:
  6998 ;;		Nothing
  6999 ;; This function is called by:
  7000 ;;		_isr
  7001 ;; This function uses a non-reentrant model
  7002 ;;
  7003                           
  7004     1960                     _write_EEPROM:	
  7005                           ;psect for function _write_EEPROM
  7006                           
  7007                           
  7008                           ;incstack = 0
  7009                           ; Regs used in _write_EEPROM: [wreg+status,2+status,0]
  7010                           ;write_EEPROM@address stored from wreg
  7011     1960  00F1               	movwf	write_EEPROM@address
  7012     1961                     i1l3521:
  7013     1961                     i1l243:	
  7014                           ;Progra_IRONMAN.c: 414:     uint8_t gieStatus;;Progra_IRONMAN.c: 415:     while (WR);
  7015                           
  7016     1961  1683               	bsf	3,5	;RP0=1, select bank3
  7017     1962  1703               	bsf	3,6	;RP1=1, select bank3
  7018     1963  188C               	btfsc	12,1	;volsfr
  7019     1964  2966               	goto	u572_21
  7020     1965  2967               	goto	u572_20
  7021     1966                     u572_21:
  7022     1966  2961               	goto	i1l243
  7023     1967                     u572_20:
  7024     1967                     i1l3523:
  7025                           
  7026                           ;Progra_IRONMAN.c: 417:     EEADR = address;
  7027     1967  0871               	movf	write_EEPROM@address,w
  7028     1968  1283               	bcf	3,5	;RP0=0, select bank2
  7029     1969  1703               	bsf	3,6	;RP1=1, select bank2
  7030     196A  008D               	movwf	13	;volatile
  7031                           
  7032                           ;Progra_IRONMAN.c: 418:     EEDAT = data;
  7033     196B  0870               	movf	write_EEPROM@data,w
  7034     196C  008C               	movwf	12	;volatile
  7035     196D                     i1l3525:
  7036                           
  7037                           ;Progra_IRONMAN.c: 419:     EECON1bits.EEPGD = 0;
  7038     196D  1683               	bsf	3,5	;RP0=1, select bank3
  7039     196E  1703               	bsf	3,6	;RP1=1, select bank3
  7040     196F  138C               	bcf	12,7	;volsfr
  7041     1970                     i1l3527:
  7042                           
  7043                           ;Progra_IRONMAN.c: 420:     EECON1bits.WREN = 1;
  7044     1970  150C               	bsf	12,2	;volsfr
  7045     1971                     i1l3529:
  7046                           
  7047                           ;Progra_IRONMAN.c: 421:     gieStatus = GIE;
  7048     1971  3000               	movlw	0
  7049     1972  1B8B               	btfsc	11,7	;volatile
  7050     1973  3001               	movlw	1
  7051     1974  00F2               	movwf	write_EEPROM@gieStatus
  7052     1975                     i1l3531:
  7053                           
  7054                           ;Progra_IRONMAN.c: 422:     INTCONbits.GIE = 0;
  7055     1975  138B               	bcf	11,7	;volatile
  7056     1976                     i1l3533:
  7057                           
  7058                           ;Progra_IRONMAN.c: 423:     EECON2 = 0x55;
  7059     1976  3055               	movlw	85
  7060     1977  008D               	movwf	13	;volsfr
  7061     1978                     i1l3535:
  7062                           
  7063                           ;Progra_IRONMAN.c: 424:     EECON2 = 0xAA;
  7064     1978  30AA               	movlw	170
  7065     1979  008D               	movwf	13	;volsfr
  7066     197A                     i1l3537:
  7067                           
  7068                           ;Progra_IRONMAN.c: 425:     EECON1bits.WR = 1;
  7069     197A  148C               	bsf	12,1	;volsfr
  7070     197B                     i1l3539:
  7071                           
  7072                           ;Progra_IRONMAN.c: 426:     EECON1bits.WREN = 0;
  7073     197B  110C               	bcf	12,2	;volsfr
  7074     197C                     i1l3541:
  7075                           
  7076                           ;Progra_IRONMAN.c: 428:     INTCONbits.GIE = gieStatus;
  7077     197C  0C72               	rrf	write_EEPROM@gieStatus,w
  7078     197D  1C03               	skipc
  7079     197E  138B               	bcf	11,7	;volatile
  7080     197F  1803               	skipnc
  7081     1980  178B               	bsf	11,7	;volatile
  7082     1981                     i1l246:
  7083     1981  0008               	return
  7084     1982                     __end_of_write_EEPROM:
  7085                           
  7086                           	psect	text13
  7087     1C5C                     __ptext13:	
  7088 ;; *************** function _servos *****************
  7089 ;; Defined at:
  7090 ;;		line 199 in file "Progra_IRONMAN.c"
  7091 ;; Parameters:    Size  Location     Type
  7092 ;;  dato            1    wreg     unsigned char 
  7093 ;;  modo            2   14[BANK1 ] int 
  7094 ;; Auto vars:     Size  Location     Type
  7095 ;;  dato            1   24[BANK1 ] unsigned char 
  7096 ;; Return value:  Size  Location     Type
  7097 ;;                  1    wreg      void 
  7098 ;; Registers used:
  7099 ;;		wreg, status,2, status,0, btemp+1, pclath, cstack
  7100 ;; Tracked objects:
  7101 ;;		On entry : 0/0
  7102 ;;		On exit  : 0/0
  7103 ;;		Unchanged: 0/0
  7104 ;; Data sizes:     COMMON   BANK0   BANK1   BANK3   BANK2
  7105 ;;      Params:         0       0       2       0       0
  7106 ;;      Locals:         0       0       5       0       0
  7107 ;;      Temps:          0       0       4       0       0
  7108 ;;      Totals:         0       0      11       0       0
  7109 ;;Total ram usage:       11 bytes
  7110 ;; Hardware stack levels used: 1
  7111 ;; Hardware stack levels required when called: 3
  7112 ;; This function calls:
  7113 ;;		i1_PWM_duty
  7114 ;;		i1___fladd
  7115 ;;		i1___fldiv
  7116 ;;		i1___flmul
  7117 ;;		i1___fltol
  7118 ;;		i1___xxtofl
  7119 ;; This function is called by:
  7120 ;;		_isr
  7121 ;; This function uses a non-reentrant model
  7122 ;;
  7123                           
  7124     1C5C                     _servos:	
  7125                           ;psect for function _servos
  7126                           
  7127                           
  7128                           ;incstack = 0
  7129 ;; hardware stack exceeded
  7130                           ; Regs used in _servos: [wreg+status,2+status,0+btemp+1+pclath+cstack]
  7131                           ;servos@dato stored from wreg
  7132     1C5C  1683               	bsf	3,5	;RP0=1, select bank1
  7133     1C5D  1303               	bcf	3,6	;RP1=0, select bank1
  7134     1C5E  00B8               	movwf	servos@dato^(0+128)
  7135     1C5F                     i1l3555:
  7136                           
  7137                           ;Progra_IRONMAN.c: 200:     if(modo == 1){
  7138     1C5F  032E               	decf	servos@modo^(0+128),w
  7139     1C60  042F               	iorwf	(servos@modo+1)^(0+128),w
  7140     1C61  1D03               	btfss	3,2
  7141     1C62  2C64               	goto	u575_21
  7142     1C63  2C65               	goto	u575_20
  7143     1C64                     u575_21:
  7144     1C64  2E2C               	goto	i1l189
  7145     1C65                     u575_20:
  7146     1C65                     i1l3557:
  7147                           
  7148                           ;Progra_IRONMAN.c: 202:         ang1 = ((dato*0.047)+6);
  7149     1C65  0838               	movf	servos@dato^(0+128),w
  7150     1C66  00B0               	movwf	??_servos^(0+128)
  7151     1C67  01B1               	clrf	(??_servos^(0+128)+1)
  7152     1C68  01B2               	clrf	(??_servos^(0+128)+2)
  7153     1C69  01B3               	clrf	(??_servos^(0+128)+3)
  7154     1C6A  0833               	movf	(??_servos+3)^(0+128),w
  7155     1C6B  00F3               	movwf	i1___xxtofl@val+3
  7156     1C6C  0832               	movf	(??_servos+2)^(0+128),w
  7157     1C6D  00F2               	movwf	i1___xxtofl@val+2
  7158     1C6E  0831               	movf	(??_servos+1)^(0+128),w
  7159     1C6F  00F1               	movwf	i1___xxtofl@val+1
  7160     1C70  0830               	movf	??_servos^(0+128),w
  7161     1C71  00F0               	movwf	i1___xxtofl@val
  7162     1C72  3001               	movlw	1
  7163     1C73  160A  118A  200B  160A  158A  	fcall	i1___xxtofl
  7164     1C78  0873               	movf	?i1___xxtofl+3,w
  7165     1C79  1283               	bcf	3,5	;RP0=0, select bank0
  7166     1C7A  1303               	bcf	3,6	;RP1=0, select bank0
  7167     1C7B  00C1               	movwf	i1___flmul@a+3
  7168     1C7C  0872               	movf	?i1___xxtofl+2,w
  7169     1C7D  00C0               	movwf	i1___flmul@a+2
  7170     1C7E  0871               	movf	?i1___xxtofl+1,w
  7171     1C7F  00BF               	movwf	i1___flmul@a+1
  7172     1C80  0870               	movf	?i1___xxtofl,w
  7173     1C81  00BE               	movwf	i1___flmul@a
  7174     1C82  303D               	movlw	61
  7175     1C83  00BD               	movwf	i1___flmul@b+3
  7176     1C84  3040               	movlw	64
  7177     1C85  00BC               	movwf	i1___flmul@b+2
  7178     1C86  3083               	movlw	131
  7179     1C87  00BB               	movwf	i1___flmul@b+1
  7180     1C88  3012               	movlw	18
  7181     1C89  00BA               	movwf	i1___flmul@b
  7182     1C8A  120A  118A  2384  160A  158A  	fcall	i1___flmul
  7183     1C8F  1283               	bcf	3,5	;RP0=0, select bank0
  7184     1C90  1303               	bcf	3,6	;RP1=0, select bank0
  7185     1C91  083D               	movf	?i1___flmul+3,w
  7186     1C92  00DB               	movwf	i1___fladd@a+3
  7187     1C93  083C               	movf	?i1___flmul+2,w
  7188     1C94  00DA               	movwf	i1___fladd@a+2
  7189     1C95  083B               	movf	?i1___flmul+1,w
  7190     1C96  00D9               	movwf	i1___fladd@a+1
  7191     1C97  083A               	movf	?i1___flmul,w
  7192     1C98  00D8               	movwf	i1___fladd@a
  7193     1C99  3040               	movlw	64
  7194     1C9A  00D7               	movwf	i1___fladd@b+3
  7195     1C9B  30C0               	movlw	192
  7196     1C9C  00D6               	movwf	i1___fladd@b+2
  7197     1C9D  3000               	movlw	0
  7198     1C9E  00D5               	movwf	i1___fladd@b+1
  7199     1C9F  3000               	movlw	0
  7200     1CA0  00D4               	movwf	i1___fladd@b
  7201     1CA1  160A  118A  2350  160A  158A  	fcall	i1___fladd
  7202     1CA6  1283               	bcf	3,5	;RP0=0, select bank0
  7203     1CA7  1303               	bcf	3,6	;RP1=0, select bank0
  7204     1CA8  0857               	movf	?i1___fladd+3,w
  7205     1CA9  00EB               	movwf	i1___fltol@f1+3
  7206     1CAA  0856               	movf	?i1___fladd+2,w
  7207     1CAB  00EA               	movwf	i1___fltol@f1+2
  7208     1CAC  0855               	movf	?i1___fladd+1,w
  7209     1CAD  00E9               	movwf	i1___fltol@f1+1
  7210     1CAE  0854               	movf	?i1___fladd,w
  7211     1CAF  00E8               	movwf	i1___fltol@f1
  7212     1CB0  120A  158A  2006  160A  158A  	fcall	i1___fltol
  7213     1CB5  1283               	bcf	3,5	;RP0=0, select bank0
  7214     1CB6  1303               	bcf	3,6	;RP1=0, select bank0
  7215     1CB7  0868               	movf	?i1___fltol,w
  7216     1CB8  1283               	bcf	3,5	;RP0=0, select bank2
  7217     1CB9  1703               	bsf	3,6	;RP1=1, select bank2
  7218     1CBA  00B8               	movwf	_ang1^(0+256)
  7219                           
  7220                           ;Progra_IRONMAN.c: 205:         ang2 = ((dato*0.047)+6);
  7221     1CBB  1683               	bsf	3,5	;RP0=1, select bank1
  7222     1CBC  1303               	bcf	3,6	;RP1=0, select bank1
  7223     1CBD  0838               	movf	servos@dato^(0+128),w
  7224     1CBE  00B0               	movwf	??_servos^(0+128)
  7225     1CBF  01B1               	clrf	(??_servos^(0+128)+1)
  7226     1CC0  01B2               	clrf	(??_servos^(0+128)+2)
  7227     1CC1  01B3               	clrf	(??_servos^(0+128)+3)
  7228     1CC2  0833               	movf	(??_servos+3)^(0+128),w
  7229     1CC3  00F3               	movwf	i1___xxtofl@val+3
  7230     1CC4  0832               	movf	(??_servos+2)^(0+128),w
  7231     1CC5  00F2               	movwf	i1___xxtofl@val+2
  7232     1CC6  0831               	movf	(??_servos+1)^(0+128),w
  7233     1CC7  00F1               	movwf	i1___xxtofl@val+1
  7234     1CC8  0830               	movf	??_servos^(0+128),w
  7235     1CC9  00F0               	movwf	i1___xxtofl@val
  7236     1CCA  3001               	movlw	1
  7237     1CCB  160A  118A  200B  160A  158A  	fcall	i1___xxtofl
  7238     1CD0  0873               	movf	?i1___xxtofl+3,w
  7239     1CD1  1283               	bcf	3,5	;RP0=0, select bank0
  7240     1CD2  1303               	bcf	3,6	;RP1=0, select bank0
  7241     1CD3  00C1               	movwf	i1___flmul@a+3
  7242     1CD4  0872               	movf	?i1___xxtofl+2,w
  7243     1CD5  00C0               	movwf	i1___flmul@a+2
  7244     1CD6  0871               	movf	?i1___xxtofl+1,w
  7245     1CD7  00BF               	movwf	i1___flmul@a+1
  7246     1CD8  0870               	movf	?i1___xxtofl,w
  7247     1CD9  00BE               	movwf	i1___flmul@a
  7248     1CDA  303D               	movlw	61
  7249     1CDB  00BD               	movwf	i1___flmul@b+3
  7250     1CDC  3040               	movlw	64
  7251     1CDD  00BC               	movwf	i1___flmul@b+2
  7252     1CDE  3083               	movlw	131
  7253     1CDF  00BB               	movwf	i1___flmul@b+1
  7254     1CE0  3012               	movlw	18
  7255     1CE1  00BA               	movwf	i1___flmul@b
  7256     1CE2  120A  118A  2384  160A  158A  	fcall	i1___flmul
  7257     1CE7  1283               	bcf	3,5	;RP0=0, select bank0
  7258     1CE8  1303               	bcf	3,6	;RP1=0, select bank0
  7259     1CE9  083D               	movf	?i1___flmul+3,w
  7260     1CEA  00DB               	movwf	i1___fladd@a+3
  7261     1CEB  083C               	movf	?i1___flmul+2,w
  7262     1CEC  00DA               	movwf	i1___fladd@a+2
  7263     1CED  083B               	movf	?i1___flmul+1,w
  7264     1CEE  00D9               	movwf	i1___fladd@a+1
  7265     1CEF  083A               	movf	?i1___flmul,w
  7266     1CF0  00D8               	movwf	i1___fladd@a
  7267     1CF1  3040               	movlw	64
  7268     1CF2  00D7               	movwf	i1___fladd@b+3
  7269     1CF3  30C0               	movlw	192
  7270     1CF4  00D6               	movwf	i1___fladd@b+2
  7271     1CF5  3000               	movlw	0
  7272     1CF6  00D5               	movwf	i1___fladd@b+1
  7273     1CF7  3000               	movlw	0
  7274     1CF8  00D4               	movwf	i1___fladd@b
  7275     1CF9  160A  118A  2350  160A  158A  	fcall	i1___fladd
  7276     1CFE  1283               	bcf	3,5	;RP0=0, select bank0
  7277     1CFF  1303               	bcf	3,6	;RP1=0, select bank0
  7278     1D00  0857               	movf	?i1___fladd+3,w
  7279     1D01  00EB               	movwf	i1___fltol@f1+3
  7280     1D02  0856               	movf	?i1___fladd+2,w
  7281     1D03  00EA               	movwf	i1___fltol@f1+2
  7282     1D04  0855               	movf	?i1___fladd+1,w
  7283     1D05  00E9               	movwf	i1___fltol@f1+1
  7284     1D06  0854               	movf	?i1___fladd,w
  7285     1D07  00E8               	movwf	i1___fltol@f1
  7286     1D08  120A  158A  2006  160A  158A  	fcall	i1___fltol
  7287     1D0D  1283               	bcf	3,5	;RP0=0, select bank0
  7288     1D0E  1303               	bcf	3,6	;RP1=0, select bank0
  7289     1D0F  0868               	movf	?i1___fltol,w
  7290     1D10  1283               	bcf	3,5	;RP0=0, select bank2
  7291     1D11  1703               	bsf	3,6	;RP1=1, select bank2
  7292     1D12  00B7               	movwf	_ang2^(0+256)
  7293                           
  7294                           ;Progra_IRONMAN.c: 208:         valorPot1 = 0.6*dato;
  7295     1D13  1683               	bsf	3,5	;RP0=1, select bank1
  7296     1D14  1303               	bcf	3,6	;RP1=0, select bank1
  7297     1D15  0838               	movf	servos@dato^(0+128),w
  7298     1D16  00B0               	movwf	??_servos^(0+128)
  7299     1D17  01B1               	clrf	(??_servos^(0+128)+1)
  7300     1D18  01B2               	clrf	(??_servos^(0+128)+2)
  7301     1D19  01B3               	clrf	(??_servos^(0+128)+3)
  7302     1D1A  0833               	movf	(??_servos+3)^(0+128),w
  7303     1D1B  00F3               	movwf	i1___xxtofl@val+3
  7304     1D1C  0832               	movf	(??_servos+2)^(0+128),w
  7305     1D1D  00F2               	movwf	i1___xxtofl@val+2
  7306     1D1E  0831               	movf	(??_servos+1)^(0+128),w
  7307     1D1F  00F1               	movwf	i1___xxtofl@val+1
  7308     1D20  0830               	movf	??_servos^(0+128),w
  7309     1D21  00F0               	movwf	i1___xxtofl@val
  7310     1D22  3001               	movlw	1
  7311     1D23  160A  118A  200B  160A  158A  	fcall	i1___xxtofl
  7312     1D28  0873               	movf	?i1___xxtofl+3,w
  7313     1D29  1283               	bcf	3,5	;RP0=0, select bank0
  7314     1D2A  1303               	bcf	3,6	;RP1=0, select bank0
  7315     1D2B  00C1               	movwf	i1___flmul@a+3
  7316     1D2C  0872               	movf	?i1___xxtofl+2,w
  7317     1D2D  00C0               	movwf	i1___flmul@a+2
  7318     1D2E  0871               	movf	?i1___xxtofl+1,w
  7319     1D2F  00BF               	movwf	i1___flmul@a+1
  7320     1D30  0870               	movf	?i1___xxtofl,w
  7321     1D31  00BE               	movwf	i1___flmul@a
  7322     1D32  303F               	movlw	63
  7323     1D33  00BD               	movwf	i1___flmul@b+3
  7324     1D34  3019               	movlw	25
  7325     1D35  00BC               	movwf	i1___flmul@b+2
  7326     1D36  3099               	movlw	153
  7327     1D37  00BB               	movwf	i1___flmul@b+1
  7328     1D38  309A               	movlw	154
  7329     1D39  00BA               	movwf	i1___flmul@b
  7330     1D3A  120A  118A  2384  160A  158A  	fcall	i1___flmul
  7331     1D3F  1283               	bcf	3,5	;RP0=0, select bank0
  7332     1D40  1303               	bcf	3,6	;RP1=0, select bank0
  7333     1D41  083D               	movf	?i1___flmul+3,w
  7334     1D42  00EB               	movwf	i1___fltol@f1+3
  7335     1D43  083C               	movf	?i1___flmul+2,w
  7336     1D44  00EA               	movwf	i1___fltol@f1+2
  7337     1D45  083B               	movf	?i1___flmul+1,w
  7338     1D46  00E9               	movwf	i1___fltol@f1+1
  7339     1D47  083A               	movf	?i1___flmul,w
  7340     1D48  00E8               	movwf	i1___fltol@f1
  7341     1D49  120A  158A  2006  160A  158A  	fcall	i1___fltol
  7342     1D4E  1283               	bcf	3,5	;RP0=0, select bank0
  7343     1D4F  1303               	bcf	3,6	;RP1=0, select bank0
  7344     1D50  0869               	movf	?i1___fltol+1,w
  7345     1D51  1683               	bsf	3,5	;RP0=1, select bank1
  7346     1D52  1303               	bcf	3,6	;RP1=0, select bank1
  7347     1D53  00D0               	movwf	(_valorPot1+1)^(0+128)
  7348     1D54  1283               	bcf	3,5	;RP0=0, select bank0
  7349     1D55  1303               	bcf	3,6	;RP1=0, select bank0
  7350     1D56  0868               	movf	?i1___fltol,w
  7351     1D57  1683               	bsf	3,5	;RP0=1, select bank1
  7352     1D58  1303               	bcf	3,6	;RP1=0, select bank1
  7353     1D59  00CF               	movwf	_valorPot1^(0+128)
  7354                           
  7355                           ;Progra_IRONMAN.c: 209:         PWM_duty(1, 0.00025f*((valorPot1)/255.0f));
  7356     1D5A  3039               	movlw	57
  7357     1D5B  1283               	bcf	3,5	;RP0=0, select bank0
  7358     1D5C  1303               	bcf	3,6	;RP1=0, select bank0
  7359     1D5D  00BD               	movwf	i1___flmul@b+3
  7360     1D5E  3083               	movlw	131
  7361     1D5F  00BC               	movwf	i1___flmul@b+2
  7362     1D60  3012               	movlw	18
  7363     1D61  00BB               	movwf	i1___flmul@b+1
  7364     1D62  306F               	movlw	111
  7365     1D63  00BA               	movwf	i1___flmul@b
  7366     1D64  3043               	movlw	67
  7367     1D65  00A3               	movwf	i1___fldiv@a+3
  7368     1D66  307F               	movlw	127
  7369     1D67  00A2               	movwf	i1___fldiv@a+2
  7370     1D68  3000               	movlw	0
  7371     1D69  00A1               	movwf	i1___fldiv@a+1
  7372     1D6A  3000               	movlw	0
  7373     1D6B  00A0               	movwf	i1___fldiv@a
  7374     1D6C  1683               	bsf	3,5	;RP0=1, select bank1
  7375     1D6D  1303               	bcf	3,6	;RP1=0, select bank1
  7376     1D6E  084F               	movf	_valorPot1^(0+128),w
  7377     1D6F  00F0               	movwf	i1___xxtofl@val
  7378     1D70  0850               	movf	(_valorPot1+1)^(0+128),w
  7379     1D71  00F1               	movwf	i1___xxtofl@val+1
  7380     1D72  3000               	movlw	0
  7381     1D73  1BF1               	btfsc	i1___xxtofl@val+1,7
  7382     1D74  30FF               	movlw	255
  7383     1D75  00F2               	movwf	i1___xxtofl@val+2
  7384     1D76  00F3               	movwf	i1___xxtofl@val+3
  7385     1D77  3001               	movlw	1
  7386     1D78  160A  118A  200B  160A  158A  	fcall	i1___xxtofl
  7387     1D7D  0873               	movf	?i1___xxtofl+3,w
  7388     1D7E  1283               	bcf	3,5	;RP0=0, select bank0
  7389     1D7F  1303               	bcf	3,6	;RP1=0, select bank0
  7390     1D80  00A7               	movwf	i1___fldiv@b+3
  7391     1D81  0872               	movf	?i1___xxtofl+2,w
  7392     1D82  00A6               	movwf	i1___fldiv@b+2
  7393     1D83  0871               	movf	?i1___xxtofl+1,w
  7394     1D84  00A5               	movwf	i1___fldiv@b+1
  7395     1D85  0870               	movf	?i1___xxtofl,w
  7396     1D86  00A4               	movwf	i1___fldiv@b
  7397     1D87  160A  158A  262D  160A  158A  	fcall	i1___fldiv
  7398     1D8C  1283               	bcf	3,5	;RP0=0, select bank0
  7399     1D8D  1303               	bcf	3,6	;RP1=0, select bank0
  7400     1D8E  0823               	movf	?i1___fldiv+3,w
  7401     1D8F  00C1               	movwf	i1___flmul@a+3
  7402     1D90  0822               	movf	?i1___fldiv+2,w
  7403     1D91  00C0               	movwf	i1___flmul@a+2
  7404     1D92  0821               	movf	?i1___fldiv+1,w
  7405     1D93  00BF               	movwf	i1___flmul@a+1
  7406     1D94  0820               	movf	?i1___fldiv,w
  7407     1D95  00BE               	movwf	i1___flmul@a
  7408     1D96  120A  118A  2384  160A  158A  	fcall	i1___flmul
  7409     1D9B  1283               	bcf	3,5	;RP0=0, select bank0
  7410     1D9C  1303               	bcf	3,6	;RP1=0, select bank0
  7411     1D9D  083D               	movf	?i1___flmul+3,w
  7412     1D9E  1683               	bsf	3,5	;RP0=1, select bank1
  7413     1D9F  1303               	bcf	3,6	;RP1=0, select bank1
  7414     1DA0  00B7               	movwf	(_servos$1434+3)^(0+128)
  7415     1DA1  1283               	bcf	3,5	;RP0=0, select bank0
  7416     1DA2  1303               	bcf	3,6	;RP1=0, select bank0
  7417     1DA3  083C               	movf	?i1___flmul+2,w
  7418     1DA4  1683               	bsf	3,5	;RP0=1, select bank1
  7419     1DA5  1303               	bcf	3,6	;RP1=0, select bank1
  7420     1DA6  00B6               	movwf	(_servos$1434+2)^(0+128)
  7421     1DA7  1283               	bcf	3,5	;RP0=0, select bank0
  7422     1DA8  1303               	bcf	3,6	;RP1=0, select bank0
  7423     1DA9  083B               	movf	?i1___flmul+1,w
  7424     1DAA  1683               	bsf	3,5	;RP0=1, select bank1
  7425     1DAB  1303               	bcf	3,6	;RP1=0, select bank1
  7426     1DAC  00B5               	movwf	(_servos$1434+1)^(0+128)
  7427     1DAD  1283               	bcf	3,5	;RP0=0, select bank0
  7428     1DAE  1303               	bcf	3,6	;RP1=0, select bank0
  7429     1DAF  083A               	movf	?i1___flmul,w
  7430     1DB0  1683               	bsf	3,5	;RP0=1, select bank1
  7431     1DB1  1303               	bcf	3,6	;RP1=0, select bank1
  7432     1DB2  00B4               	movwf	_servos$1434^(0+128)
  7433                           
  7434                           ;Progra_IRONMAN.c: 209:         PWM_duty(1, 0.00025f*((valorPot1)/255.0f));
  7435     1DB3  0837               	movf	(_servos$1434+3)^(0+128),w
  7436     1DB4  00A5               	movwf	(i1PWM_duty@duty+3)^(0+128)
  7437     1DB5  0836               	movf	(_servos$1434+2)^(0+128),w
  7438     1DB6  00A4               	movwf	(i1PWM_duty@duty+2)^(0+128)
  7439     1DB7  0835               	movf	(_servos$1434+1)^(0+128),w
  7440     1DB8  00A3               	movwf	(i1PWM_duty@duty+1)^(0+128)
  7441     1DB9  0834               	movf	_servos$1434^(0+128),w
  7442     1DBA  00A2               	movwf	i1PWM_duty@duty^(0+128)
  7443     1DBB  3001               	movlw	1
  7444     1DBC  120A  158A  2094  160A  158A  	fcall	i1_PWM_duty
  7445                           
  7446                           ;Progra_IRONMAN.c: 213:         PWM_duty(2, 0.00025f*((dato)/255.0f));
  7447     1DC1  3039               	movlw	57
  7448     1DC2  1283               	bcf	3,5	;RP0=0, select bank0
  7449     1DC3  1303               	bcf	3,6	;RP1=0, select bank0
  7450     1DC4  00BD               	movwf	i1___flmul@b+3
  7451     1DC5  3083               	movlw	131
  7452     1DC6  00BC               	movwf	i1___flmul@b+2
  7453     1DC7  3012               	movlw	18
  7454     1DC8  00BB               	movwf	i1___flmul@b+1
  7455     1DC9  306F               	movlw	111
  7456     1DCA  00BA               	movwf	i1___flmul@b
  7457     1DCB  3043               	movlw	67
  7458     1DCC  00A3               	movwf	i1___fldiv@a+3
  7459     1DCD  307F               	movlw	127
  7460     1DCE  00A2               	movwf	i1___fldiv@a+2
  7461     1DCF  3000               	movlw	0
  7462     1DD0  00A1               	movwf	i1___fldiv@a+1
  7463     1DD1  3000               	movlw	0
  7464     1DD2  00A0               	movwf	i1___fldiv@a
  7465     1DD3  1683               	bsf	3,5	;RP0=1, select bank1
  7466     1DD4  1303               	bcf	3,6	;RP1=0, select bank1
  7467     1DD5  0838               	movf	servos@dato^(0+128),w
  7468     1DD6  00B0               	movwf	??_servos^(0+128)
  7469     1DD7  01B1               	clrf	(??_servos^(0+128)+1)
  7470     1DD8  01B2               	clrf	(??_servos^(0+128)+2)
  7471     1DD9  01B3               	clrf	(??_servos^(0+128)+3)
  7472     1DDA  0833               	movf	(??_servos+3)^(0+128),w
  7473     1DDB  00F3               	movwf	i1___xxtofl@val+3
  7474     1DDC  0832               	movf	(??_servos+2)^(0+128),w
  7475     1DDD  00F2               	movwf	i1___xxtofl@val+2
  7476     1DDE  0831               	movf	(??_servos+1)^(0+128),w
  7477     1DDF  00F1               	movwf	i1___xxtofl@val+1
  7478     1DE0  0830               	movf	??_servos^(0+128),w
  7479     1DE1  00F0               	movwf	i1___xxtofl@val
  7480     1DE2  3001               	movlw	1
  7481     1DE3  160A  118A  200B  160A  158A  	fcall	i1___xxtofl
  7482     1DE8  0873               	movf	?i1___xxtofl+3,w
  7483     1DE9  1283               	bcf	3,5	;RP0=0, select bank0
  7484     1DEA  1303               	bcf	3,6	;RP1=0, select bank0
  7485     1DEB  00A7               	movwf	i1___fldiv@b+3
  7486     1DEC  0872               	movf	?i1___xxtofl+2,w
  7487     1DED  00A6               	movwf	i1___fldiv@b+2
  7488     1DEE  0871               	movf	?i1___xxtofl+1,w
  7489     1DEF  00A5               	movwf	i1___fldiv@b+1
  7490     1DF0  0870               	movf	?i1___xxtofl,w
  7491     1DF1  00A4               	movwf	i1___fldiv@b
  7492     1DF2  160A  158A  262D  160A  158A  	fcall	i1___fldiv
  7493     1DF7  1283               	bcf	3,5	;RP0=0, select bank0
  7494     1DF8  1303               	bcf	3,6	;RP1=0, select bank0
  7495     1DF9  0823               	movf	?i1___fldiv+3,w
  7496     1DFA  00C1               	movwf	i1___flmul@a+3
  7497     1DFB  0822               	movf	?i1___fldiv+2,w
  7498     1DFC  00C0               	movwf	i1___flmul@a+2
  7499     1DFD  0821               	movf	?i1___fldiv+1,w
  7500     1DFE  00BF               	movwf	i1___flmul@a+1
  7501     1DFF  0820               	movf	?i1___fldiv,w
  7502     1E00  00BE               	movwf	i1___flmul@a
  7503     1E01  120A  118A  2384  160A  158A  	fcall	i1___flmul
  7504     1E06  1283               	bcf	3,5	;RP0=0, select bank0
  7505     1E07  1303               	bcf	3,6	;RP1=0, select bank0
  7506     1E08  083D               	movf	?i1___flmul+3,w
  7507     1E09  1683               	bsf	3,5	;RP0=1, select bank1
  7508     1E0A  1303               	bcf	3,6	;RP1=0, select bank1
  7509     1E0B  00B7               	movwf	(_servos$1434+3)^(0+128)
  7510     1E0C  1283               	bcf	3,5	;RP0=0, select bank0
  7511     1E0D  1303               	bcf	3,6	;RP1=0, select bank0
  7512     1E0E  083C               	movf	?i1___flmul+2,w
  7513     1E0F  1683               	bsf	3,5	;RP0=1, select bank1
  7514     1E10  1303               	bcf	3,6	;RP1=0, select bank1
  7515     1E11  00B6               	movwf	(_servos$1434+2)^(0+128)
  7516     1E12  1283               	bcf	3,5	;RP0=0, select bank0
  7517     1E13  1303               	bcf	3,6	;RP1=0, select bank0
  7518     1E14  083B               	movf	?i1___flmul+1,w
  7519     1E15  1683               	bsf	3,5	;RP0=1, select bank1
  7520     1E16  1303               	bcf	3,6	;RP1=0, select bank1
  7521     1E17  00B5               	movwf	(_servos$1434+1)^(0+128)
  7522     1E18  1283               	bcf	3,5	;RP0=0, select bank0
  7523     1E19  1303               	bcf	3,6	;RP1=0, select bank0
  7524     1E1A  083A               	movf	?i1___flmul,w
  7525     1E1B  1683               	bsf	3,5	;RP0=1, select bank1
  7526     1E1C  1303               	bcf	3,6	;RP1=0, select bank1
  7527     1E1D  00B4               	movwf	_servos$1434^(0+128)
  7528                           
  7529                           ;Progra_IRONMAN.c: 213:         PWM_duty(2, 0.00025f*((dato)/255.0f));
  7530     1E1E  0837               	movf	(_servos$1434+3)^(0+128),w
  7531     1E1F  00A5               	movwf	(i1PWM_duty@duty+3)^(0+128)
  7532     1E20  0836               	movf	(_servos$1434+2)^(0+128),w
  7533     1E21  00A4               	movwf	(i1PWM_duty@duty+2)^(0+128)
  7534     1E22  0835               	movf	(_servos$1434+1)^(0+128),w
  7535     1E23  00A3               	movwf	(i1PWM_duty@duty+1)^(0+128)
  7536     1E24  0834               	movf	_servos$1434^(0+128),w
  7537     1E25  00A2               	movwf	i1PWM_duty@duty^(0+128)
  7538     1E26  3002               	movlw	2
  7539     1E27  120A  158A  2094  160A  158A  	fcall	i1_PWM_duty
  7540     1E2C                     i1l189:
  7541     1E2C  0008               	return
  7542     1E2D                     __end_of_servos:
  7543                           
  7544                           	psect	text14
  7545     100B                     __ptext14:	
  7546 ;; *************** function i1___xxtofl *****************
  7547 ;; Defined at:
  7548 ;;		line 10 in file "C:\Program Files\Microchip\xc8\v2.40\pic\sources\c90\common\xxtofl.c"
  7549 ;; Parameters:    Size  Location     Type
  7550 ;;  sign            1    wreg     unsigned char 
  7551 ;;  val             4    0[COMMON] long 
  7552 ;; Auto vars:     Size  Location     Type
  7553 ;;  sign            1    8[COMMON] unsigned char 
  7554 ;;  arg             4   10[COMMON] unsigned long 
  7555 ;;  exp             1    9[COMMON] unsigned char 
  7556 ;; Return value:  Size  Location     Type
  7557 ;;                  4    0[COMMON] unsigned char 
  7558 ;; Registers used:
  7559 ;;		wreg, status,2, status,0
  7560 ;; Tracked objects:
  7561 ;;		On entry : 0/0
  7562 ;;		On exit  : 0/0
  7563 ;;		Unchanged: 0/0
  7564 ;; Data sizes:     COMMON   BANK0   BANK1   BANK3   BANK2
  7565 ;;      Params:         4       0       0       0       0
  7566 ;;      Locals:         6       0       0       0       0
  7567 ;;      Temps:          4       0       0       0       0
  7568 ;;      Totals:        14       0       0       0       0
  7569 ;;Total ram usage:       14 bytes
  7570 ;; Hardware stack levels used: 1
  7571 ;; This function calls:
  7572 ;;		Nothing
  7573 ;; This function is called by:
  7574 ;;		_isr
  7575 ;;		_servos
  7576 ;; This function uses a non-reentrant model
  7577 ;;
  7578                           
  7579     100B                     i1___xxtofl:	
  7580                           ;psect for function i1___xxtofl
  7581                           
  7582                           
  7583                           ;incstack = 0
  7584                           ; Regs used in i1___xxtofl: [wreg+status,2+status,0]
  7585                           ;i1___xxtofl@sign stored from wreg
  7586     100B  00F8               	movwf	i1___xxtofl@sign
  7587     100C                     i1l3429:
  7588     100C  0878               	movf	i1___xxtofl@sign,w
  7589     100D  1903               	btfsc	3,2
  7590     100E  2810               	goto	u551_21
  7591     100F  2811               	goto	u551_20
  7592     1010                     u551_21:
  7593     1010  2825               	goto	i1l3435
  7594     1011                     u551_20:
  7595     1011                     i1l3431:
  7596     1011  1FF3               	btfss	i1___xxtofl@val+3,7
  7597     1012  2814               	goto	u552_21
  7598     1013  2815               	goto	u552_20
  7599     1014                     u552_21:
  7600     1014  2825               	goto	i1l3435
  7601     1015                     u552_20:
  7602     1015                     i1l3433:
  7603     1015  0970               	comf	i1___xxtofl@val,w
  7604     1016  00FA               	movwf	i1___xxtofl@arg
  7605     1017  0971               	comf	i1___xxtofl@val+1,w
  7606     1018  00FB               	movwf	i1___xxtofl@arg+1
  7607     1019  0972               	comf	i1___xxtofl@val+2,w
  7608     101A  00FC               	movwf	i1___xxtofl@arg+2
  7609     101B  0973               	comf	i1___xxtofl@val+3,w
  7610     101C  00FD               	movwf	i1___xxtofl@arg+3
  7611     101D  0AFA               	incf	i1___xxtofl@arg,f
  7612     101E  1903               	skipnz
  7613     101F  0AFB               	incf	i1___xxtofl@arg+1,f
  7614     1020  1903               	skipnz
  7615     1021  0AFC               	incf	i1___xxtofl@arg+2,f
  7616     1022  1903               	skipnz
  7617     1023  0AFD               	incf	i1___xxtofl@arg+3,f
  7618     1024  282D               	goto	i1l806
  7619     1025                     i1l3435:
  7620     1025  0873               	movf	i1___xxtofl@val+3,w
  7621     1026  00FD               	movwf	i1___xxtofl@arg+3
  7622     1027  0872               	movf	i1___xxtofl@val+2,w
  7623     1028  00FC               	movwf	i1___xxtofl@arg+2
  7624     1029  0871               	movf	i1___xxtofl@val+1,w
  7625     102A  00FB               	movwf	i1___xxtofl@arg+1
  7626     102B  0870               	movf	i1___xxtofl@val,w
  7627     102C  00FA               	movwf	i1___xxtofl@arg
  7628     102D                     i1l806:
  7629     102D  0873               	movf	i1___xxtofl@val+3,w
  7630     102E  0472               	iorwf	i1___xxtofl@val+2,w
  7631     102F  0471               	iorwf	i1___xxtofl@val+1,w
  7632     1030  0470               	iorwf	i1___xxtofl@val,w
  7633     1031  1D03               	skipz
  7634     1032  2834               	goto	u553_21
  7635     1033  2835               	goto	u553_20
  7636     1034                     u553_21:
  7637     1034  283E               	goto	i1l3441
  7638     1035                     u553_20:
  7639     1035                     i1l3437:
  7640     1035  3000               	movlw	0
  7641     1036  00F3               	movwf	?i1___xxtofl+3
  7642     1037  3000               	movlw	0
  7643     1038  00F2               	movwf	?i1___xxtofl+2
  7644     1039  3000               	movlw	0
  7645     103A  00F1               	movwf	?i1___xxtofl+1
  7646     103B  3000               	movlw	0
  7647     103C  00F0               	movwf	?i1___xxtofl
  7648     103D  28C2               	goto	i1l808
  7649     103E                     i1l3441:
  7650     103E  3096               	movlw	150
  7651     103F  00F9               	movwf	i1___xxtofl@exp
  7652     1040  284E               	goto	i1l3445
  7653     1041                     i1l3443:
  7654     1041  3001               	movlw	1
  7655     1042  00F4               	movwf	??i1___xxtofl
  7656     1043  0874               	movf	??i1___xxtofl,w
  7657     1044  07F9               	addwf	i1___xxtofl@exp,f
  7658     1045  3001               	movlw	1
  7659     1046                     u554_25:
  7660     1046  1003               	clrc
  7661     1047  0CFD               	rrf	i1___xxtofl@arg+3,f
  7662     1048  0CFC               	rrf	i1___xxtofl@arg+2,f
  7663     1049  0CFB               	rrf	i1___xxtofl@arg+1,f
  7664     104A  0CFA               	rrf	i1___xxtofl@arg,f
  7665     104B  3EFF               	addlw	-1
  7666     104C  1D03               	skipz
  7667     104D  2846               	goto	u554_25
  7668     104E                     i1l3445:
  7669     104E  30FE               	movlw	254
  7670     104F  057D               	andwf	i1___xxtofl@arg+3,w
  7671     1050  1D03               	btfss	3,2
  7672     1051  2853               	goto	u555_21
  7673     1052  2854               	goto	u555_20
  7674     1053                     u555_21:
  7675     1053  2841               	goto	i1l3443
  7676     1054                     u555_20:
  7677     1054  2870               	goto	i1l812
  7678     1055                     i1l3447:
  7679     1055  3001               	movlw	1
  7680     1056  00F4               	movwf	??i1___xxtofl
  7681     1057  0874               	movf	??i1___xxtofl,w
  7682     1058  07F9               	addwf	i1___xxtofl@exp,f
  7683     1059                     i1l3449:
  7684     1059  3001               	movlw	1
  7685     105A  07FA               	addwf	i1___xxtofl@arg,f
  7686     105B  3000               	movlw	0
  7687     105C  1803               	skipnc
  7688     105D  3001               	movlw	1
  7689     105E  07FB               	addwf	i1___xxtofl@arg+1,f
  7690     105F  3000               	movlw	0
  7691     1060  1803               	skipnc
  7692     1061  3001               	movlw	1
  7693     1062  07FC               	addwf	i1___xxtofl@arg+2,f
  7694     1063  3000               	movlw	0
  7695     1064  1803               	skipnc
  7696     1065  3001               	movlw	1
  7697     1066  07FD               	addwf	i1___xxtofl@arg+3,f
  7698     1067                     i1l3451:
  7699     1067  3001               	movlw	1
  7700     1068                     u556_25:
  7701     1068  1003               	clrc
  7702     1069  0CFD               	rrf	i1___xxtofl@arg+3,f
  7703     106A  0CFC               	rrf	i1___xxtofl@arg+2,f
  7704     106B  0CFB               	rrf	i1___xxtofl@arg+1,f
  7705     106C  0CFA               	rrf	i1___xxtofl@arg,f
  7706     106D  3EFF               	addlw	-1
  7707     106E  1D03               	skipz
  7708     106F  2868               	goto	u556_25
  7709     1070                     i1l812:
  7710     1070  30FF               	movlw	255
  7711     1071  057D               	andwf	i1___xxtofl@arg+3,w
  7712     1072  1D03               	btfss	3,2
  7713     1073  2875               	goto	u557_21
  7714     1074  2876               	goto	u557_20
  7715     1075                     u557_21:
  7716     1075  2855               	goto	i1l3447
  7717     1076                     u557_20:
  7718     1076  2882               	goto	i1l3455
  7719     1077                     i1l3453:
  7720     1077  3001               	movlw	1
  7721     1078  02F9               	subwf	i1___xxtofl@exp,f
  7722     1079  3001               	movlw	1
  7723     107A  00F4               	movwf	??i1___xxtofl
  7724     107B                     u558_25:
  7725     107B  1003               	clrc
  7726     107C  0DFA               	rlf	i1___xxtofl@arg,f
  7727     107D  0DFB               	rlf	i1___xxtofl@arg+1,f
  7728     107E  0DFC               	rlf	i1___xxtofl@arg+2,f
  7729     107F  0DFD               	rlf	i1___xxtofl@arg+3,f
  7730     1080  0BF4               	decfsz	??i1___xxtofl,f
  7731     1081  287B               	goto	u558_25
  7732     1082                     i1l3455:
  7733     1082  1BFC               	btfsc	i1___xxtofl@arg+2,7
  7734     1083  2885               	goto	u559_21
  7735     1084  2886               	goto	u559_20
  7736     1085                     u559_21:
  7737     1085  288C               	goto	i1l819
  7738     1086                     u559_20:
  7739     1086                     i1l3457:
  7740     1086  3002               	movlw	2
  7741     1087  0279               	subwf	i1___xxtofl@exp,w
  7742     1088  1803               	skipnc
  7743     1089  288B               	goto	u560_21
  7744     108A  288C               	goto	u560_20
  7745     108B                     u560_21:
  7746     108B  2877               	goto	i1l3453
  7747     108C                     u560_20:
  7748     108C                     i1l819:
  7749     108C  1879               	btfsc	i1___xxtofl@exp,0
  7750     108D  288F               	goto	u561_21
  7751     108E  2890               	goto	u561_20
  7752     108F                     u561_21:
  7753     108F  2898               	goto	i1l820
  7754     1090                     u561_20:
  7755     1090                     i1l3459:
  7756     1090  30FF               	movlw	255
  7757     1091  05FA               	andwf	i1___xxtofl@arg,f
  7758     1092  30FF               	movlw	255
  7759     1093  05FB               	andwf	i1___xxtofl@arg+1,f
  7760     1094  307F               	movlw	127
  7761     1095  05FC               	andwf	i1___xxtofl@arg+2,f
  7762     1096  30FF               	movlw	255
  7763     1097  05FD               	andwf	i1___xxtofl@arg+3,f
  7764     1098                     i1l820:
  7765     1098  1003               	clrc
  7766     1099  0CF9               	rrf	i1___xxtofl@exp,f
  7767     109A                     i1l3461:
  7768     109A  0879               	movf	i1___xxtofl@exp,w
  7769     109B  00F4               	movwf	??i1___xxtofl
  7770     109C  01F5               	clrf	??i1___xxtofl+1
  7771     109D  01F6               	clrf	??i1___xxtofl+2
  7772     109E  01F7               	clrf	??i1___xxtofl+3
  7773     109F  3018               	movlw	24
  7774     10A0                     u562_25:
  7775     10A0  1003               	clrc
  7776     10A1  0DF4               	rlf	??i1___xxtofl,f
  7777     10A2  0DF5               	rlf	??i1___xxtofl+1,f
  7778     10A3  0DF6               	rlf	??i1___xxtofl+2,f
  7779     10A4  0DF7               	rlf	??i1___xxtofl+3,f
  7780     10A5                     u562_20:
  7781     10A5  3EFF               	addlw	-1
  7782     10A6  1D03               	skipz
  7783     10A7  28A0               	goto	u562_25
  7784     10A8  0874               	movf	??i1___xxtofl,w
  7785     10A9  04FA               	iorwf	i1___xxtofl@arg,f
  7786     10AA  0875               	movf	??i1___xxtofl+1,w
  7787     10AB  04FB               	iorwf	i1___xxtofl@arg+1,f
  7788     10AC  0876               	movf	??i1___xxtofl+2,w
  7789     10AD  04FC               	iorwf	i1___xxtofl@arg+2,f
  7790     10AE  0877               	movf	??i1___xxtofl+3,w
  7791     10AF  04FD               	iorwf	i1___xxtofl@arg+3,f
  7792     10B0                     i1l3463:
  7793     10B0  0878               	movf	i1___xxtofl@sign,w
  7794     10B1  1903               	btfsc	3,2
  7795     10B2  28B4               	goto	u563_21
  7796     10B3  28B5               	goto	u563_20
  7797     10B4                     u563_21:
  7798     10B4  28BA               	goto	i1l3469
  7799     10B5                     u563_20:
  7800     10B5                     i1l3465:
  7801     10B5  1FF3               	btfss	i1___xxtofl@val+3,7
  7802     10B6  28B8               	goto	u564_21
  7803     10B7  28B9               	goto	u564_20
  7804     10B8                     u564_21:
  7805     10B8  28BA               	goto	i1l3469
  7806     10B9                     u564_20:
  7807     10B9                     i1l3467:
  7808     10B9  17FD               	bsf	i1___xxtofl@arg+3,7
  7809     10BA                     i1l3469:
  7810     10BA  087D               	movf	i1___xxtofl@arg+3,w
  7811     10BB  00F3               	movwf	?i1___xxtofl+3
  7812     10BC  087C               	movf	i1___xxtofl@arg+2,w
  7813     10BD  00F2               	movwf	?i1___xxtofl+2
  7814     10BE  087B               	movf	i1___xxtofl@arg+1,w
  7815     10BF  00F1               	movwf	?i1___xxtofl+1
  7816     10C0  087A               	movf	i1___xxtofl@arg,w
  7817     10C1  00F0               	movwf	?i1___xxtofl
  7818     10C2                     i1l808:
  7819     10C2  0008               	return
  7820     10C3                     __end_ofi1___xxtofl:
  7821                           
  7822                           	psect	text15
  7823     1350                     __ptext15:	
  7824 ;; *************** function i1___fladd *****************
  7825 ;; Defined at:
  7826 ;;		line 10 in file "C:\Program Files\Microchip\xc8\v2.40\pic\sources\c90\common\sprcadd.c"
  7827 ;; Parameters:    Size  Location     Type
  7828 ;;  b               4   52[BANK0 ] unsigned char 
  7829 ;;  a               4   56[BANK0 ] unsigned char 
  7830 ;; Auto vars:     Size  Location     Type
  7831 ;;  grs             1   71[BANK0 ] unsigned char 
  7832 ;;  bexp            1   70[BANK0 ] unsigned char 
  7833 ;;  aexp            1   69[BANK0 ] unsigned char 
  7834 ;;  signs           1   68[BANK0 ] unsigned char 
  7835 ;; Return value:  Size  Location     Type
  7836 ;;                  4   52[BANK0 ] unsigned char 
  7837 ;; Registers used:
  7838 ;;		wreg, status,2, status,0, btemp+1
  7839 ;; Tracked objects:
  7840 ;;		On entry : 0/0
  7841 ;;		On exit  : 0/0
  7842 ;;		Unchanged: 0/0
  7843 ;; Data sizes:     COMMON   BANK0   BANK1   BANK3   BANK2
  7844 ;;      Params:         0       8       0       0       0
  7845 ;;      Locals:         0       4       0       0       0
  7846 ;;      Temps:          0       8       0       0       0
  7847 ;;      Totals:         0      20       0       0       0
  7848 ;;Total ram usage:       20 bytes
  7849 ;; Hardware stack levels used: 1
  7850 ;; This function calls:
  7851 ;;		Nothing
  7852 ;; This function is called by:
  7853 ;;		_isr
  7854 ;;		_servos
  7855 ;; This function uses a non-reentrant model
  7856 ;;
  7857                           
  7858     1350                     i1___fladd:	
  7859                           ;psect for function i1___fladd
  7860                           
  7861     1350                     i1l3235:	
  7862                           ;incstack = 0
  7863                           ; Regs used in i1___fladd: [wreg+status,2+status,0+btemp+1]
  7864                           
  7865     1350  1283               	bcf	3,5	;RP0=0, select bank0
  7866     1351  1303               	bcf	3,6	;RP1=0, select bank0
  7867     1352  0857               	movf	i1___fladd@b+3,w
  7868     1353  3980               	andlw	128
  7869     1354  00E4               	movwf	i1___fladd@signs
  7870     1355                     i1l3237:
  7871     1355  0857               	movf	i1___fladd@b+3,w
  7872     1356  00DC               	movwf	??i1___fladd
  7873     1357  075C               	addwf	??i1___fladd,w
  7874     1358  00E6               	movwf	i1___fladd@bexp
  7875     1359                     i1l3239:
  7876     1359  1FD6               	btfss	i1___fladd@b+2,7
  7877     135A  2B5C               	goto	u505_21
  7878     135B  2B5D               	goto	u505_20
  7879     135C                     u505_21:
  7880     135C  2B5E               	goto	i1l3243
  7881     135D                     u505_20:
  7882     135D                     i1l3241:
  7883     135D  1466               	bsf	i1___fladd@bexp,0
  7884     135E                     i1l3243:
  7885     135E  0866               	movf	i1___fladd@bexp,w
  7886     135F  1903               	btfsc	3,2
  7887     1360  2B62               	goto	u506_21
  7888     1361  2B63               	goto	u506_20
  7889     1362                     u506_21:
  7890     1362  2B73               	goto	i1l3253
  7891     1363                     u506_20:
  7892     1363                     i1l3245:
  7893     1363  0A66               	incf	i1___fladd@bexp,w
  7894     1364  1D03               	btfss	3,2
  7895     1365  2B67               	goto	u507_21
  7896     1366  2B68               	goto	u507_20
  7897     1367                     u507_21:
  7898     1367  2B70               	goto	i1l3249
  7899     1368                     u507_20:
  7900     1368                     i1l3247:
  7901     1368  3000               	movlw	0
  7902     1369  00D7               	movwf	i1___fladd@b+3
  7903     136A  3000               	movlw	0
  7904     136B  00D6               	movwf	i1___fladd@b+2
  7905     136C  3000               	movlw	0
  7906     136D  00D5               	movwf	i1___fladd@b+1
  7907     136E  3000               	movlw	0
  7908     136F  00D4               	movwf	i1___fladd@b
  7909     1370                     i1l3249:
  7910     1370  17D6               	bsf	i1___fladd@b+2,7
  7911     1371                     i1l3251:
  7912     1371  01D7               	clrf	i1___fladd@b+3
  7913     1372  2B7B               	goto	i1l3255
  7914     1373                     i1l3253:
  7915     1373  3000               	movlw	0
  7916     1374  00D7               	movwf	i1___fladd@b+3
  7917     1375  3000               	movlw	0
  7918     1376  00D6               	movwf	i1___fladd@b+2
  7919     1377  3000               	movlw	0
  7920     1378  00D5               	movwf	i1___fladd@b+1
  7921     1379  3000               	movlw	0
  7922     137A  00D4               	movwf	i1___fladd@b
  7923     137B                     i1l3255:
  7924     137B  085B               	movf	i1___fladd@a+3,w
  7925     137C  3980               	andlw	128
  7926     137D  00E5               	movwf	i1___fladd@aexp
  7927     137E                     i1l3257:
  7928     137E  0865               	movf	i1___fladd@aexp,w
  7929     137F  0664               	xorwf	i1___fladd@signs,w
  7930     1380  1903               	skipnz
  7931     1381  2B83               	goto	u508_21
  7932     1382  2B84               	goto	u508_20
  7933     1383                     u508_21:
  7934     1383  2B85               	goto	i1l3261
  7935     1384                     u508_20:
  7936     1384                     i1l3259:
  7937     1384  1764               	bsf	i1___fladd@signs,6
  7938     1385                     i1l3261:
  7939     1385  085B               	movf	i1___fladd@a+3,w
  7940     1386  00DC               	movwf	??i1___fladd
  7941     1387  075C               	addwf	??i1___fladd,w
  7942     1388  00E5               	movwf	i1___fladd@aexp
  7943     1389                     i1l3263:
  7944     1389  1FDA               	btfss	i1___fladd@a+2,7
  7945     138A  2B8C               	goto	u509_21
  7946     138B  2B8D               	goto	u509_20
  7947     138C                     u509_21:
  7948     138C  2B8E               	goto	i1l3267
  7949     138D                     u509_20:
  7950     138D                     i1l3265:
  7951     138D  1465               	bsf	i1___fladd@aexp,0
  7952     138E                     i1l3267:
  7953     138E  0865               	movf	i1___fladd@aexp,w
  7954     138F  1903               	btfsc	3,2
  7955     1390  2B92               	goto	u510_21
  7956     1391  2B93               	goto	u510_20
  7957     1392                     u510_21:
  7958     1392  2BA3               	goto	i1l3277
  7959     1393                     u510_20:
  7960     1393                     i1l3269:
  7961     1393  0A65               	incf	i1___fladd@aexp,w
  7962     1394  1D03               	btfss	3,2
  7963     1395  2B97               	goto	u511_21
  7964     1396  2B98               	goto	u511_20
  7965     1397                     u511_21:
  7966     1397  2BA0               	goto	i1l3273
  7967     1398                     u511_20:
  7968     1398                     i1l3271:
  7969     1398  3000               	movlw	0
  7970     1399  00DB               	movwf	i1___fladd@a+3
  7971     139A  3000               	movlw	0
  7972     139B  00DA               	movwf	i1___fladd@a+2
  7973     139C  3000               	movlw	0
  7974     139D  00D9               	movwf	i1___fladd@a+1
  7975     139E  3000               	movlw	0
  7976     139F  00D8               	movwf	i1___fladd@a
  7977     13A0                     i1l3273:
  7978     13A0  17DA               	bsf	i1___fladd@a+2,7
  7979     13A1                     i1l3275:
  7980     13A1  01DB               	clrf	i1___fladd@a+3
  7981     13A2  2BAB               	goto	i1l666
  7982     13A3                     i1l3277:
  7983     13A3  3000               	movlw	0
  7984     13A4  00DB               	movwf	i1___fladd@a+3
  7985     13A5  3000               	movlw	0
  7986     13A6  00DA               	movwf	i1___fladd@a+2
  7987     13A7  3000               	movlw	0
  7988     13A8  00D9               	movwf	i1___fladd@a+1
  7989     13A9  3000               	movlw	0
  7990     13AA  00D8               	movwf	i1___fladd@a
  7991     13AB                     i1l666:
  7992     13AB  0866               	movf	i1___fladd@bexp,w
  7993     13AC  0265               	subwf	i1___fladd@aexp,w
  7994     13AD  1803               	skipnc
  7995     13AE  2BB0               	goto	u512_21
  7996     13AF  2BB1               	goto	u512_20
  7997     13B0                     u512_21:
  7998     13B0  2BD7               	goto	i1l3313
  7999     13B1                     u512_20:
  8000     13B1                     i1l3279:
  8001     13B1  1F64               	btfss	i1___fladd@signs,6
  8002     13B2  2BB4               	goto	u513_21
  8003     13B3  2BB5               	goto	u513_20
  8004     13B4                     u513_21:
  8005     13B4  2BB9               	goto	i1l3283
  8006     13B5                     u513_20:
  8007     13B5                     i1l3281:
  8008     13B5  3080               	movlw	128
  8009     13B6  00DC               	movwf	??i1___fladd
  8010     13B7  085C               	movf	??i1___fladd,w
  8011     13B8  06E4               	xorwf	i1___fladd@signs,f
  8012     13B9                     i1l3283:
  8013     13B9  0866               	movf	i1___fladd@bexp,w
  8014     13BA  00E7               	movwf	i1___fladd@grs
  8015     13BB                     i1l3285:
  8016     13BB  0865               	movf	i1___fladd@aexp,w
  8017     13BC  00E6               	movwf	i1___fladd@bexp
  8018     13BD                     i1l3287:
  8019     13BD  0867               	movf	i1___fladd@grs,w
  8020     13BE  00E5               	movwf	i1___fladd@aexp
  8021     13BF                     i1l3289:
  8022     13BF  0854               	movf	i1___fladd@b,w
  8023     13C0  00E7               	movwf	i1___fladd@grs
  8024     13C1                     i1l3291:
  8025     13C1  0858               	movf	i1___fladd@a,w
  8026     13C2  00D4               	movwf	i1___fladd@b
  8027     13C3                     i1l3293:
  8028     13C3  0867               	movf	i1___fladd@grs,w
  8029     13C4  00D8               	movwf	i1___fladd@a
  8030     13C5                     i1l3295:
  8031     13C5  0855               	movf	i1___fladd@b+1,w
  8032     13C6  00E7               	movwf	i1___fladd@grs
  8033     13C7                     i1l3297:
  8034     13C7  0859               	movf	i1___fladd@a+1,w
  8035     13C8  00D5               	movwf	i1___fladd@b+1
  8036     13C9                     i1l3299:
  8037     13C9  0867               	movf	i1___fladd@grs,w
  8038     13CA  00D9               	movwf	i1___fladd@a+1
  8039     13CB                     i1l3301:
  8040     13CB  0856               	movf	i1___fladd@b+2,w
  8041     13CC  00E7               	movwf	i1___fladd@grs
  8042     13CD                     i1l3303:
  8043     13CD  085A               	movf	i1___fladd@a+2,w
  8044     13CE  00D6               	movwf	i1___fladd@b+2
  8045     13CF                     i1l3305:
  8046     13CF  0867               	movf	i1___fladd@grs,w
  8047     13D0  00DA               	movwf	i1___fladd@a+2
  8048     13D1                     i1l3307:
  8049     13D1  0857               	movf	i1___fladd@b+3,w
  8050     13D2  00E7               	movwf	i1___fladd@grs
  8051     13D3                     i1l3309:
  8052     13D3  085B               	movf	i1___fladd@a+3,w
  8053     13D4  00D7               	movwf	i1___fladd@b+3
  8054     13D5                     i1l3311:
  8055     13D5  0867               	movf	i1___fladd@grs,w
  8056     13D6  00DB               	movwf	i1___fladd@a+3
  8057     13D7                     i1l3313:
  8058     13D7  01E7               	clrf	i1___fladd@grs
  8059     13D8                     i1l3315:
  8060     13D8  0865               	movf	i1___fladd@aexp,w
  8061     13D9  00DC               	movwf	??i1___fladd
  8062     13DA  01DD               	clrf	??i1___fladd+1
  8063     13DB  085D               	movf	??i1___fladd+1,w
  8064     13DC  00DF               	movwf	??i1___fladd+3
  8065     13DD  0866               	movf	i1___fladd@bexp,w
  8066     13DE  025C               	subwf	??i1___fladd,w
  8067     13DF  00DE               	movwf	??i1___fladd+2
  8068     13E0  1C03               	skipc
  8069     13E1  03DF               	decf	??i1___fladd+3,f
  8070     13E2  085F               	movf	??i1___fladd+3,w
  8071     13E3  3A80               	xorlw	128
  8072     13E4  00FF               	movwf	btemp+1
  8073     13E5  3080               	movlw	128
  8074     13E6  027F               	subwf	btemp+1,w
  8075     13E7  1D03               	skipz
  8076     13E8  2BEB               	goto	u514_25
  8077     13E9  301A               	movlw	26
  8078     13EA  025E               	subwf	??i1___fladd+2,w
  8079     13EB                     u514_25:
  8080     13EB  1C03               	skipc
  8081     13EC  2BEE               	goto	u514_21
  8082     13ED  2BEF               	goto	u514_20
  8083     13EE                     u514_21:
  8084     13EE  2C26               	goto	i1l3331
  8085     13EF                     u514_20:
  8086     13EF                     i1l3317:
  8087     13EF  1283               	bcf	3,5	;RP0=0, select bank0
  8088     13F0  1303               	bcf	3,6	;RP1=0, select bank0
  8089     13F1  0857               	movf	i1___fladd@b+3,w
  8090     13F2  0456               	iorwf	i1___fladd@b+2,w
  8091     13F3  0455               	iorwf	i1___fladd@b+1,w
  8092     13F4  0454               	iorwf	i1___fladd@b,w
  8093     13F5  1D03               	skipz
  8094     13F6  2BF8               	goto	u515_21
  8095     13F7  2BFA               	goto	u515_20
  8096     13F8                     u515_21:
  8097     13F8  3001               	movlw	1
  8098     13F9  2BFB               	goto	u516_20
  8099     13FA                     u515_20:
  8100     13FA  3000               	movlw	0
  8101     13FB                     u516_20:
  8102     13FB  00E7               	movwf	i1___fladd@grs
  8103     13FC  3000               	movlw	0
  8104     13FD  00D7               	movwf	i1___fladd@b+3
  8105     13FE  3000               	movlw	0
  8106     13FF  00D6               	movwf	i1___fladd@b+2
  8107     1400  3000               	movlw	0
  8108     1401  00D5               	movwf	i1___fladd@b+1
  8109     1402  3000               	movlw	0
  8110     1403  00D4               	movwf	i1___fladd@b
  8111     1404  0865               	movf	i1___fladd@aexp,w
  8112     1405  00E6               	movwf	i1___fladd@bexp
  8113     1406  2C2E               	goto	i1l670
  8114     1407                     i1l672:
  8115     1407  1C67               	btfss	i1___fladd@grs,0
  8116     1408  2C0A               	goto	u517_21
  8117     1409  2C0B               	goto	u517_20
  8118     140A                     u517_21:
  8119     140A  2C12               	goto	i1l3321
  8120     140B                     u517_20:
  8121     140B                     i1l3319:
  8122     140B  0867               	movf	i1___fladd@grs,w
  8123     140C  00DC               	movwf	??i1___fladd
  8124     140D  1003               	clrc
  8125     140E  0C5C               	rrf	??i1___fladd,w
  8126     140F  3801               	iorlw	1
  8127     1410  00E7               	movwf	i1___fladd@grs
  8128     1411  2C14               	goto	i1l3323
  8129     1412                     i1l3321:
  8130     1412  1003               	clrc
  8131     1413  0CE7               	rrf	i1___fladd@grs,f
  8132     1414                     i1l3323:
  8133     1414  1C54               	btfss	i1___fladd@b,0
  8134     1415  2C17               	goto	u518_21
  8135     1416  2C18               	goto	u518_20
  8136     1417                     u518_21:
  8137     1417  2C19               	goto	i1l3327
  8138     1418                     u518_20:
  8139     1418                     i1l3325:
  8140     1418  17E7               	bsf	i1___fladd@grs,7
  8141     1419                     i1l3327:
  8142     1419  3001               	movlw	1
  8143     141A  00DC               	movwf	??i1___fladd
  8144     141B                     u519_25:
  8145     141B  0D57               	rlf	i1___fladd@b+3,w
  8146     141C  0CD7               	rrf	i1___fladd@b+3,f
  8147     141D  0CD6               	rrf	i1___fladd@b+2,f
  8148     141E  0CD5               	rrf	i1___fladd@b+1,f
  8149     141F  0CD4               	rrf	i1___fladd@b,f
  8150     1420  0BDC               	decfsz	??i1___fladd& (0+127),f
  8151     1421  2C1B               	goto	u519_25
  8152     1422                     i1l3329:
  8153     1422  3001               	movlw	1
  8154     1423  00DC               	movwf	??i1___fladd
  8155     1424  085C               	movf	??i1___fladd,w
  8156     1425  07E6               	addwf	i1___fladd@bexp,f
  8157     1426                     i1l3331:
  8158     1426  1283               	bcf	3,5	;RP0=0, select bank0
  8159     1427  1303               	bcf	3,6	;RP1=0, select bank0
  8160     1428  0865               	movf	i1___fladd@aexp,w
  8161     1429  0266               	subwf	i1___fladd@bexp,w
  8162     142A  1C03               	skipc
  8163     142B  2C2D               	goto	u520_21
  8164     142C  2C2E               	goto	u520_20
  8165     142D                     u520_21:
  8166     142D  2C07               	goto	i1l672
  8167     142E                     u520_20:
  8168     142E                     i1l670:
  8169     142E  1B64               	btfsc	i1___fladd@signs,6
  8170     142F  2C31               	goto	u521_21
  8171     1430  2C32               	goto	u521_20
  8172     1431                     u521_21:
  8173     1431  2C7B               	goto	i1l3357
  8174     1432                     u521_20:
  8175     1432                     i1l3333:
  8176     1432  0866               	movf	i1___fladd@bexp,w
  8177     1433  1D03               	btfss	3,2
  8178     1434  2C36               	goto	u522_21
  8179     1435  2C37               	goto	u522_20
  8180     1436                     u522_21:
  8181     1436  2C40               	goto	i1l3339
  8182     1437                     u522_20:
  8183     1437                     i1l3335:
  8184     1437  3000               	movlw	0
  8185     1438  00D7               	movwf	?i1___fladd+3
  8186     1439  3000               	movlw	0
  8187     143A  00D6               	movwf	?i1___fladd+2
  8188     143B  3000               	movlw	0
  8189     143C  00D5               	movwf	?i1___fladd+1
  8190     143D  3000               	movlw	0
  8191     143E  00D4               	movwf	?i1___fladd
  8192     143F  2DA7               	goto	i1l679
  8193     1440                     i1l3339:
  8194     1440  0858               	movf	i1___fladd@a,w
  8195     1441  07D4               	addwf	i1___fladd@b,f
  8196     1442  0859               	movf	i1___fladd@a+1,w
  8197     1443  1103               	clrz
  8198     1444  1803               	skipnc
  8199     1445  3E01               	addlw	1
  8200     1446  1903               	skipnz
  8201     1447  2C49               	goto	u523_21
  8202     1448  07D5               	addwf	i1___fladd@b+1,f
  8203     1449                     u523_21:
  8204     1449  085A               	movf	i1___fladd@a+2,w
  8205     144A  1103               	clrz
  8206     144B  1803               	skipnc
  8207     144C  3E01               	addlw	1
  8208     144D  1903               	skipnz
  8209     144E  2C50               	goto	u523_22
  8210     144F  07D6               	addwf	i1___fladd@b+2,f
  8211     1450                     u523_22:
  8212     1450  085B               	movf	i1___fladd@a+3,w
  8213     1451  1103               	clrz
  8214     1452  1803               	skipnc
  8215     1453  3E01               	addlw	1
  8216     1454  1903               	skipnz
  8217     1455  2C57               	goto	u523_23
  8218     1456  07D7               	addwf	i1___fladd@b+3,f
  8219     1457                     u523_23:
  8220     1457                     i1l3341:
  8221     1457  1C57               	btfss	i1___fladd@b+3,0
  8222     1458  2C5A               	goto	u524_21
  8223     1459  2C5B               	goto	u524_20
  8224     145A                     u524_21:
  8225     145A  2D2F               	goto	i1l3391
  8226     145B                     u524_20:
  8227     145B                     i1l3343:
  8228     145B  1C67               	btfss	i1___fladd@grs,0
  8229     145C  2C5E               	goto	u525_21
  8230     145D  2C5F               	goto	u525_20
  8231     145E                     u525_21:
  8232     145E  2C66               	goto	i1l3347
  8233     145F                     u525_20:
  8234     145F                     i1l3345:
  8235     145F  0867               	movf	i1___fladd@grs,w
  8236     1460  00DC               	movwf	??i1___fladd
  8237     1461  1003               	clrc
  8238     1462  0C5C               	rrf	??i1___fladd,w
  8239     1463  3801               	iorlw	1
  8240     1464  00E7               	movwf	i1___fladd@grs
  8241     1465  2C68               	goto	i1l3349
  8242     1466                     i1l3347:
  8243     1466  1003               	clrc
  8244     1467  0CE7               	rrf	i1___fladd@grs,f
  8245     1468                     i1l3349:
  8246     1468  1C54               	btfss	i1___fladd@b,0
  8247     1469  2C6B               	goto	u526_21
  8248     146A  2C6C               	goto	u526_20
  8249     146B                     u526_21:
  8250     146B  2C6D               	goto	i1l3353
  8251     146C                     u526_20:
  8252     146C                     i1l3351:
  8253     146C  17E7               	bsf	i1___fladd@grs,7
  8254     146D                     i1l3353:
  8255     146D  3001               	movlw	1
  8256     146E  00DC               	movwf	??i1___fladd
  8257     146F                     u527_25:
  8258     146F  0D57               	rlf	i1___fladd@b+3,w
  8259     1470  0CD7               	rrf	i1___fladd@b+3,f
  8260     1471  0CD6               	rrf	i1___fladd@b+2,f
  8261     1472  0CD5               	rrf	i1___fladd@b+1,f
  8262     1473  0CD4               	rrf	i1___fladd@b,f
  8263     1474  0BDC               	decfsz	??i1___fladd& (0+127),f
  8264     1475  2C6F               	goto	u527_25
  8265     1476                     i1l3355:
  8266     1476  3001               	movlw	1
  8267     1477  00DC               	movwf	??i1___fladd
  8268     1478  085C               	movf	??i1___fladd,w
  8269     1479  07E6               	addwf	i1___fladd@bexp,f
  8270     147A  2D2F               	goto	i1l3391
  8271     147B                     i1l3357:
  8272     147B  0857               	movf	i1___fladd@b+3,w
  8273     147C  3A80               	xorlw	128
  8274     147D  00FF               	movwf	btemp+1
  8275     147E  085B               	movf	i1___fladd@a+3,w
  8276     147F  3A80               	xorlw	128
  8277     1480  027F               	subwf	btemp+1,w
  8278     1481  1D03               	skipz
  8279     1482  2C8D               	goto	u528_23
  8280     1483  085A               	movf	i1___fladd@a+2,w
  8281     1484  0256               	subwf	i1___fladd@b+2,w
  8282     1485  1D03               	skipz
  8283     1486  2C8D               	goto	u528_23
  8284     1487  0859               	movf	i1___fladd@a+1,w
  8285     1488  0255               	subwf	i1___fladd@b+1,w
  8286     1489  1D03               	skipz
  8287     148A  2C8D               	goto	u528_23
  8288     148B  0858               	movf	i1___fladd@a,w
  8289     148C  0254               	subwf	i1___fladd@b,w
  8290     148D                     u528_23:
  8291     148D  1803               	skipnc
  8292     148E  2C90               	goto	u528_21
  8293     148F  2C91               	goto	u528_20
  8294     1490                     u528_21:
  8295     1490  2CE9               	goto	i1l3367
  8296     1491                     u528_20:
  8297     1491                     i1l3359:
  8298     1491  30FF               	movlw	255
  8299     1492  00DC               	movwf	??i1___fladd
  8300     1493  30FF               	movlw	255
  8301     1494  00DD               	movwf	??i1___fladd+1
  8302     1495  30FF               	movlw	255
  8303     1496  00DE               	movwf	??i1___fladd+2
  8304     1497  30FF               	movlw	255
  8305     1498  00DF               	movwf	??i1___fladd+3
  8306     1499  0858               	movf	i1___fladd@a,w
  8307     149A  00E0               	movwf	??i1___fladd+4
  8308     149B  0859               	movf	i1___fladd@a+1,w
  8309     149C  00E1               	movwf	??i1___fladd+5
  8310     149D  085A               	movf	i1___fladd@a+2,w
  8311     149E  00E2               	movwf	??i1___fladd+6
  8312     149F  085B               	movf	i1___fladd@a+3,w
  8313     14A0  00E3               	movwf	??i1___fladd+7
  8314     14A1  0854               	movf	i1___fladd@b,w
  8315     14A2  02E0               	subwf	??i1___fladd+4,f
  8316     14A3  0855               	movf	i1___fladd@b+1,w
  8317     14A4  1C03               	skipc
  8318     14A5  0F55               	incfsz	i1___fladd@b+1,w
  8319     14A6  2CA8               	goto	u529_21
  8320     14A7  2CA9               	goto	u529_22
  8321     14A8                     u529_21:
  8322     14A8  02E1               	subwf	??i1___fladd+5,f
  8323     14A9                     u529_22:
  8324     14A9  0856               	movf	i1___fladd@b+2,w
  8325     14AA  1C03               	skipc
  8326     14AB  0F56               	incfsz	i1___fladd@b+2,w
  8327     14AC  2CAE               	goto	u529_23
  8328     14AD  2CAF               	goto	u529_24
  8329     14AE                     u529_23:
  8330     14AE  02E2               	subwf	??i1___fladd+6,f
  8331     14AF                     u529_24:
  8332     14AF  0857               	movf	i1___fladd@b+3,w
  8333     14B0  1C03               	skipc
  8334     14B1  0F57               	incfsz	i1___fladd@b+3,w
  8335     14B2  2CB4               	goto	u529_25
  8336     14B3  2CB5               	goto	u529_26
  8337     14B4                     u529_25:
  8338     14B4  02E3               	subwf	??i1___fladd+7,f
  8339     14B5                     u529_26:
  8340     14B5  0860               	movf	??i1___fladd+4,w
  8341     14B6  07DC               	addwf	??i1___fladd,f
  8342     14B7  0861               	movf	??i1___fladd+5,w
  8343     14B8  1803               	skipnc
  8344     14B9  0F61               	incfsz	??i1___fladd+5,w
  8345     14BA  2CBC               	goto	u530_20
  8346     14BB  2CBD               	goto	u530_21
  8347     14BC                     u530_20:
  8348     14BC  07DD               	addwf	??i1___fladd+1,f
  8349     14BD                     u530_21:
  8350     14BD  0862               	movf	??i1___fladd+6,w
  8351     14BE  1803               	skipnc
  8352     14BF  0F62               	incfsz	??i1___fladd+6,w
  8353     14C0  2CC2               	goto	u530_22
  8354     14C1  2CC3               	goto	u530_23
  8355     14C2                     u530_22:
  8356     14C2  07DE               	addwf	??i1___fladd+2,f
  8357     14C3                     u530_23:
  8358     14C3  0863               	movf	??i1___fladd+7,w
  8359     14C4  1803               	skipnc
  8360     14C5  0A63               	incf	??i1___fladd+7,w
  8361     14C6  07DF               	addwf	??i1___fladd+3,f
  8362     14C7  085F               	movf	??i1___fladd+3,w
  8363     14C8  00D7               	movwf	i1___fladd@b+3
  8364     14C9  085E               	movf	??i1___fladd+2,w
  8365     14CA  00D6               	movwf	i1___fladd@b+2
  8366     14CB  085D               	movf	??i1___fladd+1,w
  8367     14CC  00D5               	movwf	i1___fladd@b+1
  8368     14CD  085C               	movf	??i1___fladd,w
  8369     14CE  00D4               	movwf	i1___fladd@b
  8370     14CF                     i1l3361:
  8371     14CF  3080               	movlw	128
  8372     14D0  00DC               	movwf	??i1___fladd
  8373     14D1  085C               	movf	??i1___fladd,w
  8374     14D2  06E4               	xorwf	i1___fladd@signs,f
  8375     14D3  09E7               	comf	i1___fladd@grs,f
  8376     14D4  0AE7               	incf	i1___fladd@grs,f
  8377     14D5                     i1l3363:
  8378     14D5  0867               	movf	i1___fladd@grs,w
  8379     14D6  1D03               	btfss	3,2
  8380     14D7  2CD9               	goto	u531_21
  8381     14D8  2CDA               	goto	u531_20
  8382     14D9                     u531_21:
  8383     14D9  2CF7               	goto	i1l687
  8384     14DA                     u531_20:
  8385     14DA                     i1l3365:
  8386     14DA  3001               	movlw	1
  8387     14DB  07D4               	addwf	i1___fladd@b,f
  8388     14DC  3000               	movlw	0
  8389     14DD  1803               	skipnc
  8390     14DE  3001               	movlw	1
  8391     14DF  07D5               	addwf	i1___fladd@b+1,f
  8392     14E0  3000               	movlw	0
  8393     14E1  1803               	skipnc
  8394     14E2  3001               	movlw	1
  8395     14E3  07D6               	addwf	i1___fladd@b+2,f
  8396     14E4  3000               	movlw	0
  8397     14E5  1803               	skipnc
  8398     14E6  3001               	movlw	1
  8399     14E7  07D7               	addwf	i1___fladd@b+3,f
  8400     14E8  2CF7               	goto	i1l687
  8401     14E9                     i1l3367:
  8402     14E9  0858               	movf	i1___fladd@a,w
  8403     14EA  02D4               	subwf	i1___fladd@b,f
  8404     14EB  0859               	movf	i1___fladd@a+1,w
  8405     14EC  1C03               	skipc
  8406     14ED  0F59               	incfsz	i1___fladd@a+1,w
  8407     14EE  02D5               	subwf	i1___fladd@b+1,f
  8408     14EF  085A               	movf	i1___fladd@a+2,w
  8409     14F0  1C03               	skipc
  8410     14F1  0F5A               	incfsz	i1___fladd@a+2,w
  8411     14F2  02D6               	subwf	i1___fladd@b+2,f
  8412     14F3  085B               	movf	i1___fladd@a+3,w
  8413     14F4  1C03               	skipc
  8414     14F5  0F5B               	incfsz	i1___fladd@a+3,w
  8415     14F6  02D7               	subwf	i1___fladd@b+3,f
  8416     14F7                     i1l687:
  8417     14F7  0857               	movf	i1___fladd@b+3,w
  8418     14F8  0456               	iorwf	i1___fladd@b+2,w
  8419     14F9  0455               	iorwf	i1___fladd@b+1,w
  8420     14FA  0454               	iorwf	i1___fladd@b,w
  8421     14FB  1D03               	skipz
  8422     14FC  2CFE               	goto	u532_21
  8423     14FD  2CFF               	goto	u532_20
  8424     14FE                     u532_21:
  8425     14FE  2D2B               	goto	i1l3389
  8426     14FF                     u532_20:
  8427     14FF                     i1l3369:
  8428     14FF  0867               	movf	i1___fladd@grs,w
  8429     1500  1D03               	btfss	3,2
  8430     1501  2D03               	goto	u533_21
  8431     1502  2D04               	goto	u533_20
  8432     1503                     u533_21:
  8433     1503  2D2B               	goto	i1l3389
  8434     1504                     u533_20:
  8435     1504                     i1l3371:
  8436     1504  3000               	movlw	0
  8437     1505  00D7               	movwf	?i1___fladd+3
  8438     1506  3000               	movlw	0
  8439     1507  00D6               	movwf	?i1___fladd+2
  8440     1508  3000               	movlw	0
  8441     1509  00D5               	movwf	?i1___fladd+1
  8442     150A  3000               	movlw	0
  8443     150B  00D4               	movwf	?i1___fladd
  8444     150C  2DA7               	goto	i1l679
  8445     150D                     i1l3375:
  8446     150D  3001               	movlw	1
  8447     150E  00DC               	movwf	??i1___fladd
  8448     150F                     u534_25:
  8449     150F  1003               	clrc
  8450     1510  0DD4               	rlf	i1___fladd@b,f
  8451     1511  0DD5               	rlf	i1___fladd@b+1,f
  8452     1512  0DD6               	rlf	i1___fladd@b+2,f
  8453     1513  0DD7               	rlf	i1___fladd@b+3,f
  8454     1514  0BDC               	decfsz	??i1___fladd,f
  8455     1515  2D0F               	goto	u534_25
  8456     1516                     i1l3377:
  8457     1516  1FE7               	btfss	i1___fladd@grs,7
  8458     1517  2D19               	goto	u535_21
  8459     1518  2D1A               	goto	u535_20
  8460     1519                     u535_21:
  8461     1519  2D1B               	goto	i1l691
  8462     151A                     u535_20:
  8463     151A                     i1l3379:
  8464     151A  1454               	bsf	i1___fladd@b,0
  8465     151B                     i1l691:
  8466     151B  1C67               	btfss	i1___fladd@grs,0
  8467     151C  2D1E               	goto	u536_21
  8468     151D  2D1F               	goto	u536_20
  8469     151E                     u536_21:
  8470     151E  2D22               	goto	i1l3383
  8471     151F                     u536_20:
  8472     151F                     i1l3381:
  8473     151F  1403               	setc
  8474     1520  0DE7               	rlf	i1___fladd@grs,f
  8475     1521  2D24               	goto	i1l3385
  8476     1522                     i1l3383:
  8477     1522  1003               	clrc
  8478     1523  0DE7               	rlf	i1___fladd@grs,f
  8479     1524                     i1l3385:
  8480     1524  0866               	movf	i1___fladd@bexp,w
  8481     1525  1903               	btfsc	3,2
  8482     1526  2D28               	goto	u537_21
  8483     1527  2D29               	goto	u537_20
  8484     1528                     u537_21:
  8485     1528  2D2B               	goto	i1l3389
  8486     1529                     u537_20:
  8487     1529                     i1l3387:
  8488     1529  3001               	movlw	1
  8489     152A  02E6               	subwf	i1___fladd@bexp,f
  8490     152B                     i1l3389:
  8491     152B  1FD6               	btfss	i1___fladd@b+2,7
  8492     152C  2D2E               	goto	u538_21
  8493     152D  2D2F               	goto	u538_20
  8494     152E                     u538_21:
  8495     152E  2D0D               	goto	i1l3375
  8496     152F                     u538_20:
  8497     152F                     i1l3391:
  8498     152F  01E5               	clrf	i1___fladd@aexp
  8499     1530                     i1l3393:
  8500     1530  1FE7               	btfss	i1___fladd@grs,7
  8501     1531  2D33               	goto	u539_21
  8502     1532  2D34               	goto	u539_20
  8503     1533                     u539_21:
  8504     1533  2D42               	goto	i1l3401
  8505     1534                     u539_20:
  8506     1534                     i1l3395:
  8507     1534  0867               	movf	i1___fladd@grs,w
  8508     1535  397F               	andlw	127
  8509     1536  1903               	btfsc	3,2
  8510     1537  2D39               	goto	u540_21
  8511     1538  2D3A               	goto	u540_20
  8512     1539                     u540_21:
  8513     1539  2D3D               	goto	i1l697
  8514     153A                     u540_20:
  8515     153A                     i1l3397:
  8516     153A  01E5               	clrf	i1___fladd@aexp
  8517     153B  0AE5               	incf	i1___fladd@aexp,f
  8518     153C  2D42               	goto	i1l3401
  8519     153D                     i1l697:
  8520     153D  1C54               	btfss	i1___fladd@b,0
  8521     153E  2D40               	goto	u541_21
  8522     153F  2D41               	goto	u541_20
  8523     1540                     u541_21:
  8524     1540  2D42               	goto	i1l3401
  8525     1541                     u541_20:
  8526     1541  2D3A               	goto	i1l3397
  8527     1542                     i1l3401:
  8528     1542  0865               	movf	i1___fladd@aexp,w
  8529     1543  1903               	btfsc	3,2
  8530     1544  2D46               	goto	u542_21
  8531     1545  2D47               	goto	u542_20
  8532     1546                     u542_21:
  8533     1546  2D7B               	goto	i1l700
  8534     1547                     u542_20:
  8535     1547                     i1l3403:
  8536     1547  3001               	movlw	1
  8537     1548  07D4               	addwf	i1___fladd@b,f
  8538     1549  3000               	movlw	0
  8539     154A  1803               	skipnc
  8540     154B  3001               	movlw	1
  8541     154C  07D5               	addwf	i1___fladd@b+1,f
  8542     154D  3000               	movlw	0
  8543     154E  1803               	skipnc
  8544     154F  3001               	movlw	1
  8545     1550  07D6               	addwf	i1___fladd@b+2,f
  8546     1551  3000               	movlw	0
  8547     1552  1803               	skipnc
  8548     1553  3001               	movlw	1
  8549     1554  07D7               	addwf	i1___fladd@b+3,f
  8550     1555                     i1l3405:
  8551     1555  1C57               	btfss	i1___fladd@b+3,0
  8552     1556  2D58               	goto	u543_21
  8553     1557  2D59               	goto	u543_20
  8554     1558                     u543_21:
  8555     1558  2D7B               	goto	i1l700
  8556     1559                     u543_20:
  8557     1559                     i1l3407:
  8558     1559  0854               	movf	i1___fladd@b,w
  8559     155A  00DC               	movwf	??i1___fladd
  8560     155B  0855               	movf	i1___fladd@b+1,w
  8561     155C  00DD               	movwf	??i1___fladd+1
  8562     155D  0856               	movf	i1___fladd@b+2,w
  8563     155E  00DE               	movwf	??i1___fladd+2
  8564     155F  0857               	movf	i1___fladd@b+3,w
  8565     1560  00DF               	movwf	??i1___fladd+3
  8566     1561  3001               	movlw	1
  8567     1562  00E0               	movwf	??i1___fladd+4
  8568     1563                     u544_25:
  8569     1563  0D5F               	rlf	??i1___fladd+3,w
  8570     1564  0CDF               	rrf	??i1___fladd+3,f
  8571     1565  0CDE               	rrf	??i1___fladd+2,f
  8572     1566  0CDD               	rrf	??i1___fladd+1,f
  8573     1567  0CDC               	rrf	??i1___fladd,f
  8574     1568                     u544_20:
  8575     1568  0BE0               	decfsz	??i1___fladd+4,f
  8576     1569  2D63               	goto	u544_25
  8577     156A  085F               	movf	??i1___fladd+3,w
  8578     156B  00D7               	movwf	i1___fladd@b+3
  8579     156C  085E               	movf	??i1___fladd+2,w
  8580     156D  00D6               	movwf	i1___fladd@b+2
  8581     156E  085D               	movf	??i1___fladd+1,w
  8582     156F  00D5               	movwf	i1___fladd@b+1
  8583     1570  085C               	movf	??i1___fladd,w
  8584     1571  00D4               	movwf	i1___fladd@b
  8585     1572  0A66               	incf	i1___fladd@bexp,w
  8586     1573  1903               	btfsc	3,2
  8587     1574  2D76               	goto	u545_21
  8588     1575  2D77               	goto	u545_20
  8589     1576                     u545_21:
  8590     1576  2D7B               	goto	i1l700
  8591     1577                     u545_20:
  8592     1577                     i1l3409:
  8593     1577  3001               	movlw	1
  8594     1578  00DC               	movwf	??i1___fladd
  8595     1579  085C               	movf	??i1___fladd,w
  8596     157A  07E6               	addwf	i1___fladd@bexp,f
  8597     157B                     i1l700:
  8598     157B  0A66               	incf	i1___fladd@bexp,w
  8599     157C  1903               	btfsc	3,2
  8600     157D  2D7F               	goto	u546_21
  8601     157E  2D80               	goto	u546_20
  8602     157F                     u546_21:
  8603     157F  2D85               	goto	i1l3413
  8604     1580                     u546_20:
  8605     1580                     i1l3411:
  8606     1580  0866               	movf	i1___fladd@bexp,w
  8607     1581  1D03               	btfss	3,2
  8608     1582  2D84               	goto	u547_21
  8609     1583  2D85               	goto	u547_20
  8610     1584                     u547_21:
  8611     1584  2D93               	goto	i1l3419
  8612     1585                     u547_20:
  8613     1585                     i1l3413:
  8614     1585  3000               	movlw	0
  8615     1586  00D7               	movwf	i1___fladd@b+3
  8616     1587  3000               	movlw	0
  8617     1588  00D6               	movwf	i1___fladd@b+2
  8618     1589  3000               	movlw	0
  8619     158A  00D5               	movwf	i1___fladd@b+1
  8620     158B  3000               	movlw	0
  8621     158C  00D4               	movwf	i1___fladd@b
  8622     158D                     i1l3415:
  8623     158D  0866               	movf	i1___fladd@bexp,w
  8624     158E  1D03               	btfss	3,2
  8625     158F  2D91               	goto	u548_21
  8626     1590  2D92               	goto	u548_20
  8627     1591                     u548_21:
  8628     1591  2D93               	goto	i1l3419
  8629     1592                     u548_20:
  8630     1592                     i1l3417:
  8631     1592  01E4               	clrf	i1___fladd@signs
  8632     1593                     i1l3419:
  8633     1593  1C66               	btfss	i1___fladd@bexp,0
  8634     1594  2D96               	goto	u549_21
  8635     1595  2D97               	goto	u549_20
  8636     1596                     u549_21:
  8637     1596  2D99               	goto	i1l3423
  8638     1597                     u549_20:
  8639     1597                     i1l3421:
  8640     1597  17D6               	bsf	i1___fladd@b+2,7
  8641     1598  2D9D               	goto	i1l708
  8642     1599                     i1l3423:
  8643     1599  307F               	movlw	127
  8644     159A  00DC               	movwf	??i1___fladd
  8645     159B  085C               	movf	??i1___fladd,w
  8646     159C  05D6               	andwf	i1___fladd@b+2,f
  8647     159D                     i1l708:
  8648     159D  0866               	movf	i1___fladd@bexp,w
  8649     159E  00DC               	movwf	??i1___fladd
  8650     159F  1003               	clrc
  8651     15A0  0C5C               	rrf	??i1___fladd,w
  8652     15A1  00D7               	movwf	i1___fladd@b+3
  8653     15A2                     i1l3425:
  8654     15A2  1FE4               	btfss	i1___fladd@signs,7
  8655     15A3  2DA5               	goto	u550_21
  8656     15A4  2DA6               	goto	u550_20
  8657     15A5                     u550_21:
  8658     15A5  2DA7               	goto	i1l709
  8659     15A6                     u550_20:
  8660     15A6                     i1l3427:
  8661     15A6  17D7               	bsf	i1___fladd@b+3,7
  8662     15A7                     i1l709:
  8663     15A7                     i1l679:
  8664     15A7  0008               	return
  8665     15A8                     __end_ofi1___fladd:
  8666                           
  8667                           	psect	text16
  8668     0894                     __ptext16:	
  8669 ;; *************** function i1_PWM_duty *****************
  8670 ;; Defined at:
  8671 ;;		line 34 in file "PWM_SERVO1.c"
  8672 ;; Parameters:    Size  Location     Type
  8673 ;;  canal           1    wreg     unsigned char 
  8674 ;;  duty            4    2[BANK1 ] float 
  8675 ;; Auto vars:     Size  Location     Type
  8676 ;;  canal           1    9[BANK1 ] unsigned char 
  8677 ;;  particion2      2   12[BANK1 ] int 
  8678 ;;  particion1      2   10[BANK1 ] int 
  8679 ;; Return value:  Size  Location     Type
  8680 ;;                  1    wreg      void 
  8681 ;; Registers used:
  8682 ;;		wreg, status,2, status,0, btemp+1, pclath, cstack
  8683 ;; Tracked objects:
  8684 ;;		On entry : 0/0
  8685 ;;		On exit  : 0/0
  8686 ;;		Unchanged: 0/0
  8687 ;; Data sizes:     COMMON   BANK0   BANK1   BANK3   BANK2
  8688 ;;      Params:         0       0       4       0       0
  8689 ;;      Locals:         0       0       5       0       0
  8690 ;;      Temps:          0       0       3       0       0
  8691 ;;      Totals:         0       0      12       0       0
  8692 ;;Total ram usage:       12 bytes
  8693 ;; Hardware stack levels used: 1
  8694 ;; Hardware stack levels required when called: 2
  8695 ;; This function calls:
  8696 ;;		i1___fldiv
  8697 ;;		i1___flmul
  8698 ;;		i1___fltol
  8699 ;; This function is called by:
  8700 ;;		_isr
  8701 ;;		_servos
  8702 ;; This function uses a non-reentrant model
  8703 ;;
  8704                           
  8705     0894                     i1_PWM_duty:	
  8706                           ;psect for function i1_PWM_duty
  8707                           
  8708                           
  8709                           ;incstack = 0
  8710                           ; Regs used in i1_PWM_duty: [wreg+status,2+status,0+btemp+1+pclath+cstack]
  8711                           ;i1PWM_duty@canal stored from wreg
  8712     0894  1683               	bsf	3,5	;RP0=1, select bank1
  8713     0895  1303               	bcf	3,6	;RP1=0, select bank1
  8714     0896  00A9               	movwf	i1PWM_duty@canal^(0+128)
  8715     0897                     i1l3213:
  8716                           
  8717                           ;PWM_SERVO1.c: 35:     if (canal == 1){
  8718     0897  0329               	decf	i1PWM_duty@canal^(0+128),w
  8719     0898  1D03               	btfss	3,2
  8720     0899  289B               	goto	u503_21
  8721     089A  289C               	goto	u503_20
  8722     089B                     u503_21:
  8723     089B  292D               	goto	i1l3223
  8724     089C                     u503_20:
  8725     089C                     i1l3215:
  8726                           
  8727                           ;PWM_SERVO1.c: 36:         int particion1 = (int)(4*duty/((1.0f/4000000)*16));
  8728     089C  0825               	movf	(i1PWM_duty@duty+3)^(0+128),w
  8729     089D  1283               	bcf	3,5	;RP0=0, select bank0
  8730     089E  1303               	bcf	3,6	;RP1=0, select bank0
  8731     089F  00C1               	movwf	i1___flmul@a+3
  8732     08A0  1683               	bsf	3,5	;RP0=1, select bank1
  8733     08A1  1303               	bcf	3,6	;RP1=0, select bank1
  8734     08A2  0824               	movf	(i1PWM_duty@duty+2)^(0+128),w
  8735     08A3  1283               	bcf	3,5	;RP0=0, select bank0
  8736     08A4  1303               	bcf	3,6	;RP1=0, select bank0
  8737     08A5  00C0               	movwf	i1___flmul@a+2
  8738     08A6  1683               	bsf	3,5	;RP0=1, select bank1
  8739     08A7  1303               	bcf	3,6	;RP1=0, select bank1
  8740     08A8  0823               	movf	(i1PWM_duty@duty+1)^(0+128),w
  8741     08A9  1283               	bcf	3,5	;RP0=0, select bank0
  8742     08AA  1303               	bcf	3,6	;RP1=0, select bank0
  8743     08AB  00BF               	movwf	i1___flmul@a+1
  8744     08AC  1683               	bsf	3,5	;RP0=1, select bank1
  8745     08AD  1303               	bcf	3,6	;RP1=0, select bank1
  8746     08AE  0822               	movf	i1PWM_duty@duty^(0+128),w
  8747     08AF  1283               	bcf	3,5	;RP0=0, select bank0
  8748     08B0  1303               	bcf	3,6	;RP1=0, select bank0
  8749     08B1  00BE               	movwf	i1___flmul@a
  8750     08B2  3040               	movlw	64
  8751     08B3  00BD               	movwf	i1___flmul@b+3
  8752     08B4  3080               	movlw	128
  8753     08B5  00BC               	movwf	i1___flmul@b+2
  8754     08B6  3000               	movlw	0
  8755     08B7  00BB               	movwf	i1___flmul@b+1
  8756     08B8  3000               	movlw	0
  8757     08B9  00BA               	movwf	i1___flmul@b
  8758     08BA  120A  118A  2384  120A  158A  	fcall	i1___flmul
  8759     08BF  1283               	bcf	3,5	;RP0=0, select bank0
  8760     08C0  1303               	bcf	3,6	;RP1=0, select bank0
  8761     08C1  083D               	movf	?i1___flmul+3,w
  8762     08C2  00A7               	movwf	i1___fldiv@b+3
  8763     08C3  083C               	movf	?i1___flmul+2,w
  8764     08C4  00A6               	movwf	i1___fldiv@b+2
  8765     08C5  083B               	movf	?i1___flmul+1,w
  8766     08C6  00A5               	movwf	i1___fldiv@b+1
  8767     08C7  083A               	movf	?i1___flmul,w
  8768     08C8  00A4               	movwf	i1___fldiv@b
  8769     08C9  3036               	movlw	54
  8770     08CA  00A3               	movwf	i1___fldiv@a+3
  8771     08CB  3086               	movlw	134
  8772     08CC  00A2               	movwf	i1___fldiv@a+2
  8773     08CD  3037               	movlw	55
  8774     08CE  00A1               	movwf	i1___fldiv@a+1
  8775     08CF  30BD               	movlw	189
  8776     08D0  00A0               	movwf	i1___fldiv@a
  8777     08D1  160A  158A  262D  120A  158A  	fcall	i1___fldiv
  8778     08D6  1283               	bcf	3,5	;RP0=0, select bank0
  8779     08D7  1303               	bcf	3,6	;RP1=0, select bank0
  8780     08D8  0823               	movf	?i1___fldiv+3,w
  8781     08D9  00EB               	movwf	i1___fltol@f1+3
  8782     08DA  0822               	movf	?i1___fldiv+2,w
  8783     08DB  00EA               	movwf	i1___fltol@f1+2
  8784     08DC  0821               	movf	?i1___fldiv+1,w
  8785     08DD  00E9               	movwf	i1___fltol@f1+1
  8786     08DE  0820               	movf	?i1___fldiv,w
  8787     08DF  00E8               	movwf	i1___fltol@f1
  8788     08E0  120A  158A  2006  120A  158A  	fcall	i1___fltol
  8789     08E5  1283               	bcf	3,5	;RP0=0, select bank0
  8790     08E6  1303               	bcf	3,6	;RP1=0, select bank0
  8791     08E7  0869               	movf	?i1___fltol+1,w
  8792     08E8  1683               	bsf	3,5	;RP0=1, select bank1
  8793     08E9  1303               	bcf	3,6	;RP1=0, select bank1
  8794     08EA  00AB               	movwf	(i1PWM_duty@particion1+1)^(0+128)
  8795     08EB  1283               	bcf	3,5	;RP0=0, select bank0
  8796     08EC  1303               	bcf	3,6	;RP1=0, select bank0
  8797     08ED  0868               	movf	?i1___fltol,w
  8798     08EE  1683               	bsf	3,5	;RP0=1, select bank1
  8799     08EF  1303               	bcf	3,6	;RP1=0, select bank1
  8800     08F0  00AA               	movwf	i1PWM_duty@particion1^(0+128)
  8801     08F1                     i1l3217:
  8802                           
  8803                           ;PWM_SERVO1.c: 37:         CCPR1L = (char)(-((particion1 >> 2)-69));
  8804     08F1  082B               	movf	(i1PWM_duty@particion1+1)^(0+128),w
  8805     08F2  00A7               	movwf	(??i1_PWM_duty^(0+128)+1)
  8806     08F3  082A               	movf	i1PWM_duty@particion1^(0+128),w
  8807     08F4  00A6               	movwf	??i1_PWM_duty^(0+128)
  8808     08F5  0D27               	rlf	(??i1_PWM_duty^(0+128)+1),w
  8809     08F6  0CA7               	rrf	(??i1_PWM_duty^(0+128)+1),f
  8810     08F7  0CA6               	rrf	??i1_PWM_duty^(0+128),f
  8811     08F8  0D27               	rlf	(??i1_PWM_duty^(0+128)+1),w
  8812     08F9  0CA7               	rrf	(??i1_PWM_duty^(0+128)+1),f
  8813     08FA  0CA6               	rrf	??i1_PWM_duty^(0+128),f
  8814     08FB  0826               	movf	??i1_PWM_duty^(0+128),w
  8815     08FC  3EBB               	addlw	187
  8816     08FD  3AFF               	xorlw	255
  8817     08FE  3E01               	addlw	1
  8818     08FF  1283               	bcf	3,5	;RP0=0, select bank0
  8819     0900  1303               	bcf	3,6	;RP1=0, select bank0
  8820     0901  0095               	movwf	21	;volatile
  8821     0902                     i1l3219:
  8822                           
  8823                           ;PWM_SERVO1.c: 41:         CCP1CONbits.DC1B0 = (particion1&(0b1));
  8824     0902  1683               	bsf	3,5	;RP0=1, select bank1
  8825     0903  1303               	bcf	3,6	;RP1=0, select bank1
  8826     0904  082A               	movf	i1PWM_duty@particion1^(0+128),w
  8827     0905  3901               	andlw	1
  8828     0906  00A6               	movwf	??i1_PWM_duty^(0+128)
  8829     0907  0EA6               	swapf	??i1_PWM_duty^(0+128),f
  8830     0908  1283               	bcf	3,5	;RP0=0, select bank0
  8831     0909  1303               	bcf	3,6	;RP1=0, select bank0
  8832     090A  0817               	movf	23,w	;volatile
  8833     090B  1683               	bsf	3,5	;RP0=1, select bank1
  8834     090C  1303               	bcf	3,6	;RP1=0, select bank1
  8835     090D  0626               	xorwf	??i1_PWM_duty^(0+128),w
  8836     090E  39EF               	andlw	-17
  8837     090F  0626               	xorwf	??i1_PWM_duty^(0+128),w
  8838     0910  1283               	bcf	3,5	;RP0=0, select bank0
  8839     0911  1303               	bcf	3,6	;RP1=0, select bank0
  8840     0912  0097               	movwf	23	;volatile
  8841     0913                     i1l3221:
  8842                           
  8843                           ;PWM_SERVO1.c: 42:         CCP1CONbits.DC1B1 = ((particion1>>1) &(0b1));
  8844     0913  1683               	bsf	3,5	;RP0=1, select bank1
  8845     0914  1303               	bcf	3,6	;RP1=0, select bank1
  8846     0915  082B               	movf	(i1PWM_duty@particion1+1)^(0+128),w
  8847     0916  00A7               	movwf	(??i1_PWM_duty^(0+128)+1)
  8848     0917  082A               	movf	i1PWM_duty@particion1^(0+128),w
  8849     0918  00A6               	movwf	??i1_PWM_duty^(0+128)
  8850     0919  0D27               	rlf	(??i1_PWM_duty^(0+128)+1),w
  8851     091A  0CA7               	rrf	(??i1_PWM_duty^(0+128)+1),f
  8852     091B  0CA6               	rrf	??i1_PWM_duty^(0+128),f
  8853     091C  0826               	movf	??i1_PWM_duty^(0+128),w
  8854     091D  3901               	andlw	1
  8855     091E  00A8               	movwf	(??i1_PWM_duty+2)^(0+128)
  8856     091F  0EA8               	swapf	(??i1_PWM_duty+2)^(0+128),f
  8857     0920  0DA8               	rlf	(??i1_PWM_duty+2)^(0+128),f
  8858     0921  1283               	bcf	3,5	;RP0=0, select bank0
  8859     0922  1303               	bcf	3,6	;RP1=0, select bank0
  8860     0923  0817               	movf	23,w	;volatile
  8861     0924  1683               	bsf	3,5	;RP0=1, select bank1
  8862     0925  1303               	bcf	3,6	;RP1=0, select bank1
  8863     0926  0628               	xorwf	(??i1_PWM_duty+2)^(0+128),w
  8864     0927  39DF               	andlw	-33
  8865     0928  0628               	xorwf	(??i1_PWM_duty+2)^(0+128),w
  8866     0929  1283               	bcf	3,5	;RP0=0, select bank0
  8867     092A  1303               	bcf	3,6	;RP1=0, select bank0
  8868     092B  0097               	movwf	23	;volatile
  8869                           
  8870                           ;PWM_SERVO1.c: 43:     }
  8871     092C  29C1               	goto	i1l287
  8872     092D                     i1l3223:
  8873     092D  3002               	movlw	2
  8874     092E  0629               	xorwf	i1PWM_duty@canal^(0+128),w
  8875     092F  1D03               	btfss	3,2
  8876     0930  2932               	goto	u504_21
  8877     0931  2933               	goto	u504_20
  8878     0932                     u504_21:
  8879     0932  29C1               	goto	i1l287
  8880     0933                     u504_20:
  8881     0933                     i1l3225:
  8882                           
  8883                           ;PWM_SERVO1.c: 45:         int particion2 = (int)(4*duty/((1.0f/4000000)*16));
  8884     0933  0825               	movf	(i1PWM_duty@duty+3)^(0+128),w
  8885     0934  1283               	bcf	3,5	;RP0=0, select bank0
  8886     0935  1303               	bcf	3,6	;RP1=0, select bank0
  8887     0936  00C1               	movwf	i1___flmul@a+3
  8888     0937  1683               	bsf	3,5	;RP0=1, select bank1
  8889     0938  1303               	bcf	3,6	;RP1=0, select bank1
  8890     0939  0824               	movf	(i1PWM_duty@duty+2)^(0+128),w
  8891     093A  1283               	bcf	3,5	;RP0=0, select bank0
  8892     093B  1303               	bcf	3,6	;RP1=0, select bank0
  8893     093C  00C0               	movwf	i1___flmul@a+2
  8894     093D  1683               	bsf	3,5	;RP0=1, select bank1
  8895     093E  1303               	bcf	3,6	;RP1=0, select bank1
  8896     093F  0823               	movf	(i1PWM_duty@duty+1)^(0+128),w
  8897     0940  1283               	bcf	3,5	;RP0=0, select bank0
  8898     0941  1303               	bcf	3,6	;RP1=0, select bank0
  8899     0942  00BF               	movwf	i1___flmul@a+1
  8900     0943  1683               	bsf	3,5	;RP0=1, select bank1
  8901     0944  1303               	bcf	3,6	;RP1=0, select bank1
  8902     0945  0822               	movf	i1PWM_duty@duty^(0+128),w
  8903     0946  1283               	bcf	3,5	;RP0=0, select bank0
  8904     0947  1303               	bcf	3,6	;RP1=0, select bank0
  8905     0948  00BE               	movwf	i1___flmul@a
  8906     0949  3040               	movlw	64
  8907     094A  00BD               	movwf	i1___flmul@b+3
  8908     094B  3080               	movlw	128
  8909     094C  00BC               	movwf	i1___flmul@b+2
  8910     094D  3000               	movlw	0
  8911     094E  00BB               	movwf	i1___flmul@b+1
  8912     094F  3000               	movlw	0
  8913     0950  00BA               	movwf	i1___flmul@b
  8914     0951  120A  118A  2384  120A  158A  	fcall	i1___flmul
  8915     0956  1283               	bcf	3,5	;RP0=0, select bank0
  8916     0957  1303               	bcf	3,6	;RP1=0, select bank0
  8917     0958  083D               	movf	?i1___flmul+3,w
  8918     0959  00A7               	movwf	i1___fldiv@b+3
  8919     095A  083C               	movf	?i1___flmul+2,w
  8920     095B  00A6               	movwf	i1___fldiv@b+2
  8921     095C  083B               	movf	?i1___flmul+1,w
  8922     095D  00A5               	movwf	i1___fldiv@b+1
  8923     095E  083A               	movf	?i1___flmul,w
  8924     095F  00A4               	movwf	i1___fldiv@b
  8925     0960  3036               	movlw	54
  8926     0961  00A3               	movwf	i1___fldiv@a+3
  8927     0962  3086               	movlw	134
  8928     0963  00A2               	movwf	i1___fldiv@a+2
  8929     0964  3037               	movlw	55
  8930     0965  00A1               	movwf	i1___fldiv@a+1
  8931     0966  30BD               	movlw	189
  8932     0967  00A0               	movwf	i1___fldiv@a
  8933     0968  160A  158A  262D  120A  158A  	fcall	i1___fldiv
  8934     096D  1283               	bcf	3,5	;RP0=0, select bank0
  8935     096E  1303               	bcf	3,6	;RP1=0, select bank0
  8936     096F  0823               	movf	?i1___fldiv+3,w
  8937     0970  00EB               	movwf	i1___fltol@f1+3
  8938     0971  0822               	movf	?i1___fldiv+2,w
  8939     0972  00EA               	movwf	i1___fltol@f1+2
  8940     0973  0821               	movf	?i1___fldiv+1,w
  8941     0974  00E9               	movwf	i1___fltol@f1+1
  8942     0975  0820               	movf	?i1___fldiv,w
  8943     0976  00E8               	movwf	i1___fltol@f1
  8944     0977  120A  158A  2006  120A  158A  	fcall	i1___fltol
  8945     097C  1283               	bcf	3,5	;RP0=0, select bank0
  8946     097D  1303               	bcf	3,6	;RP1=0, select bank0
  8947     097E  0869               	movf	?i1___fltol+1,w
  8948     097F  1683               	bsf	3,5	;RP0=1, select bank1
  8949     0980  1303               	bcf	3,6	;RP1=0, select bank1
  8950     0981  00AD               	movwf	(i1PWM_duty@particion2+1)^(0+128)
  8951     0982  1283               	bcf	3,5	;RP0=0, select bank0
  8952     0983  1303               	bcf	3,6	;RP1=0, select bank0
  8953     0984  0868               	movf	?i1___fltol,w
  8954     0985  1683               	bsf	3,5	;RP0=1, select bank1
  8955     0986  1303               	bcf	3,6	;RP1=0, select bank1
  8956     0987  00AC               	movwf	i1PWM_duty@particion2^(0+128)
  8957     0988                     i1l3227:
  8958                           
  8959                           ;PWM_SERVO1.c: 46:         CCPR2L = (char)(((particion2 >> 2)+60));
  8960     0988  082D               	movf	(i1PWM_duty@particion2+1)^(0+128),w
  8961     0989  00A7               	movwf	(??i1_PWM_duty^(0+128)+1)
  8962     098A  082C               	movf	i1PWM_duty@particion2^(0+128),w
  8963     098B  00A6               	movwf	??i1_PWM_duty^(0+128)
  8964     098C  0D27               	rlf	(??i1_PWM_duty^(0+128)+1),w
  8965     098D  0CA7               	rrf	(??i1_PWM_duty^(0+128)+1),f
  8966     098E  0CA6               	rrf	??i1_PWM_duty^(0+128),f
  8967     098F  0D27               	rlf	(??i1_PWM_duty^(0+128)+1),w
  8968     0990  0CA7               	rrf	(??i1_PWM_duty^(0+128)+1),f
  8969     0991  0CA6               	rrf	??i1_PWM_duty^(0+128),f
  8970     0992  0826               	movf	??i1_PWM_duty^(0+128),w
  8971     0993  3E3C               	addlw	60
  8972     0994  1283               	bcf	3,5	;RP0=0, select bank0
  8973     0995  1303               	bcf	3,6	;RP1=0, select bank0
  8974     0996  009B               	movwf	27	;volatile
  8975     0997                     i1l3229:
  8976                           
  8977                           ;PWM_SERVO1.c: 50:         CCP2CONbits.DC2B0 = (particion2&(0b1));
  8978     0997  1683               	bsf	3,5	;RP0=1, select bank1
  8979     0998  1303               	bcf	3,6	;RP1=0, select bank1
  8980     0999  082C               	movf	i1PWM_duty@particion2^(0+128),w
  8981     099A  3901               	andlw	1
  8982     099B  00A6               	movwf	??i1_PWM_duty^(0+128)
  8983     099C  0EA6               	swapf	??i1_PWM_duty^(0+128),f
  8984     099D  1283               	bcf	3,5	;RP0=0, select bank0
  8985     099E  1303               	bcf	3,6	;RP1=0, select bank0
  8986     099F  081D               	movf	29,w	;volatile
  8987     09A0  1683               	bsf	3,5	;RP0=1, select bank1
  8988     09A1  1303               	bcf	3,6	;RP1=0, select bank1
  8989     09A2  0626               	xorwf	??i1_PWM_duty^(0+128),w
  8990     09A3  39EF               	andlw	-17
  8991     09A4  0626               	xorwf	??i1_PWM_duty^(0+128),w
  8992     09A5  1283               	bcf	3,5	;RP0=0, select bank0
  8993     09A6  1303               	bcf	3,6	;RP1=0, select bank0
  8994     09A7  009D               	movwf	29	;volatile
  8995     09A8                     i1l3231:
  8996                           
  8997                           ;PWM_SERVO1.c: 51:         CCP2CONbits.DC2B1 = ((particion2>>1) &(0b1));
  8998     09A8  1683               	bsf	3,5	;RP0=1, select bank1
  8999     09A9  1303               	bcf	3,6	;RP1=0, select bank1
  9000     09AA  082D               	movf	(i1PWM_duty@particion2+1)^(0+128),w
  9001     09AB  00A7               	movwf	(??i1_PWM_duty^(0+128)+1)
  9002     09AC  082C               	movf	i1PWM_duty@particion2^(0+128),w
  9003     09AD  00A6               	movwf	??i1_PWM_duty^(0+128)
  9004     09AE  0D27               	rlf	(??i1_PWM_duty^(0+128)+1),w
  9005     09AF  0CA7               	rrf	(??i1_PWM_duty^(0+128)+1),f
  9006     09B0  0CA6               	rrf	??i1_PWM_duty^(0+128),f
  9007     09B1  0826               	movf	??i1_PWM_duty^(0+128),w
  9008     09B2  3901               	andlw	1
  9009     09B3  00A8               	movwf	(??i1_PWM_duty+2)^(0+128)
  9010     09B4  0EA8               	swapf	(??i1_PWM_duty+2)^(0+128),f
  9011     09B5  0DA8               	rlf	(??i1_PWM_duty+2)^(0+128),f
  9012     09B6  1283               	bcf	3,5	;RP0=0, select bank0
  9013     09B7  1303               	bcf	3,6	;RP1=0, select bank0
  9014     09B8  081D               	movf	29,w	;volatile
  9015     09B9  1683               	bsf	3,5	;RP0=1, select bank1
  9016     09BA  1303               	bcf	3,6	;RP1=0, select bank1
  9017     09BB  0628               	xorwf	(??i1_PWM_duty+2)^(0+128),w
  9018     09BC  39DF               	andlw	-33
  9019     09BD  0628               	xorwf	(??i1_PWM_duty+2)^(0+128),w
  9020     09BE  1283               	bcf	3,5	;RP0=0, select bank0
  9021     09BF  1303               	bcf	3,6	;RP1=0, select bank0
  9022     09C0  009D               	movwf	29	;volatile
  9023     09C1                     i1l287:
  9024     09C1  0008               	return
  9025     09C2                     __end_ofi1_PWM_duty:
  9026                           
  9027                           	psect	text17
  9028     0806                     __ptext17:	
  9029 ;; *************** function i1___fltol *****************
  9030 ;; Defined at:
  9031 ;;		line 43 in file "C:\Program Files\Microchip\xc8\v2.40\pic\sources\c90\common\fltol.c"
  9032 ;; Parameters:    Size  Location     Type
  9033 ;;  f1              4   72[BANK0 ] void 
  9034 ;; Auto vars:     Size  Location     Type
  9035 ;;  exp1            1    1[BANK1 ] unsigned char 
  9036 ;;  sign1           1    0[BANK1 ] unsigned char 
  9037 ;; Return value:  Size  Location     Type
  9038 ;;                  4   72[BANK0 ] long 
  9039 ;; Registers used:
  9040 ;;		wreg, status,2, status,0
  9041 ;; Tracked objects:
  9042 ;;		On entry : 0/0
  9043 ;;		On exit  : 0/0
  9044 ;;		Unchanged: 0/0
  9045 ;; Data sizes:     COMMON   BANK0   BANK1   BANK3   BANK2
  9046 ;;      Params:         0       4       0       0       0
  9047 ;;      Locals:         0       0       2       0       0
  9048 ;;      Temps:          0       4       0       0       0
  9049 ;;      Totals:         0       8       2       0       0
  9050 ;;Total ram usage:       10 bytes
  9051 ;; Hardware stack levels used: 1
  9052 ;; This function calls:
  9053 ;;		Nothing
  9054 ;; This function is called by:
  9055 ;;		_isr
  9056 ;;		_servos
  9057 ;;		i1_PWM_duty
  9058 ;; This function uses a non-reentrant model
  9059 ;;
  9060                           
  9061     0806                     i1___fltol:	
  9062                           ;psect for function i1___fltol
  9063                           
  9064     0806                     i1l2823:	
  9065                           ;incstack = 0
  9066                           ; Regs used in i1___fltol: [wreg+status,2+status,0]
  9067                           
  9068     0806  1003               	clrc
  9069     0807  1283               	bcf	3,5	;RP0=0, select bank0
  9070     0808  1303               	bcf	3,6	;RP1=0, select bank0
  9071     0809  0D6A               	rlf	i1___fltol@f1+2,w
  9072     080A  0D6B               	rlf	i1___fltol@f1+3,w
  9073     080B  1683               	bsf	3,5	;RP0=1, select bank1
  9074     080C  1303               	bcf	3,6	;RP1=0, select bank1
  9075     080D  00A1               	movwf	i1___fltol@exp1^(0+128)
  9076     080E  0821               	movf	i1___fltol@exp1^(0+128),w
  9077     080F  1D03               	btfss	3,2
  9078     0810  2812               	goto	u417_21
  9079     0811  2813               	goto	u417_20
  9080     0812                     u417_21:
  9081     0812  281E               	goto	i1l2829
  9082     0813                     u417_20:
  9083     0813                     i1l2825:
  9084     0813  3000               	movlw	0
  9085     0814  1283               	bcf	3,5	;RP0=0, select bank0
  9086     0815  1303               	bcf	3,6	;RP1=0, select bank0
  9087     0816  00EB               	movwf	?i1___fltol+3
  9088     0817  3000               	movlw	0
  9089     0818  00EA               	movwf	?i1___fltol+2
  9090     0819  3000               	movlw	0
  9091     081A  00E9               	movwf	?i1___fltol+1
  9092     081B  3000               	movlw	0
  9093     081C  00E8               	movwf	?i1___fltol
  9094     081D  2893               	goto	i1l559
  9095     081E                     i1l2829:
  9096     081E  1283               	bcf	3,5	;RP0=0, select bank0
  9097     081F  1303               	bcf	3,6	;RP1=0, select bank0
  9098     0820  0868               	movf	i1___fltol@f1,w
  9099     0821  00EC               	movwf	??i1___fltol
  9100     0822  0869               	movf	i1___fltol@f1+1,w
  9101     0823  00ED               	movwf	??i1___fltol+1
  9102     0824  086A               	movf	i1___fltol@f1+2,w
  9103     0825  00EE               	movwf	??i1___fltol+2
  9104     0826  086B               	movf	i1___fltol@f1+3,w
  9105     0827  00EF               	movwf	??i1___fltol+3
  9106     0828  301F               	movlw	31
  9107     0829                     u418_25:
  9108     0829  1003               	clrc
  9109     082A  0CEF               	rrf	??i1___fltol+3,f
  9110     082B  0CEE               	rrf	??i1___fltol+2,f
  9111     082C  0CED               	rrf	??i1___fltol+1,f
  9112     082D  0CEC               	rrf	??i1___fltol,f
  9113     082E                     u418_20:
  9114     082E  3EFF               	addlw	-1
  9115     082F  1D03               	skipz
  9116     0830  2829               	goto	u418_25
  9117     0831  086C               	movf	??i1___fltol,w
  9118     0832  1683               	bsf	3,5	;RP0=1, select bank1
  9119     0833  1303               	bcf	3,6	;RP1=0, select bank1
  9120     0834  00A0               	movwf	i1___fltol@sign1^(0+128)
  9121     0835                     i1l2831:
  9122     0835  1283               	bcf	3,5	;RP0=0, select bank0
  9123     0836  1303               	bcf	3,6	;RP1=0, select bank0
  9124     0837  17EA               	bsf	i1___fltol@f1+2,7
  9125     0838                     i1l2833:
  9126     0838  30FF               	movlw	255
  9127     0839  05E8               	andwf	i1___fltol@f1,f
  9128     083A  30FF               	movlw	255
  9129     083B  05E9               	andwf	i1___fltol@f1+1,f
  9130     083C  30FF               	movlw	255
  9131     083D  05EA               	andwf	i1___fltol@f1+2,f
  9132     083E  3000               	movlw	0
  9133     083F  05EB               	andwf	i1___fltol@f1+3,f
  9134     0840                     i1l2835:
  9135     0840  3096               	movlw	150
  9136     0841  1683               	bsf	3,5	;RP0=1, select bank1
  9137     0842  1303               	bcf	3,6	;RP1=0, select bank1
  9138     0843  02A1               	subwf	i1___fltol@exp1^(0+128),f
  9139     0844                     i1l2837:
  9140     0844  1FA1               	btfss	i1___fltol@exp1^(0+128),7
  9141     0845  2847               	goto	u419_21
  9142     0846  2848               	goto	u419_20
  9143     0847                     u419_21:
  9144     0847  2866               	goto	i1l2847
  9145     0848                     u419_20:
  9146     0848                     i1l2839:
  9147     0848  0821               	movf	i1___fltol@exp1^(0+128),w
  9148     0849  3A80               	xorlw	128
  9149     084A  3E97               	addlw	151
  9150     084B  1803               	skipnc
  9151     084C  284E               	goto	u420_21
  9152     084D  284F               	goto	u420_20
  9153     084E                     u420_21:
  9154     084E  2850               	goto	i1l2845
  9155     084F                     u420_20:
  9156     084F  2813               	goto	i1l2825
  9157     0850                     i1l2845:
  9158     0850  3001               	movlw	1
  9159     0851                     u421_25:
  9160     0851  1003               	clrc
  9161     0852  1283               	bcf	3,5	;RP0=0, select bank0
  9162     0853  1303               	bcf	3,6	;RP1=0, select bank0
  9163     0854  0CEB               	rrf	i1___fltol@f1+3,f
  9164     0855  0CEA               	rrf	i1___fltol@f1+2,f
  9165     0856  0CE9               	rrf	i1___fltol@f1+1,f
  9166     0857  0CE8               	rrf	i1___fltol@f1,f
  9167     0858  3EFF               	addlw	-1
  9168     0859  1D03               	skipz
  9169     085A  2851               	goto	u421_25
  9170     085B  3001               	movlw	1
  9171     085C  00EC               	movwf	??i1___fltol
  9172     085D  086C               	movf	??i1___fltol,w
  9173     085E  1683               	bsf	3,5	;RP0=1, select bank1
  9174     085F  1303               	bcf	3,6	;RP1=0, select bank1
  9175     0860  07A1               	addwf	i1___fltol@exp1^(0+128),f
  9176     0861  1D03               	btfss	3,2
  9177     0862  2864               	goto	u422_21
  9178     0863  2865               	goto	u422_20
  9179     0864                     u422_21:
  9180     0864  2850               	goto	i1l2845
  9181     0865                     u422_20:
  9182     0865  2881               	goto	i1l2855
  9183     0866                     i1l2847:
  9184     0866  3020               	movlw	32
  9185     0867  0221               	subwf	i1___fltol@exp1^(0+128),w
  9186     0868  1C03               	skipc
  9187     0869  286B               	goto	u423_21
  9188     086A  286C               	goto	u423_20
  9189     086B                     u423_21:
  9190     086B  287C               	goto	i1l566
  9191     086C                     u423_20:
  9192     086C  2813               	goto	i1l2825
  9193     086D                     i1l2853:
  9194     086D  3001               	movlw	1
  9195     086E  1283               	bcf	3,5	;RP0=0, select bank0
  9196     086F  1303               	bcf	3,6	;RP1=0, select bank0
  9197     0870  00EC               	movwf	??i1___fltol
  9198     0871                     u424_25:
  9199     0871  1003               	clrc
  9200     0872  0DE8               	rlf	i1___fltol@f1,f
  9201     0873  0DE9               	rlf	i1___fltol@f1+1,f
  9202     0874  0DEA               	rlf	i1___fltol@f1+2,f
  9203     0875  0DEB               	rlf	i1___fltol@f1+3,f
  9204     0876  0BEC               	decfsz	??i1___fltol,f
  9205     0877  2871               	goto	u424_25
  9206     0878  3001               	movlw	1
  9207     0879  1683               	bsf	3,5	;RP0=1, select bank1
  9208     087A  1303               	bcf	3,6	;RP1=0, select bank1
  9209     087B  02A1               	subwf	i1___fltol@exp1^(0+128),f
  9210     087C                     i1l566:
  9211     087C  0821               	movf	i1___fltol@exp1^(0+128),w
  9212     087D  1D03               	btfss	3,2
  9213     087E  2880               	goto	u425_21
  9214     087F  2881               	goto	u425_20
  9215     0880                     u425_21:
  9216     0880  286D               	goto	i1l2853
  9217     0881                     u425_20:
  9218     0881                     i1l2855:
  9219     0881  0820               	movf	i1___fltol@sign1^(0+128),w
  9220     0882  1903               	btfsc	3,2
  9221     0883  2885               	goto	u426_21
  9222     0884  2886               	goto	u426_20
  9223     0885                     u426_21:
  9224     0885  2893               	goto	i1l569
  9225     0886                     u426_20:
  9226     0886                     i1l2857:
  9227     0886  1283               	bcf	3,5	;RP0=0, select bank0
  9228     0887  1303               	bcf	3,6	;RP1=0, select bank0
  9229     0888  09E8               	comf	i1___fltol@f1,f
  9230     0889  09E9               	comf	i1___fltol@f1+1,f
  9231     088A  09EA               	comf	i1___fltol@f1+2,f
  9232     088B  09EB               	comf	i1___fltol@f1+3,f
  9233     088C  0AE8               	incf	i1___fltol@f1,f
  9234     088D  1903               	skipnz
  9235     088E  0AE9               	incf	i1___fltol@f1+1,f
  9236     088F  1903               	skipnz
  9237     0890  0AEA               	incf	i1___fltol@f1+2,f
  9238     0891  1903               	skipnz
  9239     0892  0AEB               	incf	i1___fltol@f1+3,f
  9240     0893                     i1l569:
  9241     0893                     i1l559:
  9242     0893  0008               	return
  9243     0894                     __end_ofi1___fltol:
  9244                           
  9245                           	psect	text18
  9246     0384                     __ptext18:	
  9247 ;; *************** function i1___flmul *****************
  9248 ;; Defined at:
  9249 ;;		line 8 in file "C:\Program Files\Microchip\xc8\v2.40\pic\sources\c90\common\sprcmul.c"
  9250 ;; Parameters:    Size  Location     Type
  9251 ;;  b               4   26[BANK0 ] long 
  9252 ;;  a               4   30[BANK0 ] long 
  9253 ;; Auto vars:     Size  Location     Type
  9254 ;;  prod            4   46[BANK0 ] struct .
  9255 ;;  grs             4   40[BANK0 ] unsigned long 
  9256 ;;  temp            2   50[BANK0 ] struct .
  9257 ;;  bexp            1   45[BANK0 ] unsigned char 
  9258 ;;  aexp            1   44[BANK0 ] unsigned char 
  9259 ;;  sign            1   39[BANK0 ] unsigned char 
  9260 ;; Return value:  Size  Location     Type
  9261 ;;                  4   26[BANK0 ] unsigned char 
  9262 ;; Registers used:
  9263 ;;		wreg, status,2, status,0, btemp+1, pclath, cstack
  9264 ;; Tracked objects:
  9265 ;;		On entry : 0/0
  9266 ;;		On exit  : 0/0
  9267 ;;		Unchanged: 0/0
  9268 ;; Data sizes:     COMMON   BANK0   BANK1   BANK3   BANK2
  9269 ;;      Params:         0       8       0       0       0
  9270 ;;      Locals:         0      13       0       0       0
  9271 ;;      Temps:          0       5       0       0       0
  9272 ;;      Totals:         0      26       0       0       0
  9273 ;;Total ram usage:       26 bytes
  9274 ;; Hardware stack levels used: 1
  9275 ;; Hardware stack levels required when called: 1
  9276 ;; This function calls:
  9277 ;;		i1__Umul8_16
  9278 ;; This function is called by:
  9279 ;;		_isr
  9280 ;;		_servos
  9281 ;;		i1_PWM_duty
  9282 ;; This function uses a non-reentrant model
  9283 ;;
  9284                           
  9285     0384                     i1___flmul:	
  9286                           ;psect for function i1___flmul
  9287                           
  9288     0384                     i1l3001:	
  9289                           ;incstack = 0
  9290                           ; Regs used in i1___flmul: [wreg+status,2+status,0+btemp+1+pclath+cstack]
  9291                           
  9292     0384  1283               	bcf	3,5	;RP0=0, select bank0
  9293     0385  1303               	bcf	3,6	;RP1=0, select bank0
  9294     0386  083D               	movf	i1___flmul@b+3,w
  9295     0387  3980               	andlw	128
  9296     0388  00C7               	movwf	i1___flmul@sign
  9297     0389                     i1l3003:
  9298     0389  083D               	movf	i1___flmul@b+3,w
  9299     038A  00C2               	movwf	??i1___flmul
  9300     038B  0742               	addwf	??i1___flmul,w
  9301     038C  00CD               	movwf	i1___flmul@bexp
  9302     038D                     i1l3005:
  9303     038D  1FBC               	btfss	i1___flmul@b+2,7
  9304     038E  2B90               	goto	u456_21
  9305     038F  2B91               	goto	u456_20
  9306     0390                     u456_21:
  9307     0390  2B92               	goto	i1l3009
  9308     0391                     u456_20:
  9309     0391                     i1l3007:
  9310     0391  144D               	bsf	i1___flmul@bexp,0
  9311     0392                     i1l3009:
  9312     0392  084D               	movf	i1___flmul@bexp,w
  9313     0393  1903               	btfsc	3,2
  9314     0394  2B96               	goto	u457_21
  9315     0395  2B97               	goto	u457_20
  9316     0396                     u457_21:
  9317     0396  2BA6               	goto	i1l3017
  9318     0397                     u457_20:
  9319     0397                     i1l3011:
  9320     0397  0A4D               	incf	i1___flmul@bexp,w
  9321     0398  1D03               	btfss	3,2
  9322     0399  2B9B               	goto	u458_21
  9323     039A  2B9C               	goto	u458_20
  9324     039B                     u458_21:
  9325     039B  2BA4               	goto	i1l3015
  9326     039C                     u458_20:
  9327     039C                     i1l3013:
  9328     039C  3000               	movlw	0
  9329     039D  00BD               	movwf	i1___flmul@b+3
  9330     039E  3000               	movlw	0
  9331     039F  00BC               	movwf	i1___flmul@b+2
  9332     03A0  3000               	movlw	0
  9333     03A1  00BB               	movwf	i1___flmul@b+1
  9334     03A2  3000               	movlw	0
  9335     03A3  00BA               	movwf	i1___flmul@b
  9336     03A4                     i1l3015:
  9337     03A4  17BC               	bsf	i1___flmul@b+2,7
  9338     03A5  2BAE               	goto	i1l3019
  9339     03A6                     i1l3017:
  9340     03A6  3000               	movlw	0
  9341     03A7  00BD               	movwf	i1___flmul@b+3
  9342     03A8  3000               	movlw	0
  9343     03A9  00BC               	movwf	i1___flmul@b+2
  9344     03AA  3000               	movlw	0
  9345     03AB  00BB               	movwf	i1___flmul@b+1
  9346     03AC  3000               	movlw	0
  9347     03AD  00BA               	movwf	i1___flmul@b
  9348     03AE                     i1l3019:
  9349     03AE  0841               	movf	i1___flmul@a+3,w
  9350     03AF  3980               	andlw	128
  9351     03B0  00C2               	movwf	??i1___flmul
  9352     03B1  0842               	movf	??i1___flmul,w
  9353     03B2  06C7               	xorwf	i1___flmul@sign,f
  9354     03B3                     i1l3021:
  9355     03B3  0841               	movf	i1___flmul@a+3,w
  9356     03B4  00C2               	movwf	??i1___flmul
  9357     03B5  0742               	addwf	??i1___flmul,w
  9358     03B6  00CC               	movwf	i1___flmul@aexp
  9359     03B7                     i1l3023:
  9360     03B7  1FC0               	btfss	i1___flmul@a+2,7
  9361     03B8  2BBA               	goto	u459_21
  9362     03B9  2BBB               	goto	u459_20
  9363     03BA                     u459_21:
  9364     03BA  2BBC               	goto	i1l3027
  9365     03BB                     u459_20:
  9366     03BB                     i1l3025:
  9367     03BB  144C               	bsf	i1___flmul@aexp,0
  9368     03BC                     i1l3027:
  9369     03BC  084C               	movf	i1___flmul@aexp,w
  9370     03BD  1903               	btfsc	3,2
  9371     03BE  2BC0               	goto	u460_21
  9372     03BF  2BC1               	goto	u460_20
  9373     03C0                     u460_21:
  9374     03C0  2BD0               	goto	i1l3035
  9375     03C1                     u460_20:
  9376     03C1                     i1l3029:
  9377     03C1  0A4C               	incf	i1___flmul@aexp,w
  9378     03C2  1D03               	btfss	3,2
  9379     03C3  2BC5               	goto	u461_21
  9380     03C4  2BC6               	goto	u461_20
  9381     03C5                     u461_21:
  9382     03C5  2BCE               	goto	i1l3033
  9383     03C6                     u461_20:
  9384     03C6                     i1l3031:
  9385     03C6  3000               	movlw	0
  9386     03C7  00C1               	movwf	i1___flmul@a+3
  9387     03C8  3000               	movlw	0
  9388     03C9  00C0               	movwf	i1___flmul@a+2
  9389     03CA  3000               	movlw	0
  9390     03CB  00BF               	movwf	i1___flmul@a+1
  9391     03CC  3000               	movlw	0
  9392     03CD  00BE               	movwf	i1___flmul@a
  9393     03CE                     i1l3033:
  9394     03CE  17C0               	bsf	i1___flmul@a+2,7
  9395     03CF  2BD8               	goto	i1l3037
  9396     03D0                     i1l3035:
  9397     03D0  3000               	movlw	0
  9398     03D1  00C1               	movwf	i1___flmul@a+3
  9399     03D2  3000               	movlw	0
  9400     03D3  00C0               	movwf	i1___flmul@a+2
  9401     03D4  3000               	movlw	0
  9402     03D5  00BF               	movwf	i1___flmul@a+1
  9403     03D6  3000               	movlw	0
  9404     03D7  00BE               	movwf	i1___flmul@a
  9405     03D8                     i1l3037:
  9406     03D8  084C               	movf	i1___flmul@aexp,w
  9407     03D9  1903               	btfsc	3,2
  9408     03DA  2BDC               	goto	u462_21
  9409     03DB  2BDD               	goto	u462_20
  9410     03DC                     u462_21:
  9411     03DC  2BE2               	goto	i1l3041
  9412     03DD                     u462_20:
  9413     03DD                     i1l3039:
  9414     03DD  084D               	movf	i1___flmul@bexp,w
  9415     03DE  1D03               	btfss	3,2
  9416     03DF  2BE1               	goto	u463_21
  9417     03E0  2BE2               	goto	u463_20
  9418     03E1                     u463_21:
  9419     03E1  2BEB               	goto	i1l3045
  9420     03E2                     u463_20:
  9421     03E2                     i1l3041:
  9422     03E2  3000               	movlw	0
  9423     03E3  00BD               	movwf	?i1___flmul+3
  9424     03E4  3000               	movlw	0
  9425     03E5  00BC               	movwf	?i1___flmul+2
  9426     03E6  3000               	movlw	0
  9427     03E7  00BB               	movwf	?i1___flmul+1
  9428     03E8  3000               	movlw	0
  9429     03E9  00BA               	movwf	?i1___flmul
  9430     03EA  2EC8               	goto	i1l762
  9431     03EB                     i1l3045:
  9432     03EB  083A               	movf	i1___flmul@b,w
  9433     03EC  00F0               	movwf	i1__Umul8_16@multiplicand
  9434     03ED  0840               	movf	i1___flmul@a+2,w
  9435     03EE  160A  158A  21CC  120A  118A  	fcall	i1__Umul8_16
  9436     03F3  0871               	movf	?i1__Umul8_16+1,w
  9437     03F4  1283               	bcf	3,5	;RP0=0, select bank0
  9438     03F5  1303               	bcf	3,6	;RP1=0, select bank0
  9439     03F6  00D3               	movwf	i1___flmul@temp+1
  9440     03F7  0870               	movf	?i1__Umul8_16,w
  9441     03F8  00D2               	movwf	i1___flmul@temp
  9442     03F9                     i1l3047:
  9443     03F9  0852               	movf	i1___flmul@temp,w
  9444     03FA  00C2               	movwf	??i1___flmul
  9445     03FB  01C3               	clrf	??i1___flmul+1
  9446     03FC  01C4               	clrf	??i1___flmul+2
  9447     03FD  01C5               	clrf	??i1___flmul+3
  9448     03FE  0845               	movf	??i1___flmul+3,w
  9449     03FF  00CB               	movwf	i1___flmul@grs+3
  9450     0400  0844               	movf	??i1___flmul+2,w
  9451     0401  00CA               	movwf	i1___flmul@grs+2
  9452     0402  0843               	movf	??i1___flmul+1,w
  9453     0403  00C9               	movwf	i1___flmul@grs+1
  9454     0404  0842               	movf	??i1___flmul,w
  9455     0405  00C8               	movwf	i1___flmul@grs
  9456     0406                     i1l3049:
  9457     0406  0853               	movf	i1___flmul@temp+1,w
  9458     0407  00C2               	movwf	??i1___flmul
  9459     0408  01C3               	clrf	??i1___flmul+1
  9460     0409  01C4               	clrf	??i1___flmul+2
  9461     040A  01C5               	clrf	??i1___flmul+3
  9462     040B  0845               	movf	??i1___flmul+3,w
  9463     040C  00D1               	movwf	i1___flmul@prod+3
  9464     040D  0844               	movf	??i1___flmul+2,w
  9465     040E  00D0               	movwf	i1___flmul@prod+2
  9466     040F  0843               	movf	??i1___flmul+1,w
  9467     0410  00CF               	movwf	i1___flmul@prod+1
  9468     0411  0842               	movf	??i1___flmul,w
  9469     0412  00CE               	movwf	i1___flmul@prod
  9470     0413  083B               	movf	i1___flmul@b+1,w
  9471     0414  00F0               	movwf	i1__Umul8_16@multiplicand
  9472     0415  083F               	movf	i1___flmul@a+1,w
  9473     0416  160A  158A  21CC  120A  118A  	fcall	i1__Umul8_16
  9474     041B  0871               	movf	?i1__Umul8_16+1,w
  9475     041C  1283               	bcf	3,5	;RP0=0, select bank0
  9476     041D  1303               	bcf	3,6	;RP1=0, select bank0
  9477     041E  00D3               	movwf	i1___flmul@temp+1
  9478     041F  0870               	movf	?i1__Umul8_16,w
  9479     0420  00D2               	movwf	i1___flmul@temp
  9480     0421                     i1l3051:
  9481     0421  0852               	movf	i1___flmul@temp,w
  9482     0422  00C2               	movwf	??i1___flmul
  9483     0423  01C3               	clrf	??i1___flmul+1
  9484     0424  01C4               	clrf	??i1___flmul+2
  9485     0425  01C5               	clrf	??i1___flmul+3
  9486     0426  0842               	movf	??i1___flmul,w
  9487     0427  07C8               	addwf	i1___flmul@grs,f
  9488     0428  0843               	movf	??i1___flmul+1,w
  9489     0429  1103               	clrz
  9490     042A  1803               	skipnc
  9491     042B  3E01               	addlw	1
  9492     042C  1903               	skipnz
  9493     042D  2C2F               	goto	u464_21
  9494     042E  07C9               	addwf	i1___flmul@grs+1,f
  9495     042F                     u464_21:
  9496     042F  0844               	movf	??i1___flmul+2,w
  9497     0430  1103               	clrz
  9498     0431  1803               	skipnc
  9499     0432  3E01               	addlw	1
  9500     0433  1903               	skipnz
  9501     0434  2C36               	goto	u464_22
  9502     0435  07CA               	addwf	i1___flmul@grs+2,f
  9503     0436                     u464_22:
  9504     0436  0845               	movf	??i1___flmul+3,w
  9505     0437  1103               	clrz
  9506     0438  1803               	skipnc
  9507     0439  3E01               	addlw	1
  9508     043A  1903               	skipnz
  9509     043B  2C3D               	goto	u464_23
  9510     043C  07CB               	addwf	i1___flmul@grs+3,f
  9511     043D                     u464_23:
  9512     043D                     i1l3053:
  9513     043D  0853               	movf	i1___flmul@temp+1,w
  9514     043E  00C2               	movwf	??i1___flmul
  9515     043F  01C3               	clrf	??i1___flmul+1
  9516     0440  01C4               	clrf	??i1___flmul+2
  9517     0441  01C5               	clrf	??i1___flmul+3
  9518     0442  0842               	movf	??i1___flmul,w
  9519     0443  07CE               	addwf	i1___flmul@prod,f
  9520     0444  0843               	movf	??i1___flmul+1,w
  9521     0445  1103               	clrz
  9522     0446  1803               	skipnc
  9523     0447  3E01               	addlw	1
  9524     0448  1903               	skipnz
  9525     0449  2C4B               	goto	u465_21
  9526     044A  07CF               	addwf	i1___flmul@prod+1,f
  9527     044B                     u465_21:
  9528     044B  0844               	movf	??i1___flmul+2,w
  9529     044C  1103               	clrz
  9530     044D  1803               	skipnc
  9531     044E  3E01               	addlw	1
  9532     044F  1903               	skipnz
  9533     0450  2C52               	goto	u465_22
  9534     0451  07D0               	addwf	i1___flmul@prod+2,f
  9535     0452                     u465_22:
  9536     0452  0845               	movf	??i1___flmul+3,w
  9537     0453  1103               	clrz
  9538     0454  1803               	skipnc
  9539     0455  3E01               	addlw	1
  9540     0456  1903               	skipnz
  9541     0457  2C59               	goto	u465_23
  9542     0458  07D1               	addwf	i1___flmul@prod+3,f
  9543     0459                     u465_23:
  9544     0459  083C               	movf	i1___flmul@b+2,w
  9545     045A  00F0               	movwf	i1__Umul8_16@multiplicand
  9546     045B  083E               	movf	i1___flmul@a,w
  9547     045C  160A  158A  21CC  120A  118A  	fcall	i1__Umul8_16
  9548     0461  0871               	movf	?i1__Umul8_16+1,w
  9549     0462  1283               	bcf	3,5	;RP0=0, select bank0
  9550     0463  1303               	bcf	3,6	;RP1=0, select bank0
  9551     0464  00D3               	movwf	i1___flmul@temp+1
  9552     0465  0870               	movf	?i1__Umul8_16,w
  9553     0466  00D2               	movwf	i1___flmul@temp
  9554     0467                     i1l3055:
  9555     0467  0852               	movf	i1___flmul@temp,w
  9556     0468  00C2               	movwf	??i1___flmul
  9557     0469  01C3               	clrf	??i1___flmul+1
  9558     046A  01C4               	clrf	??i1___flmul+2
  9559     046B  01C5               	clrf	??i1___flmul+3
  9560     046C  0842               	movf	??i1___flmul,w
  9561     046D  07C8               	addwf	i1___flmul@grs,f
  9562     046E  0843               	movf	??i1___flmul+1,w
  9563     046F  1103               	clrz
  9564     0470  1803               	skipnc
  9565     0471  3E01               	addlw	1
  9566     0472  1903               	skipnz
  9567     0473  2C75               	goto	u466_21
  9568     0474  07C9               	addwf	i1___flmul@grs+1,f
  9569     0475                     u466_21:
  9570     0475  0844               	movf	??i1___flmul+2,w
  9571     0476  1103               	clrz
  9572     0477  1803               	skipnc
  9573     0478  3E01               	addlw	1
  9574     0479  1903               	skipnz
  9575     047A  2C7C               	goto	u466_22
  9576     047B  07CA               	addwf	i1___flmul@grs+2,f
  9577     047C                     u466_22:
  9578     047C  0845               	movf	??i1___flmul+3,w
  9579     047D  1103               	clrz
  9580     047E  1803               	skipnc
  9581     047F  3E01               	addlw	1
  9582     0480  1903               	skipnz
  9583     0481  2C83               	goto	u466_23
  9584     0482  07CB               	addwf	i1___flmul@grs+3,f
  9585     0483                     u466_23:
  9586     0483                     i1l3057:
  9587     0483  0853               	movf	i1___flmul@temp+1,w
  9588     0484  00C2               	movwf	??i1___flmul
  9589     0485  01C3               	clrf	??i1___flmul+1
  9590     0486  01C4               	clrf	??i1___flmul+2
  9591     0487  01C5               	clrf	??i1___flmul+3
  9592     0488  0842               	movf	??i1___flmul,w
  9593     0489  07CE               	addwf	i1___flmul@prod,f
  9594     048A  0843               	movf	??i1___flmul+1,w
  9595     048B  1103               	clrz
  9596     048C  1803               	skipnc
  9597     048D  3E01               	addlw	1
  9598     048E  1903               	skipnz
  9599     048F  2C91               	goto	u467_21
  9600     0490  07CF               	addwf	i1___flmul@prod+1,f
  9601     0491                     u467_21:
  9602     0491  0844               	movf	??i1___flmul+2,w
  9603     0492  1103               	clrz
  9604     0493  1803               	skipnc
  9605     0494  3E01               	addlw	1
  9606     0495  1903               	skipnz
  9607     0496  2C98               	goto	u467_22
  9608     0497  07D0               	addwf	i1___flmul@prod+2,f
  9609     0498                     u467_22:
  9610     0498  0845               	movf	??i1___flmul+3,w
  9611     0499  1103               	clrz
  9612     049A  1803               	skipnc
  9613     049B  3E01               	addlw	1
  9614     049C  1903               	skipnz
  9615     049D  2C9F               	goto	u467_23
  9616     049E  07D1               	addwf	i1___flmul@prod+3,f
  9617     049F                     u467_23:
  9618     049F                     i1l3059:
  9619     049F  3008               	movlw	8
  9620     04A0  00C2               	movwf	??i1___flmul
  9621     04A1                     u468_25:
  9622     04A1  1003               	clrc
  9623     04A2  0DC8               	rlf	i1___flmul@grs,f
  9624     04A3  0DC9               	rlf	i1___flmul@grs+1,f
  9625     04A4  0DCA               	rlf	i1___flmul@grs+2,f
  9626     04A5  0DCB               	rlf	i1___flmul@grs+3,f
  9627     04A6  0BC2               	decfsz	??i1___flmul,f
  9628     04A7  2CA1               	goto	u468_25
  9629     04A8                     i1l3061:
  9630     04A8  083B               	movf	i1___flmul@b+1,w
  9631     04A9  00F0               	movwf	i1__Umul8_16@multiplicand
  9632     04AA  083E               	movf	i1___flmul@a,w
  9633     04AB  160A  158A  21CC  120A  118A  	fcall	i1__Umul8_16
  9634     04B0  0871               	movf	?i1__Umul8_16+1,w
  9635     04B1  1283               	bcf	3,5	;RP0=0, select bank0
  9636     04B2  1303               	bcf	3,6	;RP1=0, select bank0
  9637     04B3  00D3               	movwf	i1___flmul@temp+1
  9638     04B4  0870               	movf	?i1__Umul8_16,w
  9639     04B5  00D2               	movwf	i1___flmul@temp
  9640     04B6                     i1l3063:
  9641     04B6  0852               	movf	i1___flmul@temp,w
  9642     04B7  00C2               	movwf	??i1___flmul
  9643     04B8  0853               	movf	i1___flmul@temp+1,w
  9644     04B9  00C3               	movwf	??i1___flmul+1
  9645     04BA  01C4               	clrf	??i1___flmul+2
  9646     04BB  01C5               	clrf	??i1___flmul+3
  9647     04BC  0842               	movf	??i1___flmul,w
  9648     04BD  07C8               	addwf	i1___flmul@grs,f
  9649     04BE  0843               	movf	??i1___flmul+1,w
  9650     04BF  1103               	clrz
  9651     04C0  1803               	skipnc
  9652     04C1  3E01               	addlw	1
  9653     04C2  1903               	skipnz
  9654     04C3  2CC5               	goto	u469_21
  9655     04C4  07C9               	addwf	i1___flmul@grs+1,f
  9656     04C5                     u469_21:
  9657     04C5  0844               	movf	??i1___flmul+2,w
  9658     04C6  1103               	clrz
  9659     04C7  1803               	skipnc
  9660     04C8  3E01               	addlw	1
  9661     04C9  1903               	skipnz
  9662     04CA  2CCC               	goto	u469_22
  9663     04CB  07CA               	addwf	i1___flmul@grs+2,f
  9664     04CC                     u469_22:
  9665     04CC  0845               	movf	??i1___flmul+3,w
  9666     04CD  1103               	clrz
  9667     04CE  1803               	skipnc
  9668     04CF  3E01               	addlw	1
  9669     04D0  1903               	skipnz
  9670     04D1  2CD3               	goto	u469_23
  9671     04D2  07CB               	addwf	i1___flmul@grs+3,f
  9672     04D3                     u469_23:
  9673     04D3                     i1l3065:
  9674     04D3  083A               	movf	i1___flmul@b,w
  9675     04D4  00F0               	movwf	i1__Umul8_16@multiplicand
  9676     04D5  083F               	movf	i1___flmul@a+1,w
  9677     04D6  160A  158A  21CC  120A  118A  	fcall	i1__Umul8_16
  9678     04DB  0871               	movf	?i1__Umul8_16+1,w
  9679     04DC  1283               	bcf	3,5	;RP0=0, select bank0
  9680     04DD  1303               	bcf	3,6	;RP1=0, select bank0
  9681     04DE  00D3               	movwf	i1___flmul@temp+1
  9682     04DF  0870               	movf	?i1__Umul8_16,w
  9683     04E0  00D2               	movwf	i1___flmul@temp
  9684     04E1                     i1l3067:
  9685     04E1  0852               	movf	i1___flmul@temp,w
  9686     04E2  00C2               	movwf	??i1___flmul
  9687     04E3  0853               	movf	i1___flmul@temp+1,w
  9688     04E4  00C3               	movwf	??i1___flmul+1
  9689     04E5  01C4               	clrf	??i1___flmul+2
  9690     04E6  01C5               	clrf	??i1___flmul+3
  9691     04E7  0842               	movf	??i1___flmul,w
  9692     04E8  07C8               	addwf	i1___flmul@grs,f
  9693     04E9  0843               	movf	??i1___flmul+1,w
  9694     04EA  1103               	clrz
  9695     04EB  1803               	skipnc
  9696     04EC  3E01               	addlw	1
  9697     04ED  1903               	skipnz
  9698     04EE  2CF0               	goto	u470_21
  9699     04EF  07C9               	addwf	i1___flmul@grs+1,f
  9700     04F0                     u470_21:
  9701     04F0  0844               	movf	??i1___flmul+2,w
  9702     04F1  1103               	clrz
  9703     04F2  1803               	skipnc
  9704     04F3  3E01               	addlw	1
  9705     04F4  1903               	skipnz
  9706     04F5  2CF7               	goto	u470_22
  9707     04F6  07CA               	addwf	i1___flmul@grs+2,f
  9708     04F7                     u470_22:
  9709     04F7  0845               	movf	??i1___flmul+3,w
  9710     04F8  1103               	clrz
  9711     04F9  1803               	skipnc
  9712     04FA  3E01               	addlw	1
  9713     04FB  1903               	skipnz
  9714     04FC  2CFE               	goto	u470_23
  9715     04FD  07CB               	addwf	i1___flmul@grs+3,f
  9716     04FE                     u470_23:
  9717     04FE                     i1l3069:
  9718     04FE  3008               	movlw	8
  9719     04FF  00C2               	movwf	??i1___flmul
  9720     0500                     u471_25:
  9721     0500  1003               	clrc
  9722     0501  0DC8               	rlf	i1___flmul@grs,f
  9723     0502  0DC9               	rlf	i1___flmul@grs+1,f
  9724     0503  0DCA               	rlf	i1___flmul@grs+2,f
  9725     0504  0DCB               	rlf	i1___flmul@grs+3,f
  9726     0505  0BC2               	decfsz	??i1___flmul,f
  9727     0506  2D00               	goto	u471_25
  9728     0507  083A               	movf	i1___flmul@b,w
  9729     0508  00F0               	movwf	i1__Umul8_16@multiplicand
  9730     0509  083E               	movf	i1___flmul@a,w
  9731     050A  160A  158A  21CC  120A  118A  	fcall	i1__Umul8_16
  9732     050F  0871               	movf	?i1__Umul8_16+1,w
  9733     0510  1283               	bcf	3,5	;RP0=0, select bank0
  9734     0511  1303               	bcf	3,6	;RP1=0, select bank0
  9735     0512  00D3               	movwf	i1___flmul@temp+1
  9736     0513  0870               	movf	?i1__Umul8_16,w
  9737     0514  00D2               	movwf	i1___flmul@temp
  9738     0515                     i1l3071:
  9739     0515  0852               	movf	i1___flmul@temp,w
  9740     0516  00C2               	movwf	??i1___flmul
  9741     0517  0853               	movf	i1___flmul@temp+1,w
  9742     0518  00C3               	movwf	??i1___flmul+1
  9743     0519  01C4               	clrf	??i1___flmul+2
  9744     051A  01C5               	clrf	??i1___flmul+3
  9745     051B  0842               	movf	??i1___flmul,w
  9746     051C  07C8               	addwf	i1___flmul@grs,f
  9747     051D  0843               	movf	??i1___flmul+1,w
  9748     051E  1103               	clrz
  9749     051F  1803               	skipnc
  9750     0520  3E01               	addlw	1
  9751     0521  1903               	skipnz
  9752     0522  2D24               	goto	u472_21
  9753     0523  07C9               	addwf	i1___flmul@grs+1,f
  9754     0524                     u472_21:
  9755     0524  0844               	movf	??i1___flmul+2,w
  9756     0525  1103               	clrz
  9757     0526  1803               	skipnc
  9758     0527  3E01               	addlw	1
  9759     0528  1903               	skipnz
  9760     0529  2D2B               	goto	u472_22
  9761     052A  07CA               	addwf	i1___flmul@grs+2,f
  9762     052B                     u472_22:
  9763     052B  0845               	movf	??i1___flmul+3,w
  9764     052C  1103               	clrz
  9765     052D  1803               	skipnc
  9766     052E  3E01               	addlw	1
  9767     052F  1903               	skipnz
  9768     0530  2D32               	goto	u472_23
  9769     0531  07CB               	addwf	i1___flmul@grs+3,f
  9770     0532                     u472_23:
  9771     0532                     i1l3073:
  9772     0532  083B               	movf	i1___flmul@b+1,w
  9773     0533  00F0               	movwf	i1__Umul8_16@multiplicand
  9774     0534  0840               	movf	i1___flmul@a+2,w
  9775     0535  160A  158A  21CC  120A  118A  	fcall	i1__Umul8_16
  9776     053A  0871               	movf	?i1__Umul8_16+1,w
  9777     053B  1283               	bcf	3,5	;RP0=0, select bank0
  9778     053C  1303               	bcf	3,6	;RP1=0, select bank0
  9779     053D  00D3               	movwf	i1___flmul@temp+1
  9780     053E  0870               	movf	?i1__Umul8_16,w
  9781     053F  00D2               	movwf	i1___flmul@temp
  9782     0540  0852               	movf	i1___flmul@temp,w
  9783     0541  00C2               	movwf	??i1___flmul
  9784     0542  0853               	movf	i1___flmul@temp+1,w
  9785     0543  00C3               	movwf	??i1___flmul+1
  9786     0544  01C4               	clrf	??i1___flmul+2
  9787     0545  01C5               	clrf	??i1___flmul+3
  9788     0546  0842               	movf	??i1___flmul,w
  9789     0547  07CE               	addwf	i1___flmul@prod,f
  9790     0548  0843               	movf	??i1___flmul+1,w
  9791     0549  1103               	clrz
  9792     054A  1803               	skipnc
  9793     054B  3E01               	addlw	1
  9794     054C  1903               	skipnz
  9795     054D  2D4F               	goto	u473_21
  9796     054E  07CF               	addwf	i1___flmul@prod+1,f
  9797     054F                     u473_21:
  9798     054F  0844               	movf	??i1___flmul+2,w
  9799     0550  1103               	clrz
  9800     0551  1803               	skipnc
  9801     0552  3E01               	addlw	1
  9802     0553  1903               	skipnz
  9803     0554  2D56               	goto	u473_22
  9804     0555  07D0               	addwf	i1___flmul@prod+2,f
  9805     0556                     u473_22:
  9806     0556  0845               	movf	??i1___flmul+3,w
  9807     0557  1103               	clrz
  9808     0558  1803               	skipnc
  9809     0559  3E01               	addlw	1
  9810     055A  1903               	skipnz
  9811     055B  2D5D               	goto	u473_23
  9812     055C  07D1               	addwf	i1___flmul@prod+3,f
  9813     055D                     u473_23:
  9814     055D                     i1l3075:
  9815     055D  083C               	movf	i1___flmul@b+2,w
  9816     055E  00F0               	movwf	i1__Umul8_16@multiplicand
  9817     055F  083F               	movf	i1___flmul@a+1,w
  9818     0560  160A  158A  21CC  120A  118A  	fcall	i1__Umul8_16
  9819     0565  0871               	movf	?i1__Umul8_16+1,w
  9820     0566  1283               	bcf	3,5	;RP0=0, select bank0
  9821     0567  1303               	bcf	3,6	;RP1=0, select bank0
  9822     0568  00D3               	movwf	i1___flmul@temp+1
  9823     0569  0870               	movf	?i1__Umul8_16,w
  9824     056A  00D2               	movwf	i1___flmul@temp
  9825     056B                     i1l3077:
  9826     056B  0852               	movf	i1___flmul@temp,w
  9827     056C  00C2               	movwf	??i1___flmul
  9828     056D  0853               	movf	i1___flmul@temp+1,w
  9829     056E  00C3               	movwf	??i1___flmul+1
  9830     056F  01C4               	clrf	??i1___flmul+2
  9831     0570  01C5               	clrf	??i1___flmul+3
  9832     0571  0842               	movf	??i1___flmul,w
  9833     0572  07CE               	addwf	i1___flmul@prod,f
  9834     0573  0843               	movf	??i1___flmul+1,w
  9835     0574  1103               	clrz
  9836     0575  1803               	skipnc
  9837     0576  3E01               	addlw	1
  9838     0577  1903               	skipnz
  9839     0578  2D7A               	goto	u474_21
  9840     0579  07CF               	addwf	i1___flmul@prod+1,f
  9841     057A                     u474_21:
  9842     057A  0844               	movf	??i1___flmul+2,w
  9843     057B  1103               	clrz
  9844     057C  1803               	skipnc
  9845     057D  3E01               	addlw	1
  9846     057E  1903               	skipnz
  9847     057F  2D81               	goto	u474_22
  9848     0580  07D0               	addwf	i1___flmul@prod+2,f
  9849     0581                     u474_22:
  9850     0581  0845               	movf	??i1___flmul+3,w
  9851     0582  1103               	clrz
  9852     0583  1803               	skipnc
  9853     0584  3E01               	addlw	1
  9854     0585  1903               	skipnz
  9855     0586  2D88               	goto	u474_23
  9856     0587  07D1               	addwf	i1___flmul@prod+3,f
  9857     0588                     u474_23:
  9858     0588  083C               	movf	i1___flmul@b+2,w
  9859     0589  00F0               	movwf	i1__Umul8_16@multiplicand
  9860     058A  0840               	movf	i1___flmul@a+2,w
  9861     058B  160A  158A  21CC  120A  118A  	fcall	i1__Umul8_16
  9862     0590  0871               	movf	?i1__Umul8_16+1,w
  9863     0591  1283               	bcf	3,5	;RP0=0, select bank0
  9864     0592  1303               	bcf	3,6	;RP1=0, select bank0
  9865     0593  00D3               	movwf	i1___flmul@temp+1
  9866     0594  0870               	movf	?i1__Umul8_16,w
  9867     0595  00D2               	movwf	i1___flmul@temp
  9868     0596                     i1l3079:
  9869     0596  0852               	movf	i1___flmul@temp,w
  9870     0597  00C2               	movwf	??i1___flmul
  9871     0598  0853               	movf	i1___flmul@temp+1,w
  9872     0599  00C3               	movwf	??i1___flmul+1
  9873     059A  01C4               	clrf	??i1___flmul+2
  9874     059B  01C5               	clrf	??i1___flmul+3
  9875     059C  3008               	movlw	8
  9876     059D                     u475_25:
  9877     059D  1003               	clrc
  9878     059E  0DC2               	rlf	??i1___flmul,f
  9879     059F  0DC3               	rlf	??i1___flmul+1,f
  9880     05A0  0DC4               	rlf	??i1___flmul+2,f
  9881     05A1  0DC5               	rlf	??i1___flmul+3,f
  9882     05A2                     u475_20:
  9883     05A2  3EFF               	addlw	-1
  9884     05A3  1D03               	skipz
  9885     05A4  2D9D               	goto	u475_25
  9886     05A5  0842               	movf	??i1___flmul,w
  9887     05A6  07CE               	addwf	i1___flmul@prod,f
  9888     05A7  0843               	movf	??i1___flmul+1,w
  9889     05A8  1103               	clrz
  9890     05A9  1803               	skipnc
  9891     05AA  3E01               	addlw	1
  9892     05AB  1903               	skipnz
  9893     05AC  2DAE               	goto	u476_21
  9894     05AD  07CF               	addwf	i1___flmul@prod+1,f
  9895     05AE                     u476_21:
  9896     05AE  0844               	movf	??i1___flmul+2,w
  9897     05AF  1103               	clrz
  9898     05B0  1803               	skipnc
  9899     05B1  3E01               	addlw	1
  9900     05B2  1903               	skipnz
  9901     05B3  2DB5               	goto	u476_22
  9902     05B4  07D0               	addwf	i1___flmul@prod+2,f
  9903     05B5                     u476_22:
  9904     05B5  0845               	movf	??i1___flmul+3,w
  9905     05B6  1103               	clrz
  9906     05B7  1803               	skipnc
  9907     05B8  3E01               	addlw	1
  9908     05B9  1903               	skipnz
  9909     05BA  2DBC               	goto	u476_23
  9910     05BB  07D1               	addwf	i1___flmul@prod+3,f
  9911     05BC                     u476_23:
  9912     05BC                     i1l3081:
  9913     05BC  0848               	movf	i1___flmul@grs,w
  9914     05BD  00C2               	movwf	??i1___flmul
  9915     05BE  0849               	movf	i1___flmul@grs+1,w
  9916     05BF  00C3               	movwf	??i1___flmul+1
  9917     05C0  084A               	movf	i1___flmul@grs+2,w
  9918     05C1  00C4               	movwf	??i1___flmul+2
  9919     05C2  084B               	movf	i1___flmul@grs+3,w
  9920     05C3  00C5               	movwf	??i1___flmul+3
  9921     05C4  3018               	movlw	24
  9922     05C5                     u477_25:
  9923     05C5  1003               	clrc
  9924     05C6  0CC5               	rrf	??i1___flmul+3,f
  9925     05C7  0CC4               	rrf	??i1___flmul+2,f
  9926     05C8  0CC3               	rrf	??i1___flmul+1,f
  9927     05C9  0CC2               	rrf	??i1___flmul,f
  9928     05CA                     u477_20:
  9929     05CA  3EFF               	addlw	-1
  9930     05CB  1D03               	skipz
  9931     05CC  2DC5               	goto	u477_25
  9932     05CD  0842               	movf	??i1___flmul,w
  9933     05CE  07CE               	addwf	i1___flmul@prod,f
  9934     05CF  0843               	movf	??i1___flmul+1,w
  9935     05D0  1103               	clrz
  9936     05D1  1803               	skipnc
  9937     05D2  3E01               	addlw	1
  9938     05D3  1903               	skipnz
  9939     05D4  2DD6               	goto	u478_21
  9940     05D5  07CF               	addwf	i1___flmul@prod+1,f
  9941     05D6                     u478_21:
  9942     05D6  0844               	movf	??i1___flmul+2,w
  9943     05D7  1103               	clrz
  9944     05D8  1803               	skipnc
  9945     05D9  3E01               	addlw	1
  9946     05DA  1903               	skipnz
  9947     05DB  2DDD               	goto	u478_22
  9948     05DC  07D0               	addwf	i1___flmul@prod+2,f
  9949     05DD                     u478_22:
  9950     05DD  0845               	movf	??i1___flmul+3,w
  9951     05DE  1103               	clrz
  9952     05DF  1803               	skipnc
  9953     05E0  3E01               	addlw	1
  9954     05E1  1903               	skipnz
  9955     05E2  2DE4               	goto	u478_23
  9956     05E3  07D1               	addwf	i1___flmul@prod+3,f
  9957     05E4                     u478_23:
  9958     05E4                     i1l3083:
  9959     05E4  3008               	movlw	8
  9960     05E5  00C2               	movwf	??i1___flmul
  9961     05E6                     u479_25:
  9962     05E6  1003               	clrc
  9963     05E7  0DC8               	rlf	i1___flmul@grs,f
  9964     05E8  0DC9               	rlf	i1___flmul@grs+1,f
  9965     05E9  0DCA               	rlf	i1___flmul@grs+2,f
  9966     05EA  0DCB               	rlf	i1___flmul@grs+3,f
  9967     05EB  0BC2               	decfsz	??i1___flmul,f
  9968     05EC  2DE6               	goto	u479_25
  9969     05ED                     i1l3085:
  9970     05ED  084D               	movf	i1___flmul@bexp,w
  9971     05EE  074C               	addwf	i1___flmul@aexp,w
  9972     05EF  00C2               	movwf	??i1___flmul
  9973     05F0  01C3               	clrf	??i1___flmul+1
  9974     05F1  0DC3               	rlf	??i1___flmul+1,f
  9975     05F2  0842               	movf	??i1___flmul,w
  9976     05F3  3E82               	addlw	130
  9977     05F4  00D2               	movwf	i1___flmul@temp
  9978     05F5  0843               	movf	??i1___flmul+1,w
  9979     05F6  1803               	skipnc
  9980     05F7  3E01               	addlw	1
  9981     05F8  3EFF               	addlw	255
  9982     05F9  00D3               	movwf	i1___flmul@temp+1
  9983     05FA  2E18               	goto	i1l3097
  9984     05FB                     i1l3087:
  9985     05FB  3001               	movlw	1
  9986     05FC  00C2               	movwf	??i1___flmul
  9987     05FD                     u480_25:
  9988     05FD  1003               	clrc
  9989     05FE  0DCE               	rlf	i1___flmul@prod,f
  9990     05FF  0DCF               	rlf	i1___flmul@prod+1,f
  9991     0600  0DD0               	rlf	i1___flmul@prod+2,f
  9992     0601  0DD1               	rlf	i1___flmul@prod+3,f
  9993     0602  0BC2               	decfsz	??i1___flmul,f
  9994     0603  2DFD               	goto	u480_25
  9995     0604                     i1l3089:
  9996     0604  1FCB               	btfss	i1___flmul@grs+3,7
  9997     0605  2E07               	goto	u481_21
  9998     0606  2E08               	goto	u481_20
  9999     0607                     u481_21:
 10000     0607  2E09               	goto	i1l3093
 10001     0608                     u481_20:
 10002     0608                     i1l3091:
 10003     0608  144E               	bsf	i1___flmul@prod,0
 10004     0609                     i1l3093:
 10005     0609  3001               	movlw	1
 10006     060A  00C2               	movwf	??i1___flmul
 10007     060B                     u482_25:
 10008     060B  1003               	clrc
 10009     060C  0DC8               	rlf	i1___flmul@grs,f
 10010     060D  0DC9               	rlf	i1___flmul@grs+1,f
 10011     060E  0DCA               	rlf	i1___flmul@grs+2,f
 10012     060F  0DCB               	rlf	i1___flmul@grs+3,f
 10013     0610  0BC2               	decfsz	??i1___flmul,f
 10014     0611  2E0B               	goto	u482_25
 10015     0612                     i1l3095:
 10016     0612  30FF               	movlw	255
 10017     0613  07D2               	addwf	i1___flmul@temp,f
 10018     0614  1803               	skipnc
 10019     0615  0AD3               	incf	i1___flmul@temp+1,f
 10020     0616  30FF               	movlw	255
 10021     0617  07D3               	addwf	i1___flmul@temp+1,f
 10022     0618                     i1l3097:
 10023     0618  1FD0               	btfss	i1___flmul@prod+2,7
 10024     0619  2E1B               	goto	u483_21
 10025     061A  2E1C               	goto	u483_20
 10026     061B                     u483_21:
 10027     061B  2DFB               	goto	i1l3087
 10028     061C                     u483_20:
 10029     061C                     i1l3099:
 10030     061C  01CC               	clrf	i1___flmul@aexp
 10031     061D                     i1l3101:
 10032     061D  1FCB               	btfss	i1___flmul@grs+3,7
 10033     061E  2E20               	goto	u484_21
 10034     061F  2E21               	goto	u484_20
 10035     0620                     u484_21:
 10036     0620  2E3D               	goto	i1l3109
 10037     0621                     u484_20:
 10038     0621                     i1l3103:
 10039     0621  30FF               	movlw	255
 10040     0622  0548               	andwf	i1___flmul@grs,w
 10041     0623  00C2               	movwf	??i1___flmul
 10042     0624  30FF               	movlw	255
 10043     0625  0549               	andwf	i1___flmul@grs+1,w
 10044     0626  00C3               	movwf	??i1___flmul+1
 10045     0627  30FF               	movlw	255
 10046     0628  054A               	andwf	i1___flmul@grs+2,w
 10047     0629  00C4               	movwf	??i1___flmul+2
 10048     062A  307F               	movlw	127
 10049     062B  054B               	andwf	i1___flmul@grs+3,w
 10050     062C  00C5               	movwf	??i1___flmul+3
 10051     062D  0845               	movf	??i1___flmul+3,w
 10052     062E  0444               	iorwf	??i1___flmul+2,w
 10053     062F  0443               	iorwf	??i1___flmul+1,w
 10054     0630  0442               	iorwf	??i1___flmul,w
 10055     0631  1903               	skipnz
 10056     0632  2E34               	goto	u485_21
 10057     0633  2E35               	goto	u485_20
 10058     0634                     u485_21:
 10059     0634  2E38               	goto	i1l768
 10060     0635                     u485_20:
 10061     0635                     i1l3105:
 10062     0635  01CC               	clrf	i1___flmul@aexp
 10063     0636  0ACC               	incf	i1___flmul@aexp,f
 10064     0637  2E3D               	goto	i1l3109
 10065     0638                     i1l768:
 10066     0638  1C4E               	btfss	i1___flmul@prod,0
 10067     0639  2E3B               	goto	u486_21
 10068     063A  2E3C               	goto	u486_20
 10069     063B                     u486_21:
 10070     063B  2E3D               	goto	i1l3109
 10071     063C                     u486_20:
 10072     063C  2E35               	goto	i1l3105
 10073     063D                     i1l3109:
 10074     063D  084C               	movf	i1___flmul@aexp,w
 10075     063E  1903               	btfsc	3,2
 10076     063F  2E41               	goto	u487_21
 10077     0640  2E42               	goto	u487_20
 10078     0641                     u487_21:
 10079     0641  2E73               	goto	i1l3119
 10080     0642                     u487_20:
 10081     0642                     i1l3111:
 10082     0642  3001               	movlw	1
 10083     0643  07CE               	addwf	i1___flmul@prod,f
 10084     0644  3000               	movlw	0
 10085     0645  1803               	skipnc
 10086     0646  3001               	movlw	1
 10087     0647  07CF               	addwf	i1___flmul@prod+1,f
 10088     0648  3000               	movlw	0
 10089     0649  1803               	skipnc
 10090     064A  3001               	movlw	1
 10091     064B  07D0               	addwf	i1___flmul@prod+2,f
 10092     064C  3000               	movlw	0
 10093     064D  1803               	skipnc
 10094     064E  3001               	movlw	1
 10095     064F  07D1               	addwf	i1___flmul@prod+3,f
 10096     0650                     i1l3113:
 10097     0650  1C51               	btfss	i1___flmul@prod+3,0
 10098     0651  2E53               	goto	u488_21
 10099     0652  2E54               	goto	u488_20
 10100     0653                     u488_21:
 10101     0653  2E73               	goto	i1l3119
 10102     0654                     u488_20:
 10103     0654                     i1l3115:
 10104     0654  084E               	movf	i1___flmul@prod,w
 10105     0655  00C2               	movwf	??i1___flmul
 10106     0656  084F               	movf	i1___flmul@prod+1,w
 10107     0657  00C3               	movwf	??i1___flmul+1
 10108     0658  0850               	movf	i1___flmul@prod+2,w
 10109     0659  00C4               	movwf	??i1___flmul+2
 10110     065A  0851               	movf	i1___flmul@prod+3,w
 10111     065B  00C5               	movwf	??i1___flmul+3
 10112     065C  3001               	movlw	1
 10113     065D  00C6               	movwf	??i1___flmul+4
 10114     065E                     u489_25:
 10115     065E  0D45               	rlf	??i1___flmul+3,w
 10116     065F  0CC5               	rrf	??i1___flmul+3,f
 10117     0660  0CC4               	rrf	??i1___flmul+2,f
 10118     0661  0CC3               	rrf	??i1___flmul+1,f
 10119     0662  0CC2               	rrf	??i1___flmul,f
 10120     0663                     u489_20:
 10121     0663  0BC6               	decfsz	??i1___flmul+4,f
 10122     0664  2E5E               	goto	u489_25
 10123     0665  0845               	movf	??i1___flmul+3,w
 10124     0666  00D1               	movwf	i1___flmul@prod+3
 10125     0667  0844               	movf	??i1___flmul+2,w
 10126     0668  00D0               	movwf	i1___flmul@prod+2
 10127     0669  0843               	movf	??i1___flmul+1,w
 10128     066A  00CF               	movwf	i1___flmul@prod+1
 10129     066B  0842               	movf	??i1___flmul,w
 10130     066C  00CE               	movwf	i1___flmul@prod
 10131     066D                     i1l3117:
 10132     066D  3001               	movlw	1
 10133     066E  07D2               	addwf	i1___flmul@temp,f
 10134     066F  1803               	skipnc
 10135     0670  0AD3               	incf	i1___flmul@temp+1,f
 10136     0671  3000               	movlw	0
 10137     0672  07D3               	addwf	i1___flmul@temp+1,f
 10138     0673                     i1l3119:
 10139     0673  0853               	movf	i1___flmul@temp+1,w
 10140     0674  3A80               	xorlw	128
 10141     0675  00FF               	movwf	btemp+1
 10142     0676  3080               	movlw	128
 10143     0677  027F               	subwf	btemp+1,w
 10144     0678  1D03               	skipz
 10145     0679  2E7C               	goto	u490_25
 10146     067A  30FF               	movlw	255
 10147     067B  0252               	subwf	i1___flmul@temp,w
 10148     067C                     u490_25:
 10149     067C  1C03               	skipc
 10150     067D  2E7F               	goto	u490_21
 10151     067E  2E80               	goto	u490_20
 10152     067F                     u490_21:
 10153     067F  2E8B               	goto	i1l3123
 10154     0680                     u490_20:
 10155     0680                     i1l3121:
 10156     0680  307F               	movlw	127
 10157     0681  1283               	bcf	3,5	;RP0=0, select bank0
 10158     0682  1303               	bcf	3,6	;RP1=0, select bank0
 10159     0683  00D1               	movwf	i1___flmul@prod+3
 10160     0684  3080               	movlw	128
 10161     0685  00D0               	movwf	i1___flmul@prod+2
 10162     0686  3000               	movlw	0
 10163     0687  00CF               	movwf	i1___flmul@prod+1
 10164     0688  3000               	movlw	0
 10165     0689  00CE               	movwf	i1___flmul@prod
 10166     068A  2EBC               	goto	i1l774
 10167     068B                     i1l3123:
 10168     068B  1283               	bcf	3,5	;RP0=0, select bank0
 10169     068C  1303               	bcf	3,6	;RP1=0, select bank0
 10170     068D  0853               	movf	i1___flmul@temp+1,w
 10171     068E  3A80               	xorlw	128
 10172     068F  00FF               	movwf	btemp+1
 10173     0690  3080               	movlw	128
 10174     0691  027F               	subwf	btemp+1,w
 10175     0692  1D03               	skipz
 10176     0693  2E96               	goto	u491_25
 10177     0694  3001               	movlw	1
 10178     0695  0252               	subwf	i1___flmul@temp,w
 10179     0696                     u491_25:
 10180     0696  1803               	skipnc
 10181     0697  2E99               	goto	u491_21
 10182     0698  2E9A               	goto	u491_20
 10183     0699                     u491_21:
 10184     0699  2EA6               	goto	i1l3129
 10185     069A                     u491_20:
 10186     069A                     i1l3125:
 10187     069A  3000               	movlw	0
 10188     069B  1283               	bcf	3,5	;RP0=0, select bank0
 10189     069C  1303               	bcf	3,6	;RP1=0, select bank0
 10190     069D  00D1               	movwf	i1___flmul@prod+3
 10191     069E  3000               	movlw	0
 10192     069F  00D0               	movwf	i1___flmul@prod+2
 10193     06A0  3000               	movlw	0
 10194     06A1  00CF               	movwf	i1___flmul@prod+1
 10195     06A2  3000               	movlw	0
 10196     06A3  00CE               	movwf	i1___flmul@prod
 10197     06A4                     i1l3127:
 10198     06A4  01C7               	clrf	i1___flmul@sign
 10199     06A5  2EBC               	goto	i1l774
 10200     06A6                     i1l3129:
 10201     06A6  1283               	bcf	3,5	;RP0=0, select bank0
 10202     06A7  1303               	bcf	3,6	;RP1=0, select bank0
 10203     06A8  0852               	movf	i1___flmul@temp,w
 10204     06A9  00CD               	movwf	i1___flmul@bexp
 10205     06AA  30FF               	movlw	255
 10206     06AB  05CE               	andwf	i1___flmul@prod,f
 10207     06AC  30FF               	movlw	255
 10208     06AD  05CF               	andwf	i1___flmul@prod+1,f
 10209     06AE  307F               	movlw	127
 10210     06AF  05D0               	andwf	i1___flmul@prod+2,f
 10211     06B0  3000               	movlw	0
 10212     06B1  05D1               	andwf	i1___flmul@prod+3,f
 10213     06B2                     i1l3131:
 10214     06B2  1C4D               	btfss	i1___flmul@bexp,0
 10215     06B3  2EB5               	goto	u492_21
 10216     06B4  2EB6               	goto	u492_20
 10217     06B5                     u492_21:
 10218     06B5  2EB7               	goto	i1l3135
 10219     06B6                     u492_20:
 10220     06B6                     i1l3133:
 10221     06B6  17D0               	bsf	i1___flmul@prod+2,7
 10222     06B7                     i1l3135:
 10223     06B7  084D               	movf	i1___flmul@bexp,w
 10224     06B8  00C2               	movwf	??i1___flmul
 10225     06B9  1003               	clrc
 10226     06BA  0C42               	rrf	??i1___flmul,w
 10227     06BB  00D1               	movwf	i1___flmul@prod+3
 10228     06BC                     i1l774:
 10229     06BC  0847               	movf	i1___flmul@sign,w
 10230     06BD  00C2               	movwf	??i1___flmul
 10231     06BE  0842               	movf	??i1___flmul,w
 10232     06BF  04D1               	iorwf	i1___flmul@prod+3,f
 10233     06C0                     i1l3137:
 10234     06C0  0851               	movf	i1___flmul@prod+3,w
 10235     06C1  00BD               	movwf	?i1___flmul+3
 10236     06C2  0850               	movf	i1___flmul@prod+2,w
 10237     06C3  00BC               	movwf	?i1___flmul+2
 10238     06C4  084F               	movf	i1___flmul@prod+1,w
 10239     06C5  00BB               	movwf	?i1___flmul+1
 10240     06C6  084E               	movf	i1___flmul@prod,w
 10241     06C7  00BA               	movwf	?i1___flmul
 10242     06C8                     i1l762:
 10243     06C8  0008               	return
 10244     06C9                     __end_ofi1___flmul:
 10245                           
 10246                           	psect	text19
 10247     19CC                     __ptext19:	
 10248 ;; *************** function i1__Umul8_16 *****************
 10249 ;; Defined at:
 10250 ;;		line 4 in file "C:\Program Files\Microchip\xc8\v2.40\pic\sources\c90\common\Umul8_16.c"
 10251 ;; Parameters:    Size  Location     Type
 10252 ;;  multiplier      1    wreg     unsigned char 
 10253 ;;  multiplicand    1    0[COMMON] unsigned char 
 10254 ;; Auto vars:     Size  Location     Type
 10255 ;;  multiplier      1    8[COMMON] unsigned char 
 10256 ;;  word_mpld       2    6[COMMON] unsigned int 
 10257 ;;  product         2    4[COMMON] unsigned int 
 10258 ;; Return value:  Size  Location     Type
 10259 ;;                  2    0[COMMON] unsigned int 
 10260 ;; Registers used:
 10261 ;;		wreg, status,2, status,0
 10262 ;; Tracked objects:
 10263 ;;		On entry : 0/0
 10264 ;;		On exit  : 0/0
 10265 ;;		Unchanged: 0/0
 10266 ;; Data sizes:     COMMON   BANK0   BANK1   BANK3   BANK2
 10267 ;;      Params:         2       0       0       0       0
 10268 ;;      Locals:         5       0       0       0       0
 10269 ;;      Temps:          2       0       0       0       0
 10270 ;;      Totals:         9       0       0       0       0
 10271 ;;Total ram usage:        9 bytes
 10272 ;; Hardware stack levels used: 1
 10273 ;; This function calls:
 10274 ;;		Nothing
 10275 ;; This function is called by:
 10276 ;;		i1___flmul
 10277 ;; This function uses a non-reentrant model
 10278 ;;
 10279                           
 10280     19CC                     i1__Umul8_16:	
 10281                           ;psect for function i1__Umul8_16
 10282                           
 10283                           
 10284                           ;incstack = 0
 10285                           ; Regs used in i1__Umul8_16: [wreg+status,2+status,0]
 10286                           ;i1__Umul8_16@multiplier stored from wreg
 10287     19CC  00F8               	movwf	i1__Umul8_16@multiplier
 10288     19CD                     i1l2491:
 10289     19CD  01F4               	clrf	i1__Umul8_16@product
 10290     19CE  01F5               	clrf	i1__Umul8_16@product+1
 10291     19CF                     i1l2493:
 10292     19CF  0870               	movf	i1__Umul8_16@multiplicand,w
 10293     19D0  00F2               	movwf	??i1__Umul8_16
 10294     19D1  01F3               	clrf	??i1__Umul8_16+1
 10295     19D2  0872               	movf	??i1__Umul8_16,w
 10296     19D3  00F6               	movwf	i1__Umul8_16@word_mpld
 10297     19D4  0873               	movf	??i1__Umul8_16+1,w
 10298     19D5  00F7               	movwf	i1__Umul8_16@word_mpld+1
 10299     19D6                     i1l2495:
 10300     19D6  1C78               	btfss	i1__Umul8_16@multiplier,0
 10301     19D7  29D9               	goto	u338_21
 10302     19D8  29DA               	goto	u338_20
 10303     19D9                     u338_21:
 10304     19D9  29E0               	goto	i1l781
 10305     19DA                     u338_20:
 10306     19DA                     i1l2497:
 10307     19DA  0876               	movf	i1__Umul8_16@word_mpld,w
 10308     19DB  07F4               	addwf	i1__Umul8_16@product,f
 10309     19DC  1803               	skipnc
 10310     19DD  0AF5               	incf	i1__Umul8_16@product+1,f
 10311     19DE  0877               	movf	i1__Umul8_16@word_mpld+1,w
 10312     19DF  07F5               	addwf	i1__Umul8_16@product+1,f
 10313     19E0                     i1l781:
 10314     19E0  3001               	movlw	1
 10315     19E1                     u339_25:
 10316     19E1  1003               	clrc
 10317     19E2  0DF6               	rlf	i1__Umul8_16@word_mpld,f
 10318     19E3  0DF7               	rlf	i1__Umul8_16@word_mpld+1,f
 10319     19E4  3EFF               	addlw	-1
 10320     19E5  1D03               	skipz
 10321     19E6  29E1               	goto	u339_25
 10322     19E7  1003               	clrc
 10323     19E8  0CF8               	rrf	i1__Umul8_16@multiplier,f
 10324     19E9                     i1l2499:
 10325     19E9  0878               	movf	i1__Umul8_16@multiplier,w
 10326     19EA  1D03               	btfss	3,2
 10327     19EB  29ED               	goto	u340_21
 10328     19EC  29EE               	goto	u340_20
 10329     19ED                     u340_21:
 10330     19ED  29D6               	goto	i1l2495
 10331     19EE                     u340_20:
 10332     19EE                     i1l2501:
 10333     19EE  0875               	movf	i1__Umul8_16@product+1,w
 10334     19EF  00F1               	movwf	?i1__Umul8_16+1
 10335     19F0  0874               	movf	i1__Umul8_16@product,w
 10336     19F1  00F0               	movwf	?i1__Umul8_16
 10337     19F2                     i1l783:
 10338     19F2  0008               	return
 10339     19F3                     __end_ofi1__Umul8_16:
 10340                           
 10341                           	psect	text20
 10342     1E2D                     __ptext20:	
 10343 ;; *************** function i1___fldiv *****************
 10344 ;; Defined at:
 10345 ;;		line 8 in file "C:\Program Files\Microchip\xc8\v2.40\pic\sources\c90\common\sprcdiv.c"
 10346 ;; Parameters:    Size  Location     Type
 10347 ;;  a               4    0[BANK0 ] unsigned int 
 10348 ;;  b               4    4[BANK0 ] unsigned int 
 10349 ;; Auto vars:     Size  Location     Type
 10350 ;;  grs             4   20[BANK0 ] unsigned long 
 10351 ;;  rem             4   13[BANK0 ] unsigned long 
 10352 ;;  new_exp         2   18[BANK0 ] int 
 10353 ;;  aexp            1   25[BANK0 ] unsigned char 
 10354 ;;  bexp            1   24[BANK0 ] unsigned char 
 10355 ;;  sign            1   17[BANK0 ] unsigned char 
 10356 ;; Return value:  Size  Location     Type
 10357 ;;                  4    0[BANK0 ] unsigned char 
 10358 ;; Registers used:
 10359 ;;		wreg, status,2, status,0, btemp+1
 10360 ;; Tracked objects:
 10361 ;;		On entry : 0/0
 10362 ;;		On exit  : 0/0
 10363 ;;		Unchanged: 0/0
 10364 ;; Data sizes:     COMMON   BANK0   BANK1   BANK3   BANK2
 10365 ;;      Params:         0       8       0       0       0
 10366 ;;      Locals:         0      13       0       0       0
 10367 ;;      Temps:          0       5       0       0       0
 10368 ;;      Totals:         0      26       0       0       0
 10369 ;;Total ram usage:       26 bytes
 10370 ;; Hardware stack levels used: 1
 10371 ;; This function calls:
 10372 ;;		Nothing
 10373 ;; This function is called by:
 10374 ;;		_isr
 10375 ;;		_servos
 10376 ;;		i1_PWM_duty
 10377 ;; This function uses a non-reentrant model
 10378 ;;
 10379                           
 10380     1E2D                     i1___fldiv:	
 10381                           ;psect for function i1___fldiv
 10382                           
 10383     1E2D                     i1l2859:	
 10384                           ;incstack = 0
 10385                           ; Regs used in i1___fldiv: [wreg+status,2+status,0+btemp+1]
 10386                           
 10387     1E2D  1283               	bcf	3,5	;RP0=0, select bank0
 10388     1E2E  1303               	bcf	3,6	;RP1=0, select bank0
 10389     1E2F  0827               	movf	i1___fldiv@b+3,w
 10390     1E30  3980               	andlw	128
 10391     1E31  00B1               	movwf	i1___fldiv@sign
 10392     1E32                     i1l2861:
 10393     1E32  0827               	movf	i1___fldiv@b+3,w
 10394     1E33  00A8               	movwf	??i1___fldiv
 10395     1E34  0728               	addwf	??i1___fldiv,w
 10396     1E35  00B8               	movwf	i1___fldiv@bexp
 10397     1E36                     i1l2863:
 10398     1E36  1FA6               	btfss	i1___fldiv@b+2,7
 10399     1E37  2E39               	goto	u427_21
 10400     1E38  2E3A               	goto	u427_20
 10401     1E39                     u427_21:
 10402     1E39  2E3B               	goto	i1l2867
 10403     1E3A                     u427_20:
 10404     1E3A                     i1l2865:
 10405     1E3A  1438               	bsf	i1___fldiv@bexp,0
 10406     1E3B                     i1l2867:
 10407     1E3B  0838               	movf	i1___fldiv@bexp,w
 10408     1E3C  1903               	btfsc	3,2
 10409     1E3D  2E3F               	goto	u428_21
 10410     1E3E  2E40               	goto	u428_20
 10411     1E3F                     u428_21:
 10412     1E3F  2E50               	goto	i1l2877
 10413     1E40                     u428_20:
 10414     1E40                     i1l2869:
 10415     1E40  0A38               	incf	i1___fldiv@bexp,w
 10416     1E41  1D03               	btfss	3,2
 10417     1E42  2E44               	goto	u429_21
 10418     1E43  2E45               	goto	u429_20
 10419     1E44                     u429_21:
 10420     1E44  2E4D               	goto	i1l2873
 10421     1E45                     u429_20:
 10422     1E45                     i1l2871:
 10423     1E45  3000               	movlw	0
 10424     1E46  00A7               	movwf	i1___fldiv@b+3
 10425     1E47  3000               	movlw	0
 10426     1E48  00A6               	movwf	i1___fldiv@b+2
 10427     1E49  3000               	movlw	0
 10428     1E4A  00A5               	movwf	i1___fldiv@b+1
 10429     1E4B  3000               	movlw	0
 10430     1E4C  00A4               	movwf	i1___fldiv@b
 10431     1E4D                     i1l2873:
 10432     1E4D  17A6               	bsf	i1___fldiv@b+2,7
 10433     1E4E                     i1l2875:
 10434     1E4E  01A7               	clrf	i1___fldiv@b+3
 10435     1E4F  2E58               	goto	i1l2879
 10436     1E50                     i1l2877:
 10437     1E50  3000               	movlw	0
 10438     1E51  00A7               	movwf	i1___fldiv@b+3
 10439     1E52  3000               	movlw	0
 10440     1E53  00A6               	movwf	i1___fldiv@b+2
 10441     1E54  3000               	movlw	0
 10442     1E55  00A5               	movwf	i1___fldiv@b+1
 10443     1E56  3000               	movlw	0
 10444     1E57  00A4               	movwf	i1___fldiv@b
 10445     1E58                     i1l2879:
 10446     1E58  0823               	movf	i1___fldiv@a+3,w
 10447     1E59  3980               	andlw	128
 10448     1E5A  00A8               	movwf	??i1___fldiv
 10449     1E5B  0828               	movf	??i1___fldiv,w
 10450     1E5C  06B1               	xorwf	i1___fldiv@sign,f
 10451     1E5D                     i1l2881:
 10452     1E5D  0823               	movf	i1___fldiv@a+3,w
 10453     1E5E  00A8               	movwf	??i1___fldiv
 10454     1E5F  0728               	addwf	??i1___fldiv,w
 10455     1E60  00B9               	movwf	i1___fldiv@aexp
 10456     1E61                     i1l2883:
 10457     1E61  1FA2               	btfss	i1___fldiv@a+2,7
 10458     1E62  2E64               	goto	u430_21
 10459     1E63  2E65               	goto	u430_20
 10460     1E64                     u430_21:
 10461     1E64  2E66               	goto	i1l2887
 10462     1E65                     u430_20:
 10463     1E65                     i1l2885:
 10464     1E65  1439               	bsf	i1___fldiv@aexp,0
 10465     1E66                     i1l2887:
 10466     1E66  0839               	movf	i1___fldiv@aexp,w
 10467     1E67  1903               	btfsc	3,2
 10468     1E68  2E6A               	goto	u431_21
 10469     1E69  2E6B               	goto	u431_20
 10470     1E6A                     u431_21:
 10471     1E6A  2E7B               	goto	i1l2897
 10472     1E6B                     u431_20:
 10473     1E6B                     i1l2889:
 10474     1E6B  0A39               	incf	i1___fldiv@aexp,w
 10475     1E6C  1D03               	btfss	3,2
 10476     1E6D  2E6F               	goto	u432_21
 10477     1E6E  2E70               	goto	u432_20
 10478     1E6F                     u432_21:
 10479     1E6F  2E78               	goto	i1l2893
 10480     1E70                     u432_20:
 10481     1E70                     i1l2891:
 10482     1E70  3000               	movlw	0
 10483     1E71  00A3               	movwf	i1___fldiv@a+3
 10484     1E72  3000               	movlw	0
 10485     1E73  00A2               	movwf	i1___fldiv@a+2
 10486     1E74  3000               	movlw	0
 10487     1E75  00A1               	movwf	i1___fldiv@a+1
 10488     1E76  3000               	movlw	0
 10489     1E77  00A0               	movwf	i1___fldiv@a
 10490     1E78                     i1l2893:
 10491     1E78  17A2               	bsf	i1___fldiv@a+2,7
 10492     1E79                     i1l2895:
 10493     1E79  01A3               	clrf	i1___fldiv@a+3
 10494     1E7A  2E83               	goto	i1l722
 10495     1E7B                     i1l2897:
 10496     1E7B  3000               	movlw	0
 10497     1E7C  00A3               	movwf	i1___fldiv@a+3
 10498     1E7D  3000               	movlw	0
 10499     1E7E  00A2               	movwf	i1___fldiv@a+2
 10500     1E7F  3000               	movlw	0
 10501     1E80  00A1               	movwf	i1___fldiv@a+1
 10502     1E81  3000               	movlw	0
 10503     1E82  00A0               	movwf	i1___fldiv@a
 10504     1E83                     i1l722:
 10505     1E83  0823               	movf	i1___fldiv@a+3,w
 10506     1E84  0422               	iorwf	i1___fldiv@a+2,w
 10507     1E85  0421               	iorwf	i1___fldiv@a+1,w
 10508     1E86  0420               	iorwf	i1___fldiv@a,w
 10509     1E87  1D03               	skipz
 10510     1E88  2E8A               	goto	u433_21
 10511     1E89  2E8B               	goto	u433_20
 10512     1E8A                     u433_21:
 10513     1E8A  2EA4               	goto	i1l2907
 10514     1E8B                     u433_20:
 10515     1E8B                     i1l2899:
 10516     1E8B  3000               	movlw	0
 10517     1E8C  00A7               	movwf	i1___fldiv@b+3
 10518     1E8D  3000               	movlw	0
 10519     1E8E  00A6               	movwf	i1___fldiv@b+2
 10520     1E8F  3000               	movlw	0
 10521     1E90  00A5               	movwf	i1___fldiv@b+1
 10522     1E91  3000               	movlw	0
 10523     1E92  00A4               	movwf	i1___fldiv@b
 10524     1E93  3080               	movlw	128
 10525     1E94  04A6               	iorwf	i1___fldiv@b+2,f
 10526     1E95  307F               	movlw	127
 10527     1E96  04A7               	iorwf	i1___fldiv@b+3,f
 10528     1E97                     i1l2901:
 10529     1E97  0831               	movf	i1___fldiv@sign,w
 10530     1E98  00A8               	movwf	??i1___fldiv
 10531     1E99  0828               	movf	??i1___fldiv,w
 10532     1E9A  04A7               	iorwf	i1___fldiv@b+3,f
 10533     1E9B                     i1l2903:
 10534     1E9B  0827               	movf	i1___fldiv@b+3,w
 10535     1E9C  00A3               	movwf	?i1___fldiv+3
 10536     1E9D  0826               	movf	i1___fldiv@b+2,w
 10537     1E9E  00A2               	movwf	?i1___fldiv+2
 10538     1E9F  0825               	movf	i1___fldiv@b+1,w
 10539     1EA0  00A1               	movwf	?i1___fldiv+1
 10540     1EA1  0824               	movf	i1___fldiv@b,w
 10541     1EA2  00A0               	movwf	?i1___fldiv
 10542     1EA3  2FFF               	goto	i1l724
 10543     1EA4                     i1l2907:
 10544     1EA4  0838               	movf	i1___fldiv@bexp,w
 10545     1EA5  1D03               	btfss	3,2
 10546     1EA6  2EA8               	goto	u434_21
 10547     1EA7  2EA9               	goto	u434_20
 10548     1EA8                     u434_21:
 10549     1EA8  2EB2               	goto	i1l2913
 10550     1EA9                     u434_20:
 10551     1EA9                     i1l2909:
 10552     1EA9  3000               	movlw	0
 10553     1EAA  00A3               	movwf	?i1___fldiv+3
 10554     1EAB  3000               	movlw	0
 10555     1EAC  00A2               	movwf	?i1___fldiv+2
 10556     1EAD  3000               	movlw	0
 10557     1EAE  00A1               	movwf	?i1___fldiv+1
 10558     1EAF  3000               	movlw	0
 10559     1EB0  00A0               	movwf	?i1___fldiv
 10560     1EB1  2FFF               	goto	i1l724
 10561     1EB2                     i1l2913:
 10562     1EB2  0838               	movf	i1___fldiv@bexp,w
 10563     1EB3  00A8               	movwf	??i1___fldiv
 10564     1EB4  01A9               	clrf	??i1___fldiv+1
 10565     1EB5  0829               	movf	??i1___fldiv+1,w
 10566     1EB6  00AB               	movwf	??i1___fldiv+3
 10567     1EB7  0839               	movf	i1___fldiv@aexp,w
 10568     1EB8  0228               	subwf	??i1___fldiv,w
 10569     1EB9  00AA               	movwf	??i1___fldiv+2
 10570     1EBA  1C03               	skipc
 10571     1EBB  03AB               	decf	??i1___fldiv+3,f
 10572     1EBC  082A               	movf	??i1___fldiv+2,w
 10573     1EBD  3E7F               	addlw	127
 10574     1EBE  00B2               	movwf	i1___fldiv@new_exp
 10575     1EBF  082B               	movf	??i1___fldiv+3,w
 10576     1EC0  1803               	skipnc
 10577     1EC1  3E01               	addlw	1
 10578     1EC2  3E00               	addlw	0
 10579     1EC3  00B3               	movwf	i1___fldiv@new_exp+1
 10580     1EC4                     i1l2915:
 10581     1EC4  0827               	movf	i1___fldiv@b+3,w
 10582     1EC5  00B0               	movwf	i1___fldiv@rem+3
 10583     1EC6  0826               	movf	i1___fldiv@b+2,w
 10584     1EC7  00AF               	movwf	i1___fldiv@rem+2
 10585     1EC8  0825               	movf	i1___fldiv@b+1,w
 10586     1EC9  00AE               	movwf	i1___fldiv@rem+1
 10587     1ECA  0824               	movf	i1___fldiv@b,w
 10588     1ECB  00AD               	movwf	i1___fldiv@rem
 10589     1ECC                     i1l2917:
 10590     1ECC  3000               	movlw	0
 10591     1ECD  00A7               	movwf	i1___fldiv@b+3
 10592     1ECE  3000               	movlw	0
 10593     1ECF  00A6               	movwf	i1___fldiv@b+2
 10594     1ED0  3000               	movlw	0
 10595     1ED1  00A5               	movwf	i1___fldiv@b+1
 10596     1ED2  3000               	movlw	0
 10597     1ED3  00A4               	movwf	i1___fldiv@b
 10598     1ED4                     i1l2919:
 10599     1ED4  3000               	movlw	0
 10600     1ED5  00B7               	movwf	i1___fldiv@grs+3
 10601     1ED6  3000               	movlw	0
 10602     1ED7  00B6               	movwf	i1___fldiv@grs+2
 10603     1ED8  3000               	movlw	0
 10604     1ED9  00B5               	movwf	i1___fldiv@grs+1
 10605     1EDA  3000               	movlw	0
 10606     1EDB  00B4               	movwf	i1___fldiv@grs
 10607     1EDC                     i1l2921:
 10608     1EDC  01B9               	clrf	i1___fldiv@aexp
 10609     1EDD  2F28               	goto	i1l2941
 10610     1EDE                     i1l2923:
 10611     1EDE  0839               	movf	i1___fldiv@aexp,w
 10612     1EDF  1903               	btfsc	3,2
 10613     1EE0  2EE2               	goto	u435_21
 10614     1EE1  2EE3               	goto	u435_20
 10615     1EE2                     u435_21:
 10616     1EE2  2F03               	goto	i1l2933
 10617     1EE3                     u435_20:
 10618     1EE3                     i1l2925:
 10619     1EE3  3001               	movlw	1
 10620     1EE4  00A8               	movwf	??i1___fldiv
 10621     1EE5                     u436_25:
 10622     1EE5  1003               	clrc
 10623     1EE6  0DAD               	rlf	i1___fldiv@rem,f
 10624     1EE7  0DAE               	rlf	i1___fldiv@rem+1,f
 10625     1EE8  0DAF               	rlf	i1___fldiv@rem+2,f
 10626     1EE9  0DB0               	rlf	i1___fldiv@rem+3,f
 10627     1EEA  0BA8               	decfsz	??i1___fldiv,f
 10628     1EEB  2EE5               	goto	u436_25
 10629     1EEC  3001               	movlw	1
 10630     1EED  00A8               	movwf	??i1___fldiv
 10631     1EEE                     u437_25:
 10632     1EEE  1003               	clrc
 10633     1EEF  0DA4               	rlf	i1___fldiv@b,f
 10634     1EF0  0DA5               	rlf	i1___fldiv@b+1,f
 10635     1EF1  0DA6               	rlf	i1___fldiv@b+2,f
 10636     1EF2  0DA7               	rlf	i1___fldiv@b+3,f
 10637     1EF3  0BA8               	decfsz	??i1___fldiv,f
 10638     1EF4  2EEE               	goto	u437_25
 10639     1EF5                     i1l2927:
 10640     1EF5  1FB7               	btfss	i1___fldiv@grs+3,7
 10641     1EF6  2EF8               	goto	u438_21
 10642     1EF7  2EF9               	goto	u438_20
 10643     1EF8                     u438_21:
 10644     1EF8  2EFA               	goto	i1l2931
 10645     1EF9                     u438_20:
 10646     1EF9                     i1l2929:
 10647     1EF9  1424               	bsf	i1___fldiv@b,0
 10648     1EFA                     i1l2931:
 10649     1EFA  3001               	movlw	1
 10650     1EFB  00A8               	movwf	??i1___fldiv
 10651     1EFC                     u439_25:
 10652     1EFC  1003               	clrc
 10653     1EFD  0DB4               	rlf	i1___fldiv@grs,f
 10654     1EFE  0DB5               	rlf	i1___fldiv@grs+1,f
 10655     1EFF  0DB6               	rlf	i1___fldiv@grs+2,f
 10656     1F00  0DB7               	rlf	i1___fldiv@grs+3,f
 10657     1F01  0BA8               	decfsz	??i1___fldiv,f
 10658     1F02  2EFC               	goto	u439_25
 10659     1F03                     i1l2933:
 10660     1F03  0823               	movf	i1___fldiv@a+3,w
 10661     1F04  0230               	subwf	i1___fldiv@rem+3,w
 10662     1F05  1D03               	skipz
 10663     1F06  2F11               	goto	u440_25
 10664     1F07  0822               	movf	i1___fldiv@a+2,w
 10665     1F08  022F               	subwf	i1___fldiv@rem+2,w
 10666     1F09  1D03               	skipz
 10667     1F0A  2F11               	goto	u440_25
 10668     1F0B  0821               	movf	i1___fldiv@a+1,w
 10669     1F0C  022E               	subwf	i1___fldiv@rem+1,w
 10670     1F0D  1D03               	skipz
 10671     1F0E  2F11               	goto	u440_25
 10672     1F0F  0820               	movf	i1___fldiv@a,w
 10673     1F10  022D               	subwf	i1___fldiv@rem,w
 10674     1F11                     u440_25:
 10675     1F11  1C03               	skipc
 10676     1F12  2F14               	goto	u440_21
 10677     1F13  2F15               	goto	u440_20
 10678     1F14                     u440_21:
 10679     1F14  2F24               	goto	i1l2939
 10680     1F15                     u440_20:
 10681     1F15                     i1l2935:
 10682     1F15  1737               	bsf	i1___fldiv@grs+3,6
 10683     1F16                     i1l2937:
 10684     1F16  0820               	movf	i1___fldiv@a,w
 10685     1F17  02AD               	subwf	i1___fldiv@rem,f
 10686     1F18  0821               	movf	i1___fldiv@a+1,w
 10687     1F19  1C03               	skipc
 10688     1F1A  0F21               	incfsz	i1___fldiv@a+1,w
 10689     1F1B  02AE               	subwf	i1___fldiv@rem+1,f
 10690     1F1C  0822               	movf	i1___fldiv@a+2,w
 10691     1F1D  1C03               	skipc
 10692     1F1E  0F22               	incfsz	i1___fldiv@a+2,w
 10693     1F1F  02AF               	subwf	i1___fldiv@rem+2,f
 10694     1F20  0823               	movf	i1___fldiv@a+3,w
 10695     1F21  1C03               	skipc
 10696     1F22  0F23               	incfsz	i1___fldiv@a+3,w
 10697     1F23  02B0               	subwf	i1___fldiv@rem+3,f
 10698     1F24                     i1l2939:
 10699     1F24  3001               	movlw	1
 10700     1F25  00A8               	movwf	??i1___fldiv
 10701     1F26  0828               	movf	??i1___fldiv,w
 10702     1F27  07B9               	addwf	i1___fldiv@aexp,f
 10703     1F28                     i1l2941:
 10704     1F28  301A               	movlw	26
 10705     1F29  0239               	subwf	i1___fldiv@aexp,w
 10706     1F2A  1C03               	skipc
 10707     1F2B  2F2D               	goto	u441_21
 10708     1F2C  2F2E               	goto	u441_20
 10709     1F2D                     u441_21:
 10710     1F2D  2EDE               	goto	i1l2923
 10711     1F2E                     u441_20:
 10712     1F2E                     i1l2943:
 10713     1F2E  0830               	movf	i1___fldiv@rem+3,w
 10714     1F2F  042F               	iorwf	i1___fldiv@rem+2,w
 10715     1F30  042E               	iorwf	i1___fldiv@rem+1,w
 10716     1F31  042D               	iorwf	i1___fldiv@rem,w
 10717     1F32  1903               	skipnz
 10718     1F33  2F35               	goto	u442_21
 10719     1F34  2F36               	goto	u442_20
 10720     1F35                     u442_21:
 10721     1F35  2F55               	goto	i1l2957
 10722     1F36                     u442_20:
 10723     1F36                     i1l2945:
 10724     1F36  1434               	bsf	i1___fldiv@grs,0
 10725     1F37  2F55               	goto	i1l2957
 10726     1F38                     i1l2947:
 10727     1F38  3001               	movlw	1
 10728     1F39  00A8               	movwf	??i1___fldiv
 10729     1F3A                     u443_25:
 10730     1F3A  1003               	clrc
 10731     1F3B  0DA4               	rlf	i1___fldiv@b,f
 10732     1F3C  0DA5               	rlf	i1___fldiv@b+1,f
 10733     1F3D  0DA6               	rlf	i1___fldiv@b+2,f
 10734     1F3E  0DA7               	rlf	i1___fldiv@b+3,f
 10735     1F3F  0BA8               	decfsz	??i1___fldiv,f
 10736     1F40  2F3A               	goto	u443_25
 10737     1F41                     i1l2949:
 10738     1F41  1FB7               	btfss	i1___fldiv@grs+3,7
 10739     1F42  2F44               	goto	u444_21
 10740     1F43  2F45               	goto	u444_20
 10741     1F44                     u444_21:
 10742     1F44  2F46               	goto	i1l2953
 10743     1F45                     u444_20:
 10744     1F45                     i1l2951:
 10745     1F45  1424               	bsf	i1___fldiv@b,0
 10746     1F46                     i1l2953:
 10747     1F46  3001               	movlw	1
 10748     1F47  00A8               	movwf	??i1___fldiv
 10749     1F48                     u445_25:
 10750     1F48  1003               	clrc
 10751     1F49  0DB4               	rlf	i1___fldiv@grs,f
 10752     1F4A  0DB5               	rlf	i1___fldiv@grs+1,f
 10753     1F4B  0DB6               	rlf	i1___fldiv@grs+2,f
 10754     1F4C  0DB7               	rlf	i1___fldiv@grs+3,f
 10755     1F4D  0BA8               	decfsz	??i1___fldiv,f
 10756     1F4E  2F48               	goto	u445_25
 10757     1F4F                     i1l2955:
 10758     1F4F  30FF               	movlw	255
 10759     1F50  07B2               	addwf	i1___fldiv@new_exp,f
 10760     1F51  1803               	skipnc
 10761     1F52  0AB3               	incf	i1___fldiv@new_exp+1,f
 10762     1F53  30FF               	movlw	255
 10763     1F54  07B3               	addwf	i1___fldiv@new_exp+1,f
 10764     1F55                     i1l2957:
 10765     1F55  1FA6               	btfss	i1___fldiv@b+2,7
 10766     1F56  2F58               	goto	u446_21
 10767     1F57  2F59               	goto	u446_20
 10768     1F58                     u446_21:
 10769     1F58  2F38               	goto	i1l2947
 10770     1F59                     u446_20:
 10771     1F59                     i1l2959:
 10772     1F59  01B9               	clrf	i1___fldiv@aexp
 10773     1F5A                     i1l2961:
 10774     1F5A  1FB7               	btfss	i1___fldiv@grs+3,7
 10775     1F5B  2F5D               	goto	u447_21
 10776     1F5C  2F5E               	goto	u447_20
 10777     1F5D                     u447_21:
 10778     1F5D  2F7A               	goto	i1l2969
 10779     1F5E                     u447_20:
 10780     1F5E                     i1l2963:
 10781     1F5E  30FF               	movlw	255
 10782     1F5F  0534               	andwf	i1___fldiv@grs,w
 10783     1F60  00A8               	movwf	??i1___fldiv
 10784     1F61  30FF               	movlw	255
 10785     1F62  0535               	andwf	i1___fldiv@grs+1,w
 10786     1F63  00A9               	movwf	??i1___fldiv+1
 10787     1F64  30FF               	movlw	255
 10788     1F65  0536               	andwf	i1___fldiv@grs+2,w
 10789     1F66  00AA               	movwf	??i1___fldiv+2
 10790     1F67  307F               	movlw	127
 10791     1F68  0537               	andwf	i1___fldiv@grs+3,w
 10792     1F69  00AB               	movwf	??i1___fldiv+3
 10793     1F6A  082B               	movf	??i1___fldiv+3,w
 10794     1F6B  042A               	iorwf	??i1___fldiv+2,w
 10795     1F6C  0429               	iorwf	??i1___fldiv+1,w
 10796     1F6D  0428               	iorwf	??i1___fldiv,w
 10797     1F6E  1903               	skipnz
 10798     1F6F  2F71               	goto	u448_21
 10799     1F70  2F72               	goto	u448_20
 10800     1F71                     u448_21:
 10801     1F71  2F75               	goto	i1l738
 10802     1F72                     u448_20:
 10803     1F72                     i1l2965:
 10804     1F72  01B9               	clrf	i1___fldiv@aexp
 10805     1F73  0AB9               	incf	i1___fldiv@aexp,f
 10806     1F74  2F7A               	goto	i1l2969
 10807     1F75                     i1l738:
 10808     1F75  1C24               	btfss	i1___fldiv@b,0
 10809     1F76  2F78               	goto	u449_21
 10810     1F77  2F79               	goto	u449_20
 10811     1F78                     u449_21:
 10812     1F78  2F7A               	goto	i1l2969
 10813     1F79                     u449_20:
 10814     1F79  2F72               	goto	i1l2965
 10815     1F7A                     i1l2969:
 10816     1F7A  0839               	movf	i1___fldiv@aexp,w
 10817     1F7B  1903               	btfsc	3,2
 10818     1F7C  2F7E               	goto	u450_21
 10819     1F7D  2F7F               	goto	u450_20
 10820     1F7E                     u450_21:
 10821     1F7E  2FB0               	goto	i1l2979
 10822     1F7F                     u450_20:
 10823     1F7F                     i1l2971:
 10824     1F7F  3001               	movlw	1
 10825     1F80  07A4               	addwf	i1___fldiv@b,f
 10826     1F81  3000               	movlw	0
 10827     1F82  1803               	skipnc
 10828     1F83  3001               	movlw	1
 10829     1F84  07A5               	addwf	i1___fldiv@b+1,f
 10830     1F85  3000               	movlw	0
 10831     1F86  1803               	skipnc
 10832     1F87  3001               	movlw	1
 10833     1F88  07A6               	addwf	i1___fldiv@b+2,f
 10834     1F89  3000               	movlw	0
 10835     1F8A  1803               	skipnc
 10836     1F8B  3001               	movlw	1
 10837     1F8C  07A7               	addwf	i1___fldiv@b+3,f
 10838     1F8D                     i1l2973:
 10839     1F8D  1C27               	btfss	i1___fldiv@b+3,0
 10840     1F8E  2F90               	goto	u451_21
 10841     1F8F  2F91               	goto	u451_20
 10842     1F90                     u451_21:
 10843     1F90  2FB0               	goto	i1l2979
 10844     1F91                     u451_20:
 10845     1F91                     i1l2975:
 10846     1F91  0824               	movf	i1___fldiv@b,w
 10847     1F92  00A8               	movwf	??i1___fldiv
 10848     1F93  0825               	movf	i1___fldiv@b+1,w
 10849     1F94  00A9               	movwf	??i1___fldiv+1
 10850     1F95  0826               	movf	i1___fldiv@b+2,w
 10851     1F96  00AA               	movwf	??i1___fldiv+2
 10852     1F97  0827               	movf	i1___fldiv@b+3,w
 10853     1F98  00AB               	movwf	??i1___fldiv+3
 10854     1F99  3001               	movlw	1
 10855     1F9A  00AC               	movwf	??i1___fldiv+4
 10856     1F9B                     u452_25:
 10857     1F9B  0D2B               	rlf	??i1___fldiv+3,w
 10858     1F9C  0CAB               	rrf	??i1___fldiv+3,f
 10859     1F9D  0CAA               	rrf	??i1___fldiv+2,f
 10860     1F9E  0CA9               	rrf	??i1___fldiv+1,f
 10861     1F9F  0CA8               	rrf	??i1___fldiv,f
 10862     1FA0                     u452_20:
 10863     1FA0  0BAC               	decfsz	??i1___fldiv+4,f
 10864     1FA1  2F9B               	goto	u452_25
 10865     1FA2  082B               	movf	??i1___fldiv+3,w
 10866     1FA3  00A7               	movwf	i1___fldiv@b+3
 10867     1FA4  082A               	movf	??i1___fldiv+2,w
 10868     1FA5  00A6               	movwf	i1___fldiv@b+2
 10869     1FA6  0829               	movf	??i1___fldiv+1,w
 10870     1FA7  00A5               	movwf	i1___fldiv@b+1
 10871     1FA8  0828               	movf	??i1___fldiv,w
 10872     1FA9  00A4               	movwf	i1___fldiv@b
 10873     1FAA                     i1l2977:
 10874     1FAA  3001               	movlw	1
 10875     1FAB  07B2               	addwf	i1___fldiv@new_exp,f
 10876     1FAC  1803               	skipnc
 10877     1FAD  0AB3               	incf	i1___fldiv@new_exp+1,f
 10878     1FAE  3000               	movlw	0
 10879     1FAF  07B3               	addwf	i1___fldiv@new_exp+1,f
 10880     1FB0                     i1l2979:
 10881     1FB0  0833               	movf	i1___fldiv@new_exp+1,w
 10882     1FB1  3A80               	xorlw	128
 10883     1FB2  00FF               	movwf	btemp+1
 10884     1FB3  3080               	movlw	128
 10885     1FB4  027F               	subwf	btemp+1,w
 10886     1FB5  1D03               	skipz
 10887     1FB6  2FB9               	goto	u453_25
 10888     1FB7  30FF               	movlw	255
 10889     1FB8  0232               	subwf	i1___fldiv@new_exp,w
 10890     1FB9                     u453_25:
 10891     1FB9  1C03               	skipc
 10892     1FBA  2FBC               	goto	u453_21
 10893     1FBB  2FBD               	goto	u453_20
 10894     1FBC                     u453_21:
 10895     1FBC  2FCB               	goto	i1l2983
 10896     1FBD                     u453_20:
 10897     1FBD                     i1l2981:
 10898     1FBD  30FF               	movlw	255
 10899     1FBE  1283               	bcf	3,5	;RP0=0, select bank0
 10900     1FBF  1303               	bcf	3,6	;RP1=0, select bank0
 10901     1FC0  00B2               	movwf	i1___fldiv@new_exp
 10902     1FC1  3000               	movlw	0
 10903     1FC2  00B3               	movwf	i1___fldiv@new_exp+1
 10904     1FC3  3000               	movlw	0
 10905     1FC4  00A7               	movwf	i1___fldiv@b+3
 10906     1FC5  3000               	movlw	0
 10907     1FC6  00A6               	movwf	i1___fldiv@b+2
 10908     1FC7  3000               	movlw	0
 10909     1FC8  00A5               	movwf	i1___fldiv@b+1
 10910     1FC9  3000               	movlw	0
 10911     1FCA  00A4               	movwf	i1___fldiv@b
 10912     1FCB                     i1l2983:
 10913     1FCB  1283               	bcf	3,5	;RP0=0, select bank0
 10914     1FCC  1303               	bcf	3,6	;RP1=0, select bank0
 10915     1FCD  0833               	movf	i1___fldiv@new_exp+1,w
 10916     1FCE  3A80               	xorlw	128
 10917     1FCF  00FF               	movwf	btemp+1
 10918     1FD0  3080               	movlw	128
 10919     1FD1  027F               	subwf	btemp+1,w
 10920     1FD2  1D03               	skipz
 10921     1FD3  2FD6               	goto	u454_25
 10922     1FD4  3001               	movlw	1
 10923     1FD5  0232               	subwf	i1___fldiv@new_exp,w
 10924     1FD6                     u454_25:
 10925     1FD6  1803               	skipnc
 10926     1FD7  2FD9               	goto	u454_21
 10927     1FD8  2FDA               	goto	u454_20
 10928     1FD9                     u454_21:
 10929     1FD9  2FE7               	goto	i1l744
 10930     1FDA                     u454_20:
 10931     1FDA                     i1l2985:
 10932     1FDA  1283               	bcf	3,5	;RP0=0, select bank0
 10933     1FDB  1303               	bcf	3,6	;RP1=0, select bank0
 10934     1FDC  01B2               	clrf	i1___fldiv@new_exp
 10935     1FDD  01B3               	clrf	i1___fldiv@new_exp+1
 10936     1FDE                     i1l2987:
 10937     1FDE  3000               	movlw	0
 10938     1FDF  00A7               	movwf	i1___fldiv@b+3
 10939     1FE0  3000               	movlw	0
 10940     1FE1  00A6               	movwf	i1___fldiv@b+2
 10941     1FE2  3000               	movlw	0
 10942     1FE3  00A5               	movwf	i1___fldiv@b+1
 10943     1FE4  3000               	movlw	0
 10944     1FE5  00A4               	movwf	i1___fldiv@b
 10945     1FE6                     i1l2989:
 10946     1FE6  01B1               	clrf	i1___fldiv@sign
 10947     1FE7                     i1l744:
 10948     1FE7  1283               	bcf	3,5	;RP0=0, select bank0
 10949     1FE8  1303               	bcf	3,6	;RP1=0, select bank0
 10950     1FE9  0832               	movf	i1___fldiv@new_exp,w
 10951     1FEA  00B8               	movwf	i1___fldiv@bexp
 10952     1FEB                     i1l2991:
 10953     1FEB  1C38               	btfss	i1___fldiv@bexp,0
 10954     1FEC  2FEE               	goto	u455_21
 10955     1FED  2FEF               	goto	u455_20
 10956     1FEE                     u455_21:
 10957     1FEE  2FF1               	goto	i1l2995
 10958     1FEF                     u455_20:
 10959     1FEF                     i1l2993:
 10960     1FEF  17A6               	bsf	i1___fldiv@b+2,7
 10961     1FF0  2FF5               	goto	i1l746
 10962     1FF1                     i1l2995:
 10963     1FF1  307F               	movlw	127
 10964     1FF2  00A8               	movwf	??i1___fldiv
 10965     1FF3  0828               	movf	??i1___fldiv,w
 10966     1FF4  05A6               	andwf	i1___fldiv@b+2,f
 10967     1FF5                     i1l746:
 10968     1FF5  0838               	movf	i1___fldiv@bexp,w
 10969     1FF6  00A8               	movwf	??i1___fldiv
 10970     1FF7  1003               	clrc
 10971     1FF8  0C28               	rrf	??i1___fldiv,w
 10972     1FF9  00A7               	movwf	i1___fldiv@b+3
 10973     1FFA  0831               	movf	i1___fldiv@sign,w
 10974     1FFB  00A8               	movwf	??i1___fldiv
 10975     1FFC  0828               	movf	??i1___fldiv,w
 10976     1FFD  04A7               	iorwf	i1___fldiv@b+3,f
 10977     1FFE  2E9B               	goto	i1l2903
 10978     1FFF                     i1l724:
 10979     1FFF  0008               	return
 10980     2000                     __end_ofi1___fldiv:
 10981                           
 10982                           	psect	text21
 10983     1949                     __ptext21:	
 10984 ;; *************** function _read_EEPROM *****************
 10985 ;; Defined at:
 10986 ;;		line 404 in file "Progra_IRONMAN.c"
 10987 ;; Parameters:    Size  Location     Type
 10988 ;;  address         1    wreg     unsigned char 
 10989 ;; Auto vars:     Size  Location     Type
 10990 ;;  address         1    0[COMMON] unsigned char 
 10991 ;; Return value:  Size  Location     Type
 10992 ;;                  1    wreg      unsigned char 
 10993 ;; Registers used:
 10994 ;;		wreg
 10995 ;; Tracked objects:
 10996 ;;		On entry : 0/0
 10997 ;;		On exit  : 0/0
 10998 ;;		Unchanged: 0/0
 10999 ;; Data sizes:     COMMON   BANK0   BANK1   BANK3   BANK2
 11000 ;;      Params:         0       0       0       0       0
 11001 ;;      Locals:         1       0       0       0       0
 11002 ;;      Temps:          0       0       0       0       0
 11003 ;;      Totals:         1       0       0       0       0
 11004 ;;Total ram usage:        1 bytes
 11005 ;; Hardware stack levels used: 1
 11006 ;; This function calls:
 11007 ;;		Nothing
 11008 ;; This function is called by:
 11009 ;;		_isr
 11010 ;; This function uses a non-reentrant model
 11011 ;;
 11012                           
 11013     1949                     _read_EEPROM:	
 11014                           ;psect for function _read_EEPROM
 11015                           
 11016                           
 11017                           ;incstack = 0
 11018                           ; Regs used in _read_EEPROM: [wreg]
 11019                           ;read_EEPROM@address stored from wreg
 11020     1949  00F0               	movwf	read_EEPROM@address
 11021     194A                     i1l3543:
 11022     194A                     i1l237:	
 11023                           ;Progra_IRONMAN.c: 405:     while(WR||RD);
 11024                           
 11025     194A  1683               	bsf	3,5	;RP0=1, select bank3
 11026     194B  1703               	bsf	3,6	;RP1=1, select bank3
 11027     194C  188C               	btfsc	12,1	;volsfr
 11028     194D  294F               	goto	u573_21
 11029     194E  2950               	goto	u573_20
 11030     194F                     u573_21:
 11031     194F  294A               	goto	i1l237
 11032     1950                     u573_20:
 11033     1950                     i1l3545:
 11034     1950  180C               	btfsc	12,0	;volsfr
 11035     1951  2953               	goto	u574_21
 11036     1952  2954               	goto	u574_20
 11037     1953                     u574_21:
 11038     1953  294A               	goto	i1l237
 11039     1954                     u574_20:
 11040     1954                     i1l3547:
 11041                           
 11042                           ;Progra_IRONMAN.c: 407:     EEADR = address;
 11043     1954  0870               	movf	read_EEPROM@address,w
 11044     1955  1283               	bcf	3,5	;RP0=0, select bank2
 11045     1956  1703               	bsf	3,6	;RP1=1, select bank2
 11046     1957  008D               	movwf	13	;volatile
 11047     1958                     i1l3549:
 11048                           
 11049                           ;Progra_IRONMAN.c: 408:     EECON1bits.EEPGD = 0;
 11050     1958  1683               	bsf	3,5	;RP0=1, select bank3
 11051     1959  1703               	bsf	3,6	;RP1=1, select bank3
 11052     195A  138C               	bcf	12,7	;volsfr
 11053     195B                     i1l3551:
 11054                           
 11055                           ;Progra_IRONMAN.c: 409:     EECON1bits.RD = 1;
 11056     195B  140C               	bsf	12,0	;volsfr
 11057                           
 11058                           ;Progra_IRONMAN.c: 410:     return EEDAT;
 11059     195C  1283               	bcf	3,5	;RP0=0, select bank2
 11060     195D  1703               	bsf	3,6	;RP1=1, select bank2
 11061     195E  080C               	movf	12,w	;volatile
 11062     195F                     i1l240:
 11063     195F  0008               	return
 11064     1960                     __end_of_read_EEPROM:
 11065                           
 11066                           	psect	text22
 11067     1A1C                     __ptext22:	
 11068 ;; *************** function _pulse *****************
 11069 ;; Defined at:
 11070 ;;		line 171 in file "Progra_IRONMAN.c"
 11071 ;; Parameters:    Size  Location     Type
 11072 ;;		None
 11073 ;; Auto vars:     Size  Location     Type
 11074 ;;		None
 11075 ;; Return value:  Size  Location     Type
 11076 ;;                  1    wreg      void 
 11077 ;; Registers used:
 11078 ;;		wreg, status,2, status,0
 11079 ;; Tracked objects:
 11080 ;;		On entry : 0/0
 11081 ;;		On exit  : 0/0
 11082 ;;		Unchanged: 0/0
 11083 ;; Data sizes:     COMMON   BANK0   BANK1   BANK3   BANK2
 11084 ;;      Params:         0       0       0       0       0
 11085 ;;      Locals:         0       0       0       0       0
 11086 ;;      Temps:          0       0       0       0       0
 11087 ;;      Totals:         0       0       0       0       0
 11088 ;;Total ram usage:        0 bytes
 11089 ;; Hardware stack levels used: 1
 11090 ;; This function calls:
 11091 ;;		Nothing
 11092 ;; This function is called by:
 11093 ;;		_isr
 11094 ;; This function uses a non-reentrant model
 11095 ;;
 11096                           
 11097     1A1C                     _pulse:	
 11098                           ;psect for function _pulse
 11099                           
 11100     1A1C                     i1l3473:	
 11101                           ;incstack = 0
 11102                           ; Regs used in _pulse: [wreg+status,2+status,0]
 11103                           
 11104                           
 11105                           ;Progra_IRONMAN.c: 172:     if(servo == 1){
 11106     1A1C  1683               	bsf	3,5	;RP0=1, select bank1
 11107     1A1D  1303               	bcf	3,6	;RP1=0, select bank1
 11108     1A1E  0358               	decf	_servo^(0+128),w
 11109     1A1F  1D03               	btfss	3,2
 11110     1A20  2A22               	goto	u565_21
 11111     1A21  2A23               	goto	u565_20
 11112     1A22                     u565_21:
 11113     1A22  2A39               	goto	i1l3485
 11114     1A23                     u565_20:
 11115     1A23                     i1l3475:
 11116                           
 11117                           ;Progra_IRONMAN.c: 173:         if (PORTCbits.RC4 == 1)
 11118     1A23  1283               	bcf	3,5	;RP0=0, select bank0
 11119     1A24  1303               	bcf	3,6	;RP1=0, select bank0
 11120     1A25  1E07               	btfss	7,4	;volatile
 11121     1A26  2A28               	goto	u566_21
 11122     1A27  2A29               	goto	u566_20
 11123     1A28                     u566_21:
 11124     1A28  2A31               	goto	i1l3481
 11125     1A29                     u566_20:
 11126     1A29                     i1l3477:
 11127                           
 11128                           ;Progra_IRONMAN.c: 174:             {;Progra_IRONMAN.c: 175:                 TMR0 = ang1
      +                          ;
 11129     1A29  1283               	bcf	3,5	;RP0=0, select bank2
 11130     1A2A  1703               	bsf	3,6	;RP1=1, select bank2
 11131     1A2B  0838               	movf	_ang1^(0+256),w
 11132     1A2C  1283               	bcf	3,5	;RP0=0, select bank0
 11133     1A2D  1303               	bcf	3,6	;RP1=0, select bank0
 11134     1A2E  0081               	movwf	1	;volatile
 11135     1A2F                     i1l3479:
 11136                           
 11137                           ;Progra_IRONMAN.c: 176:                 PORTCbits.RC4 = 0;
 11138     1A2F  1207               	bcf	7,4	;volatile
 11139                           
 11140                           ;Progra_IRONMAN.c: 177:             }
 11141     1A30  2A54               	goto	i1l185
 11142     1A31                     i1l3481:
 11143                           
 11144                           ;Progra_IRONMAN.c: 179:             {;Progra_IRONMAN.c: 180:                 TMR0 = (255
      +                          -ang1);
 11145     1A31  1283               	bcf	3,5	;RP0=0, select bank2
 11146     1A32  1703               	bsf	3,6	;RP1=1, select bank2
 11147     1A33  0938               	comf	_ang1^(0+256),w
 11148     1A34  1283               	bcf	3,5	;RP0=0, select bank0
 11149     1A35  1303               	bcf	3,6	;RP1=0, select bank0
 11150     1A36  0081               	movwf	1	;volatile
 11151     1A37                     i1l3483:
 11152                           
 11153                           ;Progra_IRONMAN.c: 181:                 PORTCbits.RC4 = 1;
 11154     1A37  1607               	bsf	7,4	;volatile
 11155     1A38  2A54               	goto	i1l185
 11156     1A39                     i1l3485:
 11157     1A39  3002               	movlw	2
 11158     1A3A  0658               	xorwf	_servo^(0+128),w
 11159     1A3B  1D03               	btfss	3,2
 11160     1A3C  2A3E               	goto	u567_21
 11161     1A3D  2A3F               	goto	u567_20
 11162     1A3E                     u567_21:
 11163     1A3E  2A54               	goto	i1l185
 11164     1A3F                     u567_20:
 11165     1A3F                     i1l3487:
 11166                           
 11167                           ;Progra_IRONMAN.c: 185:         if (PORTCbits.RC5 == 1)
 11168     1A3F  1283               	bcf	3,5	;RP0=0, select bank0
 11169     1A40  1303               	bcf	3,6	;RP1=0, select bank0
 11170     1A41  1E87               	btfss	7,5	;volatile
 11171     1A42  2A44               	goto	u568_21
 11172     1A43  2A45               	goto	u568_20
 11173     1A44                     u568_21:
 11174     1A44  2A4D               	goto	i1l3493
 11175     1A45                     u568_20:
 11176     1A45                     i1l3489:
 11177                           
 11178                           ;Progra_IRONMAN.c: 186:             {;Progra_IRONMAN.c: 187:                 TMR0 = ang2
      +                          ;
 11179     1A45  1283               	bcf	3,5	;RP0=0, select bank2
 11180     1A46  1703               	bsf	3,6	;RP1=1, select bank2
 11181     1A47  0837               	movf	_ang2^(0+256),w
 11182     1A48  1283               	bcf	3,5	;RP0=0, select bank0
 11183     1A49  1303               	bcf	3,6	;RP1=0, select bank0
 11184     1A4A  0081               	movwf	1	;volatile
 11185     1A4B                     i1l3491:
 11186                           
 11187                           ;Progra_IRONMAN.c: 188:                 PORTCbits.RC5 = 0;
 11188     1A4B  1287               	bcf	7,5	;volatile
 11189                           
 11190                           ;Progra_IRONMAN.c: 189:             }
 11191     1A4C  2A54               	goto	i1l185
 11192     1A4D                     i1l3493:
 11193                           
 11194                           ;Progra_IRONMAN.c: 191:             {;Progra_IRONMAN.c: 192:                 TMR0 = (255
      +                          -ang2);
 11195     1A4D  1283               	bcf	3,5	;RP0=0, select bank2
 11196     1A4E  1703               	bsf	3,6	;RP1=1, select bank2
 11197     1A4F  0937               	comf	_ang2^(0+256),w
 11198     1A50  1283               	bcf	3,5	;RP0=0, select bank0
 11199     1A51  1303               	bcf	3,6	;RP1=0, select bank0
 11200     1A52  0081               	movwf	1	;volatile
 11201     1A53                     i1l3495:
 11202                           
 11203                           ;Progra_IRONMAN.c: 193:                 PORTCbits.RC5 = 1;
 11204     1A53  1687               	bsf	7,5	;volatile
 11205     1A54                     i1l185:
 11206     1A54  0008               	return
 11207     1A55                     __end_of_pulse:
 11208                           
 11209                           	psect	text23
 11210     1B48                     __ptext23:	
 11211 ;; *************** function _TXT *****************
 11212 ;; Defined at:
 11213 ;;		line 431 in file "Progra_IRONMAN.c"
 11214 ;; Parameters:    Size  Location     Type
 11215 ;;		None
 11216 ;; Auto vars:     Size  Location     Type
 11217 ;;		None
 11218 ;; Return value:  Size  Location     Type
 11219 ;;                  1    wreg      void 
 11220 ;; Registers used:
 11221 ;;		wreg, fsr0l, fsr0h, status,2, status,0, pclath, cstack
 11222 ;; Tracked objects:
 11223 ;;		On entry : 0/0
 11224 ;;		On exit  : 0/0
 11225 ;;		Unchanged: 0/0
 11226 ;; Data sizes:     COMMON   BANK0   BANK1   BANK3   BANK2
 11227 ;;      Params:         0       0       0       0       0
 11228 ;;      Locals:         0       0       0       0       0
 11229 ;;      Temps:          8       0       0       0       0
 11230 ;;      Totals:         8       0       0       0       0
 11231 ;;Total ram usage:        8 bytes
 11232 ;; Hardware stack levels used: 1
 11233 ;; Hardware stack levels required when called: 1
 11234 ;; This function calls:
 11235 ;;		___wmul
 11236 ;; This function is called by:
 11237 ;;		_isr
 11238 ;; This function uses a non-reentrant model
 11239 ;;
 11240                           
 11241     1B48                     _TXT:	
 11242                           ;psect for function _TXT
 11243                           
 11244     1B48                     i1l3499:	
 11245                           ;incstack = 0
 11246                           ; Regs used in _TXT: [wreg-fsr0h+status,2+status,0+pclath+cstack]
 11247                           
 11248                           
 11249                           ;Progra_IRONMAN.c: 433:     if (modo == 2){
 11250     1B48  3002               	movlw	2
 11251     1B49  1683               	bsf	3,5	;RP0=1, select bank1
 11252     1B4A  1303               	bcf	3,6	;RP1=0, select bank1
 11253     1B4B  0651               	xorwf	_modo^(0+128),w
 11254     1B4C  0452               	iorwf	(_modo+1)^(0+128),w
 11255     1B4D  1D03               	btfss	3,2
 11256     1B4E  2B50               	goto	u569_21
 11257     1B4F  2B51               	goto	u569_20
 11258     1B50                     u569_21:
 11259     1B50  2BC6               	goto	i1l254
 11260     1B51                     u569_20:
 11261     1B51                     i1l250:
 11262     1B51  1283               	bcf	3,5	;RP0=0, select bank0
 11263     1B52  1E8C               	btfss	12,5	;volatile
 11264     1B53  2B55               	goto	u570_21
 11265     1B54  2B56               	goto	u570_20
 11266     1B55                     u570_21:
 11267     1B55  2B51               	goto	i1l250
 11268     1B56                     u570_20:
 11269     1B56                     i1l3503:
 11270                           
 11271                           ;Progra_IRONMAN.c: 435:         i++;
 11272     1B56  3001               	movlw	1
 11273     1B57  1683               	bsf	3,5	;RP0=1, select bank1
 11274     1B58  1303               	bcf	3,6	;RP1=0, select bank1
 11275     1B59  07D6               	addwf	_i^(0+128),f
 11276     1B5A  1803               	skipnc
 11277     1B5B  0AD7               	incf	(_i+1)^(0+128),f
 11278     1B5C  3000               	movlw	0
 11279     1B5D  07D7               	addwf	(_i+1)^(0+128),f
 11280     1B5E                     i1l3505:
 11281                           
 11282                           ;Progra_IRONMAN.c: 436:         caracter[i] = RCREG;
 11283     1B5E  0856               	movf	_i^(0+128),w
 11284     1B5F  3EC7               	addlw	(low (_caracter| 0))& (0+255)
 11285     1B60  0084               	movwf	4
 11286     1B61  1283               	bcf	3,5	;RP0=0, select bank0
 11287     1B62  1303               	bcf	3,6	;RP1=0, select bank0
 11288     1B63  081A               	movf	26,w	;volatile
 11289     1B64  1383               	bcf	3,7	;select IRP bank1
 11290     1B65  0080               	movwf	0
 11291     1B66                     i1l3507:
 11292                           
 11293                           ;Progra_IRONMAN.c: 437:         entero = caracter[i] - '0';
 11294     1B66  1683               	bsf	3,5	;RP0=1, select bank1
 11295     1B67  1303               	bcf	3,6	;RP1=0, select bank1
 11296     1B68  0856               	movf	_i^(0+128),w
 11297     1B69  3EC7               	addlw	(low (_caracter| 0))& (0+255)
 11298     1B6A  0084               	movwf	4
 11299     1B6B  0800               	movf	0,w
 11300     1B6C  3ED0               	addlw	208
 11301     1B6D  00C5               	movwf	_entero^(0+128)
 11302     1B6E  30FF               	movlw	255
 11303     1B6F  1803               	skipnc
 11304     1B70  3000               	movlw	0
 11305     1B71  00C6               	movwf	(_entero^(0+128)+1)
 11306     1B72                     i1l3509:
 11307                           
 11308                           ;Progra_IRONMAN.c: 438:         numero[i] = entero;
 11309     1B72  0856               	movf	_i^(0+128),w
 11310     1B73  3ECB               	addlw	(low (_numero| 0))& (0+255)
 11311     1B74  0084               	movwf	4
 11312     1B75  0845               	movf	_entero^(0+128),w
 11313     1B76  0080               	movwf	0
 11314     1B77                     i1l3511:
 11315                           
 11316                           ;Progra_IRONMAN.c: 440:         if (i == 2){
 11317     1B77  3002               	movlw	2
 11318     1B78  0656               	xorwf	_i^(0+128),w
 11319     1B79  0457               	iorwf	(_i+1)^(0+128),w
 11320     1B7A  1D03               	btfss	3,2
 11321     1B7B  2B7D               	goto	u571_21
 11322     1B7C  2B7E               	goto	u571_20
 11323     1B7D                     u571_21:
 11324     1B7D  2BC6               	goto	i1l254
 11325     1B7E                     u571_20:
 11326     1B7E                     i1l3513:
 11327                           
 11328                           ;Progra_IRONMAN.c: 441:             i = -1;
 11329     1B7E  30FF               	movlw	255
 11330     1B7F  00D6               	movwf	_i^(0+128)
 11331     1B80  30FF               	movlw	255
 11332     1B81  00D7               	movwf	(_i^(0+128)+1)
 11333                           
 11334                           ;Progra_IRONMAN.c: 442:             flag = 1;
 11335     1B82  3001               	movlw	1
 11336     1B83  1283               	bcf	3,5	;RP0=0, select bank2
 11337     1B84  1703               	bsf	3,6	;RP1=1, select bank2
 11338     1B85  00B1               	movwf	_flag^(0+256)
 11339     1B86  3000               	movlw	0
 11340     1B87  00B2               	movwf	(_flag^(0+256)+1)
 11341     1B88                     i1l3515:
 11342                           
 11343                           ;Progra_IRONMAN.c: 444:             valor_entero = numero[0]*100 + numero[1]*10 + numero
      +                          [2]*1;
 11344     1B88  1683               	bsf	3,5	;RP0=1, select bank1
 11345     1B89  1303               	bcf	3,6	;RP1=0, select bank1
 11346     1B8A  084B               	movf	_numero^(0+128),w
 11347     1B8B  00F6               	movwf	??_TXT
 11348     1B8C  01F7               	clrf	??_TXT+1
 11349     1B8D  0876               	movf	??_TXT,w
 11350     1B8E  00F0               	movwf	___wmul@multiplier
 11351     1B8F  0877               	movf	??_TXT+1,w
 11352     1B90  00F1               	movwf	___wmul@multiplier+1
 11353     1B91  3064               	movlw	100
 11354     1B92  00F2               	movwf	___wmul@multiplicand
 11355     1B93  3000               	movlw	0
 11356     1B94  00F3               	movwf	___wmul@multiplicand+1
 11357     1B95  160A  158A  2182  160A  158A  	fcall	___wmul
 11358     1B9A  0870               	movf	?___wmul,w
 11359     1B9B  00F8               	movwf	??_TXT+2
 11360     1B9C  0871               	movf	?___wmul+1,w
 11361     1B9D  00F9               	movwf	??_TXT+3
 11362     1B9E  1683               	bsf	3,5	;RP0=1, select bank1
 11363     1B9F  1303               	bcf	3,6	;RP1=0, select bank1
 11364     1BA0  084C               	movf	(_numero^(0+128)+1),w
 11365     1BA1  00FA               	movwf	??_TXT+4
 11366     1BA2  01FB               	clrf	??_TXT+5
 11367     1BA3  087A               	movf	??_TXT+4,w
 11368     1BA4  00F0               	movwf	___wmul@multiplier
 11369     1BA5  087B               	movf	??_TXT+5,w
 11370     1BA6  00F1               	movwf	___wmul@multiplier+1
 11371     1BA7  300A               	movlw	10
 11372     1BA8  00F2               	movwf	___wmul@multiplicand
 11373     1BA9  3000               	movlw	0
 11374     1BAA  00F3               	movwf	___wmul@multiplicand+1
 11375     1BAB  160A  158A  2182  160A  158A  	fcall	___wmul
 11376     1BB0  0870               	movf	?___wmul,w
 11377     1BB1  0778               	addwf	??_TXT+2,w
 11378     1BB2  00FC               	movwf	??_TXT+6
 11379     1BB3  0871               	movf	?___wmul+1,w
 11380     1BB4  1803               	skipnc
 11381     1BB5  0A71               	incf	?___wmul+1,w
 11382     1BB6  0779               	addwf	??_TXT+3,w
 11383     1BB7  00FD               	movwf	??_TXT+7
 11384     1BB8  1683               	bsf	3,5	;RP0=1, select bank1
 11385     1BB9  1303               	bcf	3,6	;RP1=0, select bank1
 11386     1BBA  084D               	movf	(_numero^(0+128)+2),w
 11387     1BBB  077C               	addwf	??_TXT+6,w
 11388     1BBC  00C9               	movwf	_valor_entero^(0+128)
 11389     1BBD  3000               	movlw	0
 11390     1BBE  1803               	skipnc
 11391     1BBF  3001               	movlw	1
 11392     1BC0  077D               	addwf	??_TXT+7,w
 11393     1BC1  00CA               	movwf	(_valor_entero+1)^(0+128)
 11394     1BC2                     i1l3517:
 11395                           
 11396                           ;Progra_IRONMAN.c: 445:             PORTD = valor_entero;
 11397     1BC2  0849               	movf	_valor_entero^(0+128),w
 11398     1BC3  1283               	bcf	3,5	;RP0=0, select bank0
 11399     1BC4  1303               	bcf	3,6	;RP1=0, select bank0
 11400     1BC5  0088               	movwf	8	;volatile
 11401     1BC6                     i1l254:
 11402     1BC6  0008               	return
 11403     1BC7                     __end_of_TXT:
 11404                           
 11405                           	psect	text24
 11406     1982                     __ptext24:	
 11407 ;; *************** function ___wmul *****************
 11408 ;; Defined at:
 11409 ;;		line 15 in file "C:\Program Files\Microchip\xc8\v2.40\pic\sources\c90\common\Umul16.c"
 11410 ;; Parameters:    Size  Location     Type
 11411 ;;  multiplier      2    0[COMMON] unsigned int 
 11412 ;;  multiplicand    2    2[COMMON] unsigned int 
 11413 ;; Auto vars:     Size  Location     Type
 11414 ;;  product         2    4[COMMON] unsigned int 
 11415 ;; Return value:  Size  Location     Type
 11416 ;;                  2    0[COMMON] unsigned int 
 11417 ;; Registers used:
 11418 ;;		wreg, status,2, status,0
 11419 ;; Tracked objects:
 11420 ;;		On entry : 0/0
 11421 ;;		On exit  : 0/0
 11422 ;;		Unchanged: 0/0
 11423 ;; Data sizes:     COMMON   BANK0   BANK1   BANK3   BANK2
 11424 ;;      Params:         4       0       0       0       0
 11425 ;;      Locals:         2       0       0       0       0
 11426 ;;      Temps:          0       0       0       0       0
 11427 ;;      Totals:         6       0       0       0       0
 11428 ;;Total ram usage:        6 bytes
 11429 ;; Hardware stack levels used: 1
 11430 ;; This function calls:
 11431 ;;		Nothing
 11432 ;; This function is called by:
 11433 ;;		_TXT
 11434 ;; This function uses a non-reentrant model
 11435 ;;
 11436                           
 11437     1982                     ___wmul:	
 11438                           ;psect for function ___wmul
 11439                           
 11440     1982                     i1l3199:	
 11441                           ;incstack = 0
 11442                           ; Regs used in ___wmul: [wreg+status,2+status,0]
 11443                           
 11444     1982  01F4               	clrf	___wmul@product
 11445     1983  01F5               	clrf	___wmul@product+1
 11446     1984                     i1l3201:
 11447     1984  1C70               	btfss	___wmul@multiplier,0
 11448     1985  2987               	goto	u499_21
 11449     1986  2988               	goto	u499_20
 11450     1987                     u499_21:
 11451     1987  298E               	goto	i1l373
 11452     1988                     u499_20:
 11453     1988                     i1l3203:
 11454     1988  0872               	movf	___wmul@multiplicand,w
 11455     1989  07F4               	addwf	___wmul@product,f
 11456     198A  1803               	skipnc
 11457     198B  0AF5               	incf	___wmul@product+1,f
 11458     198C  0873               	movf	___wmul@multiplicand+1,w
 11459     198D  07F5               	addwf	___wmul@product+1,f
 11460     198E                     i1l373:
 11461     198E  3001               	movlw	1
 11462     198F                     u500_25:
 11463     198F  1003               	clrc
 11464     1990  0DF2               	rlf	___wmul@multiplicand,f
 11465     1991  0DF3               	rlf	___wmul@multiplicand+1,f
 11466     1992  3EFF               	addlw	-1
 11467     1993  1D03               	skipz
 11468     1994  298F               	goto	u500_25
 11469     1995                     i1l3205:
 11470     1995  3001               	movlw	1
 11471     1996                     u501_25:
 11472     1996  1003               	clrc
 11473     1997  0CF1               	rrf	___wmul@multiplier+1,f
 11474     1998  0CF0               	rrf	___wmul@multiplier,f
 11475     1999  3EFF               	addlw	-1
 11476     199A  1D03               	skipz
 11477     199B  2996               	goto	u501_25
 11478     199C                     i1l3207:
 11479     199C  0870               	movf	___wmul@multiplier,w
 11480     199D  0471               	iorwf	___wmul@multiplier+1,w
 11481     199E  1D03               	btfss	3,2
 11482     199F  29A1               	goto	u502_21
 11483     19A0  29A2               	goto	u502_20
 11484     19A1                     u502_21:
 11485     19A1  2984               	goto	i1l3201
 11486     19A2                     u502_20:
 11487     19A2                     i1l3209:
 11488     19A2  0875               	movf	___wmul@product+1,w
 11489     19A3  00F1               	movwf	?___wmul+1
 11490     19A4  0874               	movf	___wmul@product,w
 11491     19A5  00F0               	movwf	?___wmul
 11492     19A6                     i1l375:
 11493     19A6  0008               	return
 11494     19A7                     __end_of___wmul:
 11495     007E                     btemp	set	126	;btemp
 11496     007E                     wtemp0	set	126
 11497                           
 11498                           	psect	idloc
 11499                           
 11500                           ;Config register IDLOC0 @ 0x2000
 11501                           ;	unspecified, using default values
 11502     2000                     	org	8192
 11503     2000  3FFF               	dw	16383
 11504                           
 11505                           ;Config register IDLOC1 @ 0x2001
 11506                           ;	unspecified, using default values
 11507     2001                     	org	8193
 11508     2001  3FFF               	dw	16383
 11509                           
 11510                           ;Config register IDLOC2 @ 0x2002
 11511                           ;	unspecified, using default values
 11512     2002                     	org	8194
 11513     2002  3FFF               	dw	16383
 11514                           
 11515                           ;Config register IDLOC3 @ 0x2003
 11516                           ;	unspecified, using default values
 11517     2003                     	org	8195
 11518     2003  3FFF               	dw	16383
 11519                           
 11520                           	psect	config
 11521                           
 11522                           ;Config register CONFIG1 @ 0x2007
 11523                           ;	Oscillator Selection bits
 11524                           ;	FOSC = INTRC_NOCLKOUT, INTOSCIO oscillator: I/O function on RA6/OSC2/CLKOUT pin, I/O f
      +                          unction on RA7/OSC1/CLKIN
 11525                           ;	Watchdog Timer Enable bit
 11526                           ;	WDTE = OFF, WDT disabled and can be enabled by SWDTEN bit of the WDTCON register
 11527                           ;	Power-up Timer Enable bit
 11528                           ;	PWRTE = OFF, PWRT disabled
 11529                           ;	RE3/MCLR pin function select bit
 11530                           ;	MCLRE = OFF, RE3/MCLR pin function is digital input, MCLR internally tied to VDD
 11531                           ;	Code Protection bit
 11532                           ;	CP = OFF, Program memory code protection is disabled
 11533                           ;	Data Code Protection bit
 11534                           ;	CPD = OFF, Data memory code protection is disabled
 11535                           ;	Brown Out Reset Selection bits
 11536                           ;	BOREN = OFF, BOR disabled
 11537                           ;	Internal External Switchover bit
 11538                           ;	IESO = OFF, Internal/External Switchover mode is disabled
 11539                           ;	Fail-Safe Clock Monitor Enabled bit
 11540                           ;	FCMEN = OFF, Fail-Safe Clock Monitor is disabled
 11541                           ;	Low Voltage Programming Enable bit
 11542                           ;	LVP = OFF, RB3 pin has digital I/O, HV on MCLR must be used for programming
 11543                           ;	In-Circuit Debugger Mode bit
 11544                           ;	DEBUG = 0x1, unprogramme 11545     2007                     	org	8199
 11546     2007  20D4               	dw	8404
 11547                           
 11548                           ;Config register CONFIG2 @ 0x2008
 11549                           ;	Brown-out Reset Selection bit
 11550                           ;	BOR4V = BOR40V, Brown-out Reset set to 4.0V
 11551                           ;	Flash Program Memory Self Write Enable bits
 11552                           ;	WRT = OFF, Write protection off
 11553     2008                     	org	8200
 11554     2008  3FFF               	dw	16383

Data Sizes:
    Strings     0
    Constant    0
    Data        3
    BSS         25
    Persistent  2
    Stack       0

Auto Spaces:
    Space          Size  Autos    Used
    COMMON           14     14      14
    BANK0            80     80      80
    BANK1            80     37      57
    BANK3            96     96      96
    BANK2            96     31      41

Pointer List with Targets:

    None.

Critical Paths under _main in COMMON

    None.

Critical Paths under _isr in COMMON

    _isr->_TXT
    _isr->i1___xxtofl
    _servos->i1___xxtofl
    i1___fladd->i1___xxtofl
    i1___fltol->i1___xxtofl
    i1___flmul->i1___xxtofl
    i1___fldiv->i1___xxtofl
    _TXT->___wmul

Critical Paths under _main in BANK0

    None.

Critical Paths under _isr in BANK0

    _isr->i1___fltol
    _servos->i1___fltol
    i1___fladd->i1___flmul
    i1_PWM_duty->i1___fltol
    i1___fltol->i1___fladd
    i1___flmul->i1___fldiv

Critical Paths under _main in BANK1

    None.

Critical Paths under _isr in BANK1

    _isr->_servos
    _servos->i1_PWM_duty
    i1_PWM_duty->i1___fltol

Critical Paths under _main in BANK3

    _main->___fltol
    _PWM_duty->___fltol
    ___flmul->___fldiv
    _PWM_config->___fltol
    ___fltol->___fladd
    ___fldiv->___xxtofl
    ___fladd->___flmul

Critical Paths under _isr in BANK3

    None.

Critical Paths under _main in BANK2

    _main->_setup
    _setup->_PWM_duty

Critical Paths under _isr in BANK2

    None.

Call Graph Tables:

 ---------------------------------------------------------------------------------
 (Depth) Function   	        Calls       Base Space   Used Autos Params    Refs
 ---------------------------------------------------------------------------------
 (0) _main                                                18    18      0   41042
                                             13 BANK2     18    18      0
                           _PWM_duty
                            ___fladd
                            ___fldiv
                            ___flmul
                            ___fltol
                           ___xxtofl
                           _initUART
                              _setup
 ---------------------------------------------------------------------------------
 (1) _setup                                                1     1      0   15413
                                             12 BANK2      1     1      0
                         _PWM_config
                           _PWM_duty
 ---------------------------------------------------------------------------------
 (2) _PWM_duty                                            12     8      4   10824
                                              0 BANK2     12     8      4
                            ___fldiv
                            ___flmul
                            ___fltol
                           ___xxtofl (ARG)
 ---------------------------------------------------------------------------------
 (3) ___flmul                                             26    18      8    5643
                                             40 BANK3     26    18      8
                          __Umul8_16
                            ___fldiv (ARG)
                           ___xxtofl (ARG)
 ---------------------------------------------------------------------------------
 (4) __Umul8_16                                            9     7      2     980
                                              0 BANK3      9     7      2
 ---------------------------------------------------------------------------------
 (2) _PWM_config                                           5     1      4    4589
                                              0 BANK2      5     1      4
                            ___fldiv
                            ___fltol
 ---------------------------------------------------------------------------------
 (3) ___fltol                                             10     6      4    1262
                                             86 BANK3     10     6      4
                            ___fladd (ARG)
                            ___fldiv (ARG)
                            ___flmul (ARG)
                           ___xxtofl (ARG)
 ---------------------------------------------------------------------------------
 (3) ___fldiv                                             26    18      8    3023
                                             14 BANK3     26    18      8
                          __Umul8_16 (ARG)
                           ___xxtofl (ARG)
 ---------------------------------------------------------------------------------
 (1) _initUART                                             0     0      0       0
 ---------------------------------------------------------------------------------
 (1) ___xxtofl                                            14    10      4    1531
                                              0 BANK3     14    10      4
 ---------------------------------------------------------------------------------
 (1) ___fladd                                             20    12      8    2814
                                             66 BANK3     20    12      8
                            ___flmul (ARG)
                           ___xxtofl (ARG)
 ---------------------------------------------------------------------------------
 Estimated maximum stack depth 4
 ---------------------------------------------------------------------------------
 (Depth) Function   	        Calls       Base Space   Used Autos Params    Refs
 ---------------------------------------------------------------------------------
 (5) _isr                                                 12    12      0   24639
                                             25 BANK1     12    12      0
                                _TXT
                              _pulse
                        _read_EEPROM
                             _servos
                       _write_EEPROM
                         i1_PWM_duty
                          i1___fladd
                          i1___fldiv
                          i1___flmul
                          i1___fltol
                         i1___xxtofl
 ---------------------------------------------------------------------------------
 (6) _write_EEPROM                                         3     2      1     143
                                              0 COMMON     3     2      1
 ---------------------------------------------------------------------------------
 (6) _servos                                              11     9      2   12132
                                             14 BANK1     11     9      2
                         i1_PWM_duty
                          i1___fladd
                          i1___fldiv
                          i1___flmul
                          i1___fltol
                         i1___xxtofl
 ---------------------------------------------------------------------------------
 (6) i1___xxtofl                                          14    10      4     608
                                              0 COMMON    14    10      4
 ---------------------------------------------------------------------------------
 (6) i1___fladd                                           20    12      8    2192
                                             52 BANK0     20    12      8
                          i1___flmul (ARG)
                         i1___xxtofl (ARG)
 ---------------------------------------------------------------------------------
 (6) i1_PWM_duty                                          12     8      4    4713
                                              2 BANK1     12     8      4
                          i1___fldiv
                          i1___flmul
                          i1___fltol
 ---------------------------------------------------------------------------------
 (6) i1___fltol                                           10     6      4     463
                                             72 BANK0      8     4      4
                                              0 BANK1      2     2      0
                          i1___fladd (ARG)
                          i1___fldiv (ARG)
                          i1___flmul (ARG)
                         i1___xxtofl (ARG)
 ---------------------------------------------------------------------------------
 (6) i1___flmul                                           26    18      8    2491
                                             26 BANK0     26    18      8
                        i1__Umul8_16
                          i1___fldiv (ARG)
                         i1___xxtofl (ARG)
 ---------------------------------------------------------------------------------
 (7) i1__Umul8_16                                          9     7      2     349
                                              0 COMMON     9     7      2
 ---------------------------------------------------------------------------------
 (6) i1___fldiv                                           26    18      8    1433
                                              0 BANK0     26    18      8
                        i1__Umul8_16 (ARG)
                         i1___xxtofl (ARG)
 ---------------------------------------------------------------------------------
 (6) _read_EEPROM                                          1     1      0      22
                                              0 COMMON     1     1      0
 ---------------------------------------------------------------------------------
 (6) _pulse                                                0     0      0       0
 ---------------------------------------------------------------------------------
 (6) _TXT                                                  8     8      0     396
                                              6 COMMON     8     8      0
                             ___wmul
 ---------------------------------------------------------------------------------
 (7) ___wmul                                               6     2      4     396
                                              0 COMMON     6     2      4
 ---------------------------------------------------------------------------------
 Estimated maximum stack depth 7
 ---------------------------------------------------------------------------------

 Call Graph Graphs:

 _main (ROOT)
   _PWM_duty
     ___fldiv
       __Umul8_16 (ARG)
       ___xxtofl (ARG)
     ___flmul
       __Umul8_16
       ___fldiv (ARG)
       ___xxtofl (ARG)
     ___fltol
       ___fladd (ARG)
         ___flmul (ARG)
         ___xxtofl (ARG)
       ___fldiv (ARG)
       ___flmul (ARG)
       ___xxtofl (ARG)
     ___xxtofl (ARG)
   ___fladd
   ___fldiv
   ___flmul
   ___fltol
   ___xxtofl
   _initUART
   _setup
     _PWM_config
       ___fldiv
       ___fltol
     _PWM_duty

 _isr (ROOT)
   _TXT
     ___wmul
   _pulse
   _read_EEPROM
   _servos
     i1_PWM_duty
       i1___fldiv
         i1__Umul8_16 (ARG)
         i1___xxtofl (ARG)
       i1___flmul
         i1__Umul8_16
         i1___fldiv (ARG)
         i1___xxtofl (ARG)
       i1___fltol
         i1___fladd (ARG)
           i1___flmul (ARG)
           i1___xxtofl (ARG)
         i1___fldiv (ARG)
         i1___flmul (ARG)
         i1___xxtofl (ARG)
     i1___fladd
     i1___fldiv
     i1___flmul
     i1___fltol
     i1___xxtofl
   _write_EEPROM
   i1_PWM_duty
   i1___fladd
   i1___fldiv
   i1___flmul
   i1___fltol
   i1___xxtofl

 Address spaces:
Name               Size   Autos  Total    Cost      Usage
BANK3               60     60      60       9      100.0%
BITBANK3            60      0       0       8        0.0%
SFR3                 0      0       0       4        0.0%
BITSFR3              0      0       0       4        0.0%
BANK2               60     1F      29      11       42.7%
BITBANK2            60      0       0      10        0.0%
SFR2                 0      0       0       5        0.0%
BITSFR2              0      0       0       5        0.0%
BANK1               50     25      39       7       71.2%
BITBANK1            50      0       0       6        0.0%
SFR1                 0      0       0       2        0.0%
BITSFR1              0      0       0       2        0.0%
BANK0               50     50      50       5      100.0%
BITBANK0            50      0       0       4        0.0%
SFR0                 0      0       0       1        0.0%
BITSFR0              0      0       0       1        0.0%
COMMON               E      E       E       1      100.0%
BITCOMMON            E      0       0       0        0.0%
CODE                 0      0       0       0        0.0%
DATA                 0      0     120      12        0.0%
ABS                  0      0     120       3        0.0%
NULL                 0      0       0       0        0.0%
STACK                0      0       0       2        0.0%
EEDATA             100      0       0       0        0.0%


Microchip Technology PIC Macro Assembler V2.40 build 20220703182018 
Symbol Table                                                                                   Thu Jun 01 01:16:03 2023

            ___fldiv@aexp 01B7              ___fldiv@bexp 01B6                         _i 00D6  
             i1___fladd@a 0058               i1___fladd@b 0054              ___fldiv@sign 01AF  
             i1___fldiv@a 0020               i1___fldiv@b 0024                        _RD 0C60  
                      _WR 0C61               i1___flmul@a 003E               i1___flmul@b 003A  
                      fsr 0004       ___wmul@multiplicand 0072       __Umul8_16@word_mpld 0196  
              i1___xxtofl 100B                       l210 0D8F                       l202 0D53  
                     l214 0DAE                       l206 0D72                       l231 1C5B  
                     l234 19CB                       l219 0E16                       l281 1B47  
                     l700 17D3                       l276 1B34                       l278 1B38  
                     l279 1B44                       l287 07F6                       l722 11D3  
                     l708 17F5                       l820 1152                       l812 112A  
                     l724 134F                       l709 17FF                       l670 1686  
                     l806 10E7                       l566 1AB7                       l559 1ACC  
                     l672 165F                       l808 117C                       l744 1337  
                     l569 1ACC                       l666 1603                       l746 1345  
                     l738 12C5                       l762 0383                       l691 1773  
                     l819 1146                       l781 1A09                       l774 0377  
                     l687 174F                       l679 17FF                       l783 1A1B  
                     l768 02F3                       l697 1795                       _GIE 005F  
                     _PR2 0092                       _TXT 1B48                _PWM_config 1ACD  
                     _isr 09C2                       fsr0 0004                       indf 0000  
            i1___fltol@f1 0068             i1___fladd@grs 0067              ___flmul@aexp 01C6  
            ___flmul@bexp 01CB              ___flmul@sign 01C5              ___flmul@temp 01D0  
            ___flmul@prod 01CC             i1___fldiv@grs 0034                      ?_TXT 0070  
           i1___fldiv@rem 002D              ___fltol@exp1 01EF                      l4101 1A85  
                    l4111 1A93                      l4103 1A87                      l4201 1265  
                    l4121 1ABC                      l4105 1A8B                      l4113 1AA5  
                    l4211 1286                      l4203 1266                      l4131 118A  
                    l4123 1AC1                      l4221 129F                      l4213 1288  
                    l4205 1274                      l4141 119E                      l4133 118B  
                    l4125 117D                      l4301 008B                      l4231 12C2  
                    l4215 1291                      l4223 12A5                      l4207 1278  
                    l4151 11B5                      l4135 1190                      l4143 11A0  
                    l4127 1182                      l4119 1AAC                      l4311 00A6  
                    l4303 0093                      l4241 12E1                      l4225 12A9  
                    l4217 1295                      l4209 127E                      l4161 11C9  
                    l4153 11B6                      l4145 11A8                      l4137 1195  
                    l4129 1186                      l4081 1A03                      l4401 0372  
                    l4321 0122                      l4313 00B4                      l4305 0098  
                    l4251 132A                      l4243 12FA                      l4235 12CA  
                    l4227 12AA                      l4219 1296                      l4155 11BB  
                    l4163 11CB                      l4147 11AD                      l4139 119D  
                    l4091 1A60                      l4083 1A12                      l4075 19F6  
                    l4403 037B                      l4331 018E                      l4323 013E  
                    l4315 00C1                      l4307 009D                      l4411 0726  
                    l3701 15E5                      l4261 1341                      l4253 132E  
                    l4237 12CF                      l4245 1300                      l4229 12AE  
                    l4181 1214                      l4165 11DB                      l4173 11F4  
                    l4157 11C0                      l4149 11B1                      l4085 1A17  
                    l4077 19F8                      l4341 0218                      l4333 019C  
                    l4325 015A                      l4317 00DC                      l4421 07BD  
                    l4413 0737                      l4501 1BED                      l3711 15F9  
                    l3703 15E6                      l4255 1336                      l4247 130D  
                    l4239 12DD                      l4191 1233                      l4183 121C  
                    l4175 11F9                      l4167 11E7                      l4159 11C8  
                    l4095 1A69                      l4431 1B08                      l4079 19FF  
                    l4351 02A8                      l4343 0226                      l4335 01B9  
                    l4327 0163                      l4319 00F8                      l4271 0048  
                    l4423 07CC                      l4415 0748                      l4407 06CC  
                    l4511 1BF4                      l4503 1BEE                      l3801 1732  
                    l3721 1613                      l3705 15EB                      l3713 15FB  
                    l4601 113C                      l4257 133B                      l4249 131B  
                    l4193 1245                      l4185 1224                      l4169 11EB  
                    l4097 1A7C                      l4089 1A55                      l4441 1B1D  
                    l4433 1B0F                      l4361 02CD                      l4353 02B6  
                    l4345 0251                      l4337 01D0                      l4329 0171  
                    l4281 005F                      l4273 004C                      l4425 07DD  
                    l4409 06D1                      l4417 0762                      l4521 1BF9  
                    l4513 1BF5                      l4505 1BEF                      l3811 1765  
                    l3803 1741                      l3731 161D                      l3723 1615  
                    l3715 1609                      l3707 15F0                      l4611 116F  
                    l4603 1140                      l4259 133F                      l4195 1249  
                    l4187 122C                      l4179 1202                      l4099 1A7D  
                    l4451 1B2D                      l4435 1B12                      l4443 1B1F  
                    l4371 02F0                      l4355 02BF                      l4363 02D3  
                    l4347 0277                      l4339 01ED                      l4291 0076  
                    l4283 0061                      l4275 004D                      l4267 003F  
                    l4419 0768                      l4531 1C06                      l4523 1BFA  
                    l4515 1BF6                      l4507 1BF0                      l3821 177C  
                    l3813 176E                      l3805 1757                      l3741 1627  
                    l3733 161F                      l3725 1617                      l3717 160D  
                    l3709 15F8                      l4613 1173                      l4605 114A  
                    l4197 124A                      l4189 122E                      l4461 1B39  
                    l4453 1B2E                      l4445 1B25                      l4437 1B1A  
                    l4429 1AD0                      l4381 030F                      l4365 02D7  
                    l4357 02C3                      l4349 029F                      l4293 0077  
                    l4285 0069                      l4277 0052                      l4269 0044  
                    l4541 1C2B                      l4533 1C0D                      l4525 1BFD  
                    l4517 1BF7                      l4509 1BF1                      l4701 0EDB  
                    l4621 0CE3                      l3831 178C                      l3823 1781  
                    l3815 1772                      l3807 175C                      l3751 1630  
                    l3743 1629                      l3735 1621                      l3727 1619  
                    l3719 1611                      l3671 15A8                      l4615 1174  
                    l4607 1154                      l4551 19AB                      l4199 1253  
                    l4463 1B40                      l4447 1B28                      l4455 1B2F  
                    l4439 1B1C                      l4391 0355                      l4383 0328  
                    l4375 02F8                      l4367 02D8                      l4359 02C4  
                    l4295 007C                      l4287 006E                      l4279 0057  
                    l4543 1C3B                      l4535 1C10                      l4527 1BFE  
                    l4519 1BF8                      l4471 1BD3                      l4703 0F22  
                    l4631 0CFA                      l4623 0CE8                      l3841 17AD  
                    l3833 1792                      l3817 1777                      l3825 1783  
                    l3761 1670                      l3753 1647                      l3745 162B  
                    l3737 1623                      l3729 161B                      l3681 15BB  
                    l3673 15AD                      l4609 116A                      l4561 19B6  
                    l4553 19AC                      l4457 1B31                      l4449 1B2C  
                    l4393 035F                      l4377 02FD                      l4385 032E  
                    l4369 02DC                      l4297 0081                      l4289 0072  
                    l4545 1C4B                      l4537 1C13                      l4529 1C03  
                    l4481 1BDB                      l4473 1BD5                      l4465 1BC7  
                    l4705 0F81                      l4641 0D16                      l4633 0CFE  
                    l4625 0CED                      l3851 17E5                      l3843 17B1  
                    l3819 177A                      l3827 1787                      l3771 168F  
                    l3763 1671                      l3755 1663                      l3747 162D  
                    l3739 1625                      l3691 15D3                      l3683 15C0  
                    l3675 15B1                      l4571 19C5                      l4563 19B9  
                    l4555 19AD                      l4459 1B33                      l4395 0361  
                    l4387 033B                      l4379 030B                      l4299 0089  
                    l4539 1C1B                      l4491 1BE2                      l4483 1BDE  
                    l4475 1BD7                      l4467 1BCE                      l4707 0F8F  
                    l4651 0D43                      l4643 0D25                      l4635 0D09  
                    l4627 0CF0                      l4619 0CD5                      l3861 17FA  
                    l3853 17EA                      l3845 17CF                      l3837 179A  
                    l3829 1788                      l3781 16B7                      l3765 167A  
                    l3757 166A                      l3749 162F                      l3693 15D6  
                    l3685 15C8                      l3677 15B5                      l4581 10DF  
                    l4573 19C8                      l4565 19BC                      l4557 19B0  
                    l4549 19A7                      l4397 036D                      l4389 0346  
                    l4493 1BE5                      l4485 1BDF                      l4477 1BD8  
                    l4469 1BCF                      l4709 0FEE                      l4661 0D89  
                    l4653 0D4D                      l4645 0D2C                      l4637 0D0F  
                    l4629 0CF8                      l3863 17FE                      l3855 17EB  
                    l3847 17D8                      l3839 179F                      l3791 16CE  
                    l3783 16BE                      l3775 1698                      l3759 166C  
                    l3767 167E                      l3695 15DC                      l3687 15C9  
                    l3679 15B6                      l4591 1108                      l4583 10EF  
                    l4575 10C6                      l4567 19BF                      l4559 19B3  
                    l4399 0371                      l4495 1BE7                      l4487 1BE0  
                    l4479 1BD9                      l4671 0DC1                      l4663 0D9E  
                    l4655 0D62                      l4647 0D34                      l4639 0D10  
                    l3857 17EF                      l3849 17DD                      l3785 16C0  
                    l3777 16AF                      l3769 168A                      l3793 16D3  
                    l3697 15DD                      l3689 15CB                      l4593 110F  
                    l4577 10CB                      l4569 19C2                      l4497 1BEB  
                    l4489 1BE1                      l4681 0DF0                      l4673 0DC8  
                    l4665 0DA8                      l4657 0D6C                      l4649 0D36  
                    l3859 17F1                      l3795 16E9                      l3787 16C4  
                    l3779 16B3                      l3699 15E1                      l4595 1113  
                    l4587 10F8                      l4579 10CF                      l4499 1BEC  
                    l4691 0E1E                      l4683 0DFD                      l4675 0DD5  
                    l4667 0DB0                      l4659 0D7F                      l3797 1727  
                    l3789 16C5                      l4597 1121                      l4589 10FB  
                    l4685 0E04                      l4677 0DDC                      l4669 0DB6  
                    l4693 0E21                      l3799 172D                      l4599 1131  
                    l4695 0E29                      l4687 0E11                      l4679 0DE9  
                    l4697 0E2B                      l4689 0E16                      l4699 0E83  
                    ?_isr 0070                      _BRGH 04C2                      _CREN 00C4  
                    _IOCB 0096                      u6001 1700                      u6010 1714  
                    u6002 1701                      u6011 1715                      u6003 1706  
                    u6100 178C                      u6020 1732                      u6012 171A  
                    u6004 1707                      u6101 178B                      u6021 1731  
                    u6013 171B                      u6005 170C                      u6110 1792  
                    u6030 1757                      u6006 170D                      u6111 1791  
                    u6031 1756                      u6200 17EF                      u6120 1799  
                    u6040 175C                      u6201 17EE                      u6121 1798  
                    u6041 175B                      u6210 17FE                      u6130 179F  
                    u7010 12A9                      u6211 17FD                      u6131 179E  
                    u7011 12A8                      u6140 17B1                      u6060 1772  
                    u7100 133F                      u7020 12AE                      u6141 17B0  
                    u6061 1771                      u7101 133E                      u7021 12AD  
                    u7005 1298                      u6150 17C0                      u6070 1777  
                    u7030 12C2                      u7110 004C                      u6071 1776  
                    u6055 1767                      u7031 12C1                      u7111 004B  
                    u6160 17CF                      u6080 1781                      u7040 12C9  
                    u7120 0052                      u6161 17CE                      u6081 1780  
                    u7041 12C8                      u7201 0106                      u7121 0051  
                    u6170 17D8                      u6090 1787                      u7050 12CF  
                    u7202 010D                      u7130 0057                      u6171 17D7  
                    u6155 17BB                      u6091 1786                      u7051 12CE  
                    u7211 0130                      u7203 0114                      u7131 0056  
                    u6180 17DD                      u7060 12E1                      u7300 025D  
                    u7212 0137                      u7140 0076                      u6181 17DC  
                    u7061 12E0                      u7221 014C                      u7213 013E  
                    u7141 0075                      u6190 17EA                      u7070 12F0  
                    u7222 0153                      u7150 007C                      u6191 17E9  
                    u7311 0269                      u7223 015A                      u7151 007B  
                    u5800 15E5                      u7080 130D                      u7400 02F0  
                    u7320 0285                      u7312 0270                      u7160 0081  
                    u5801 15E4                      u7081 130C                      u7401 02EF  
                    u7313 0277                      u7305 0258                      u7241 0180  
                    u7161 0080                      u5810 15EB                      u7090 132A  
                    u7410 02F7                      u7242 0187                      u7170 0098  
                    u5811 15EA                      u7091 1329                      u7075 12EB  
                    u7411 02F6                      u7331 0291                      u7251 01AB  
                    u7243 018E                      u7235 015C                      u7171 0097  
                    u5820 15F0                      u7500 1B0F                      u7420 02FD  
                    u7332 0298                      u7252 01B2                      u7180 009D  
                    u5821 15EF                      u7085 1309                      u7501 1B0E  
                    u7421 02FC                      u7333 029F                      u7325 0280  
                    u7253 01B9                      u7181 009C                      u5910 1686  
                    u5830 1609                      u7510 1B25                      u6710 1A17  
                    u7430 030F                      u5911 1685                      u5831 1608  
                    u7095 1326                      u7511 1B24                      u6711 1A16  
                    u7431 030E                      u7271 01DF                      u7191 00EA  
                    u5920 168A                      u5840 160D                      u5760 15B5  
                    u7600 1130                      u6800 1ABC                      u6720 1A60  
                    u7520 1B38                      u7440 031E                      u7360 02C3  
                    u7272 01E6                      u7192 00F1                      u5921 1689  
                    u5905 1673                      u5841 160C                      u5761 15B4  
                    u7601 112F                      u6801 1ABB                      u6721 1A5F  
                    u7521 1B37                      u6705 1A0A                      u7361 02C2  
                    u7345 02A1                      u7281 020A                      u7273 01ED  
                    u7265 01BB                      u7193 00F8                      u5930 168F  
                    u5850 1647                      u5770 15BB                      u6810 1AC1  
                    u6730 1A77                      u7530 1B40                      u7450 033B  
                    u7282 0211                      u5931 168E                      u5851 1646  
                    u5771 15BA                      u6811 1AC0                      u7531 1B3F  
                    u7451 033A                      u7355 02B8                      u7291 0235  
                    u7283 0218                      u5860 1652                      u5780 15C0  
                    u7620 1140                      u7540 10CB                      u6900 1233  
                    u6820 118A                      u6740 1A8B                      u7460 0355  
                    u7380 02D7                      u7292 023C                      u7700 0D25  
                    u5941 16A1                      u5861 1650                      u5781 15BF  
                    u7621 113F                      u7541 10CA                      u6901 1232  
                    u6821 1189                      u6741 1A8A                      u7461 0354  
                    u7445 0319                      u7381 02D6                      u7293 0243  
                    u7701 0D24                      u5950 16B3                      u5942 16A8  
                    u5870 1653                      u5790 15DC                      u7630 1146  
                    u7550 10CF                      u6830 1190                      u6750 1A92  
                    u7470 0371                      u7390 02DC                      u7710 0D34  
                    u5951 16B2                      u5943 16AF                      u5855 1643  
                    u5791 15DB                      u7631 1145                      u7615 1135  
                    u7551 10CE                      u6831 118F                      u6751 1A91  
                    u6735 1A72                      u7471 0370                      u7455 0337  
                    u7391 02DB                      u7375 02C6                      u7711 0D33  
                    u5960 16B7                      u5880 1663                      u7640 114A  
                    u7560 10EF                      u6840 1195                      u7480 06D1  
                    u7800 0DFD                      u7720 0D43                      u5961 16B6  
                    u5881 1662                      u7641 1149                      u7561 10EE  
                    u6841 1194                      u7465 0351                      u7481 06D0  
                    u7801 0DFC                      u7721 0D42                      u7705 0D21  
                    u5970 16C4                      u5890 1670                      u7650 115F  
                    u6930 1249                      u6850 11B5                      u6770 1AA4  
                    u6690 1A03                      u7490 0768                      u7810 0E11  
                    u7730 0D62                      u5971 16C3                      u5891 166F  
                    u6931 1248                      u6915 1235                      u6851 11B4  
                    u6771 1AA3                      u6691 1A02                      u7491 0767  
                    u7811 0E10                      u7731 0D61                      u7660 116F  
                    u7580 110E                      u6860 11BB                      u6780 1AAB  
                    u7820 0E29                      u7740 0D7F                      u7661 116E  
                    u7581 110D                      u6925 123E                      u6861 11BA  
                    u6781 1AAA                      u6765 1A94                      u7821 0E28  
                    u7741 0D7E                      u7725 0D3F                      u5990 16E9  
                    u7670 1173                      u6950 1265                      u6870 11C0  
                    u7750 0D9E                      u5991 16E8                      u7671 1172  
                    u7655 115A                      u7575 1100                      u6951 1264  
                    u6871 11BF                      u7751 0D9D                      u7735 0D5E  
                    u6960 127E                      u6880 11DB                      u7760 0DB6  
                    u7680 0CF8                      u5993 16E5                      u5985 16C7  
                    u6961 127D                      u6945 124C                      u6881 11DA  
                    u7761 0DB5                      u7745 0D7B                      u7681 0CF7  
                    u6970 1286                      u6890 11F9                      u7770 0DC1  
                    u7690 0D0F                      u7595 1122                      u6971 1285  
                    u6955 1261                      u6891 11F8                      u6795 1AAE  
                    u7771 0DC0                      u7755 0D9A                      u7691 0D0E  
                    u7780 0DD5                      u7837 0E1A                      u7781 0DD4  
                    u6990 1295                      u7790 0DE9                      u6991 1294  
                    u7847 1C17                      u7791 0DE8                      u6985 128A  
                    _TMR0 0001                      _SPEN 00C7                      _TXEN 04C5  
                    _TXIF 0064                      _SYNC 04C4                      _ang1 0138  
                    _ang2 0137                      _data 00D4                      _flag 0131  
                    _main 0CD5                      _modo 00D1             i1___flmul@grs 0048  
                    btemp 007E            i1___fladd@aexp 0065            i1___fladd@bexp 0066  
                    start 0012           ___fldiv@new_exp 01B0              ?_read_EEPROM 0070  
                   ??_TXT 0076                     ??_isr 00B9            i1___fldiv@aexp 0039  
          i1___fldiv@bexp 0038            i1___fldiv@sign 0031               ?i1_PWM_duty 00A2  
           ___fltol@sign1 01EE           __end_of___fladd 1800                     ?_main 0070  
         __end_of___fldiv 1350                     _EEADR 010D                     _EEDAT 010C  
                   _BRG16 0C3B           __end_of___flmul 0384           __end_of___fltol 1ACD  
                   i1l150 09F0                     i1l240 195F                     i1l160 0A3D  
                   i1l152 09FA                     i1l250 1B51                     i1l154 0A05  
                   i1l243 1961                     i1l156 0A0E                     i1l237 194A  
                   i1l157 0A48                     i1l254 1BC6                     i1l246 1981  
                   i1l166 0CA7                     i1l158 0A1D                     i1l175 0CC8  
                   i1l185 1A54                     i1l700 157B                     i1l373 198E  
                   i1l189 1E2C                     i1l375 19A6                     i1l287 09C1  
                   i1l722 1E83                     i1l724 1FFF                     i1l708 159D  
                   i1l820 1098                     i1l812 1070                     i1l709 15A7  
                   i1l566 087C                     i1l670 142E                     i1l806 102D  
                   i1l559 0893                     i1l744 1FE7                     i1l672 1407  
                   i1l808 10C2                     i1l569 0893                     i1l746 1FF5  
                   i1l738 1F75                     i1l762 06C8                     i1l666 13AB  
                   i1l691 151B                     i1l819 108C                     i1l781 19E0  
                   i1l774 06BC                     i1l783 19F2                     i1l687 14F7  
                   i1l679 15A7                     i1l768 0638                     i1l697 153D  
                   _RCREG 001A                     _SPBRG 0099                     _PORTA 0005  
                   _PORTB 0006                     _PORTC 0007                     _PORTD 0008  
                   _PORTE 0009                     _TRISA 0085                     _TRISB 0086  
                   _TRISC 0087                     _TRISD 0088                     _TRISE 0089  
          i1___flmul@aexp 004C            i1___flmul@bexp 004D            i1___flmul@sign 0047  
          i1___flmul@temp 0052            i1___flmul@prod 004E                     _servo 00D8  
                   _setup 1BC7                     _pulse 1A1C                     pclath 000A  
          i1___fltol@exp1 00A1          __end_of_PWM_duty 07F7                     status 0003  
                   wtemp0 007E           i1___fladd@signs 0064           __initialization 0015  
            __end_of_main 1000                    ??_main 011D               ?i1___xxtofl 0070  
             ?_PWM_config 0110              _write_EEPROM 1960                    _ADRESH 001E  
                  _CCPR1L 0015                    _CCPR2L 001B                    _EECON2 018D  
                  ?_setup 0070                    ?_pulse 0070                    _ANSELH 0189  
                  i1l3001 0384                    i1l3011 0397                    i1l3003 0389  
                  i1l3101 061D                    i1l3021 03B3                    i1l3013 039C  
                  i1l3005 038D                    i1l3111 0642                    i1l3103 0621  
                  i1l3031 03C6                    i1l3023 03B7                    i1l3015 03A4  
                  i1l3007 0391                    i1l3201 1984                    i1l3121 0680  
                  i1l3113 0650                    i1l3105 0635                    i1l3041 03E2  
                  i1l3033 03CE                    i1l3025 03BB                    i1l3017 03A6  
                  i1l3009 0392                    i1l3203 1988                    i1l3131 06B2  
                  i1l3123 068B                    i1l3115 0654                    i1l3051 0421  
                  i1l3035 03D0                    i1l3027 03BC                    i1l3019 03AE  
                  i1l3205 1995                    i1l2501 19EE                    i1l3133 06B6  
                  i1l3125 069A                    i1l3117 066D                    i1l3109 063D  
                  i1l3061 04A8                    i1l3053 043D                    i1l3045 03EB  
                  i1l3037 03D8                    i1l3029 03C1                    i1l3221 0913  
                  i1l3213 0897                    i1l3301 13CB                    i1l3207 199C  
                  i1l3135 06B7                    i1l3127 06A4                    i1l3119 0673  
                  i1l3071 0515                    i1l3063 04B6                    i1l3055 0467  
                  i1l3047 03F9                    i1l3039 03DD                    i1l3231 09A8  
                  i1l3215 089C                    i1l3223 092D                    i1l3311 13D5  
                  i1l3303 13CD                    i1l3209 19A2                    i1l3137 06C0  
                  i1l3129 06A6                    i1l3081 05BC                    i1l3073 0532  
                  i1l3065 04D3                    i1l3057 0483                    i1l3049 0406  
                  i1l3225 0933                    i1l3217 08F1                    i1l3401 1542  
                  i1l3321 1412                    i1l3305 13CF                    i1l3313 13D7  
                  i1l3241 135D                    i1l3091 0608                    i1l3083 05E4  
                  i1l3075 055D                    i1l3067 04E1                    i1l3059 049F  
                  i1l3227 0988                    i1l3219 0902                    i1l3411 1580  
                  i1l3403 1547                    i1l3323 1414                    i1l3331 1426  
                  i1l3315 13D8                    i1l3307 13D1                    i1l3251 1371  
                  i1l3243 135E                    i1l3235 1350                    i1l3093 0609  
                  i1l3085 05ED                    i1l3077 056B                    i1l3069 04FE  
                  i1l3229 0997                    i1l3421 1597                    i1l3413 1585  
                  i1l3405 1555                    i1l3341 1457                    i1l3333 1432  
                  i1l3325 1418                    i1l3317 13EF                    i1l3309 13D3  
                  i1l3261 1385                    i1l3245 1363                    i1l3253 1373  
                  i1l3237 1355                    i1l3511 1B77                    i1l3503 1B56  
                  i1l3095 0612                    i1l3087 05FB                    i1l3079 0596  
                  i1l3423 1599                    i1l3415 158D                    i1l3407 1559  
                  i1l3351 146C                    i1l3343 145B                    i1l3335 1437  
                  i1l3327 1419                    i1l3319 140B                    i1l3271 1398  
                  i1l3263 1389                    i1l3255 137B                    i1l3247 1368  
                  i1l3239 1359                    i1l3431 1011                    i1l3513 1B7E  
                  i1l3505 1B5E                    i1l3089 0604                    i1l3097 0618  
                  i1l3425 15A2                    i1l3417 1592                    i1l3409 1577  
                  i1l3361 14CF                    i1l3353 146D                    i1l3345 145F  
                  i1l3329 1422                    i1l3281 13B5                    i1l3273 13A0  
                  i1l3265 138D                    i1l3257 137E                    i1l3249 1370  
                  i1l3441 103E                    i1l3433 1015                    i1l3521 1961  
                  i1l3515 1B88                    i1l3507 1B66                    i1l2491 19CD  
                  i1l3099 061C                    i1l3427 15A6                    i1l3419 1593  
                  i1l3371 1504                    i1l3363 14D5                    i1l3355 1476  
                  i1l3347 1466                    i1l3339 1440                    i1l3291 13C1  
                  i1l3283 13B9                    i1l3275 13A1                    i1l3267 138E  
                  i1l3259 1384                    i1l3451 1067                    i1l3443 1041  
                  i1l3435 1025                    i1l3531 1975                    i1l3523 1967  
                  i1l3517 1BC2                    i1l3509 1B72                    i1l2901 1E97  
                  i1l2493 19CF                    i1l3381 151F                    i1l3365 14DA  
                  i1l3349 1468                    i1l3357 147B                    i1l3293 13C3  
                  i1l3285 13BB                    i1l3269 1393                    i1l3277 13A3  
                  i1l3461 109A                    i1l3453 1077                    i1l3445 104E  
                  i1l3437 1035                    i1l3429 100C                    i1l3541 197C  
                  i1l3533 1976                    i1l3525 196D                    i1l3199 1982  
                  i1l3551 195B                    i1l3543 194A                    i1l2903 1E9B  
                  i1l2495 19D6                    i1l2831 0835                    i1l2823 0806  
                  i1l3383 1522                    i1l3375 150D                    i1l3359 1491  
                  i1l3367 14E9                    i1l3391 152F                    i1l3295 13C5  
                  i1l3287 13BD                    i1l3279 13B1                    i1l3463 10B0  
                  i1l3455 1082                    i1l3447 1055                    i1l3535 1978  
                  i1l3527 1970                    i1l3481 1A31                    i1l3473 1A1C  
                  i1l3545 1950                    i1l2921 1EDC                    i1l2913 1EB2  
                  i1l2497 19DA                    i1l2833 0838                    i1l2825 0813  
                  i1l3393 1530                    i1l3385 1524                    i1l3377 1516  
                  i1l3369 14FF                    i1l3297 13C7                    i1l3289 13BF  
                  i1l3465 10B5                    i1l3457 1086                    i1l3449 1059  
                  i1l3537 197A                    i1l3529 1971                    i1l3491 1A4B  
                  i1l3483 1A37                    i1l3475 1A23                    i1l3547 1954  
                  i1l2931 1EFA                    i1l2923 1EDE                    i1l2915 1EC4  
                  i1l2907 1EA4                    i1l2499 19E9                    i1l2835 0840  
                  i1l3395 1534                    i1l3387 1529                    i1l3379 151A  
                  i1l3299 13C9                    i1l3467 10B9                    i1l3459 1090  
                  i1l3555 1C5F                    i1l3539 197B                    i1l3493 1A4D  
                  i1l3477 1A29                    i1l3485 1A39                    i1l3549 1958  
                  i1l2925 1EE3                    i1l2933 1F03                    i1l2941 1F28  
                  i1l2917 1ECC                    i1l2909 1EA9                    i1l2861 1E32  
                  i1l2853 086D                    i1l2845 0850                    i1l2837 0844  
                  i1l2829 081E                    i1l3397 153A                    i1l3389 152B  
                  i1l3469 10BA                    i1l3557 1C65                    i1l3495 1A53  
                  i1l3487 1A3F                    i1l3479 1A2F                    i1l2951 1F45  
                  i1l2943 1F2E                    i1l2935 1F15                    i1l2927 1EF5  
                  i1l2919 1ED4                    i1l2871 1E45                    i1l2863 1E36  
                  i1l2855 0881                    i1l2839 0848                    i1l2847 0866  
                  i1l3911 09C6                    i1l3489 1A45                    i1l2961 1F5A  
                  i1l2953 1F46                    i1l2945 1F36                    i1l2937 1F16  
                  i1l2929 1EF9                    i1l2881 1E5D                    i1l2873 1E4D  
                  i1l2865 1E3A                    i1l2857 0886                    i1l3921 09DB  
                  i1l3913 09CB                    i1l3499 1B48                    i1l2971 1F7F  
                  i1l2963 1F5E                    i1l2955 1F4F                    i1l2947 1F38  
                  i1l2939 1F24                    i1l2891 1E70                    i1l2883 1E61  
                  i1l2875 1E4E                    i1l2867 1E3B                    i1l2859 1E2D  
                  i1l3931 09FE                    i1l3923 09E1                    i1l3915 09CC  
                  i1l2981 1FBD                    i1l2973 1F8D                    i1l2965 1F72  
                  i1l2949 1F41                    i1l2957 1F55                    i1l2893 1E78  
                  i1l2885 1E65                    i1l2869 1E40                    i1l2877 1E50  
                  i1l3925 09EB                    i1l3917 09D2                    i1l3909 09C2  
                  i1l2991 1FEB                    i1l2983 1FCB                    i1l2975 1F91  
                  i1l2959 1F59                    i1l2895 1E79                    i1l2887 1E66  
                  i1l2879 1E58                    i1l3943 0A21                    i1l3935 0A09  
                  i1l3927 09F4                    i1l3951 0A48                    i1l3919 09D7  
                  i1l2993 1FEF                    i1l2985 1FDA                    i1l2977 1FAA  
                  i1l2969 1F7A                    i1l2889 1E6B                    i1l2897 1E7B  
                  i1l3961 0B15                    i1l3945 0A2C                    i1l3953 0A49  
                  i1l2995 1FF1                    i1l2987 1FDE                    i1l2979 1FB0  
                  i1l2899 1E8B                    i1l3971 0BF2                    i1l3963 0B22  
                  i1l3955 0A4F                    i1l3947 0A30                    i1l3939 0A12  
                  i1l2989 1FE6                    i1l3965 0B7D                    i1l3957 0A57  
                  i1l3973 0CA8                    i1l3949 0A41                    i1l3975 0CAE  
                  i1l3967 0B8A                    i1l3959 0A64                    i1l3977 0CBB  
                  i1l3969 0BE5                    i1l3979 0CC5                    u340_20 19EE  
                  u420_20 084F                    u340_21 19ED                    u420_21 084E  
                  u500_25 198F                    u501_25 1996                    u421_25 0851  
                  u502_20 19A2                    u430_20 1E65                    u422_20 0865  
                  u510_20 1393                    u502_21 19A1                    u430_21 1E64  
                  u422_21 0864                    u510_21 1392                    u431_20 1E6B  
                  u423_20 086C                    u503_20 089C                    u511_20 1398  
                  u431_21 1E6A                    u423_21 086B                    u503_21 089B  
                  u511_21 1397                    u440_20 1F15                    u432_20 1E70  
                  u504_20 0933                    u520_20 142E                    u512_20 13B1  
                  u440_21 1F14                    u432_21 1E6F                    u504_21 0932  
                  u520_21 142D                    u512_21 13B0                    u440_25 1F11  
                  u424_25 0871                    u441_20 1F2E                    u433_20 1E8B  
                  u425_20 0881                    u417_20 0813                    u521_20 1432  
                  u513_20 13B5                    u505_20 135D                    u441_21 1F2D  
                  u433_21 1E8A                    u425_21 0880                    u417_21 0812  
                  u521_21 1431                    u513_21 13B4                    u505_21 135C  
                  u450_20 1F7F                    u442_20 1F36                    u434_20 1EA9  
                  u338_20 19DA                    u426_20 0886                    u418_20 082E  
                  u530_20 14BC                    u522_20 1437                    u514_20 13EF  
                  u506_20 1363                    u450_21 1F7E                    u442_21 1F35  
                  u434_21 1EA8                    u338_21 19D9                    u426_21 0885  
                  u530_21 14BD                    u522_21 1436                    u514_21 13EE  
                  u506_21 1362                    u530_22 14C2                    u530_23 14C3  
                  u418_25 0829                    u514_25 13EB                    u451_20 1F91  
                  u435_20 1EE3                    u427_20 1E3A                    u419_20 0848  
                  u531_20 14DA                    u515_20 13FA                    u507_20 1368  
                  u451_21 1F90                    u435_21 1EE2                    u427_21 1E39  
                  u419_21 0847                    u531_21 14D9                    u523_21 1449  
                  u515_21 13F8                    u507_21 1367                    u523_22 1450  
                  u523_23 1457                    u443_25 1F3A                    u339_25 19E1  
                  u452_20 1FA0                    u444_20 1F45                    u428_20 1E40  
                  u460_20 03C1                    u540_20 153A                    u532_20 14FF  
                  u524_20 145B                    u516_20 13FB                    u508_20 1384  
                  u444_21 1F44                    u428_21 1E3F                    u460_21 03C0  
                  u540_21 1539                    u532_21 14FE                    u524_21 145A  
                  u508_21 1383                    u452_25 1F9B                    u436_25 1EE5  
                  u453_20 1FBD                    u429_20 1E45                    u461_20 03C6  
                  u541_20 1541                    u533_20 1504                    u525_20 145F  
                  u517_20 140B                    u509_20 138D                    u453_21 1FBC  
                  u429_21 1E44                    u461_21 03C5                    u541_21 1540  
                  u533_21 1503                    u525_21 145E                    u517_21 140A  
                  u509_21 138C                    u453_25 1FB9                    u445_25 1F48  
                  u437_25 1EEE                    u454_20 1FDA                    u446_20 1F59  
                  u438_20 1EF9                    u462_20 03DD                    u550_20 15A6  
                  u542_20 1547                    u526_20 146C                    u518_20 1418  
                  u454_21 1FD9                    u446_21 1F58                    u438_21 1EF8  
                  u470_21 04F0                    u462_21 03DC                    u550_21 15A5  
                  u542_21 1546                    u526_21 146B                    u518_21 1417  
                  u470_22 04F7                    u470_23 04FE                    u454_25 1FD6  
                  u534_25 150F                    u455_20 1FEF                    u447_20 1F5E  
                  u463_20 03E2                    u543_20 1559                    u535_20 151A  
                  u551_20 1011                    u455_21 1FEE                    u447_21 1F5D  
                  u463_21 03E1                    u543_21 1558                    u535_21 1519  
                  u551_21 1010                    u439_25 1EFC                    u471_25 0500  
                  u527_25 146F                    u519_25 141B                    u448_20 1F72  
                  u456_20 0391                    u544_20 1568                    u536_20 151F  
                  u528_20 1491                    u560_20 108C                    u552_20 1015  
                  u640_20 09F4                    u448_21 1F71                    u472_21 0524  
                  u464_21 042F                    u456_21 0390                    u536_21 151E  
                  u528_21 1490                    u560_21 108B                    u552_21 1014  
                  u640_21 09F3                    u472_22 052B                    u464_22 0436  
                  u472_23 0532                    u464_23 043D                    u528_23 148D  
                  u480_25 05FD                    u544_25 1563                    u449_20 1F79  
                  u481_20 0608                    u457_20 0397                    u545_20 1577  
                  u537_20 1529                    u561_20 1090                    u553_20 1035  
                  u641_20 09FE                    u449_21 1F78                    u481_21 0607  
                  u473_21 054F                    u465_21 044B                    u457_21 0396  
                  u545_21 1576                    u537_21 1528                    u529_21 14A8  
                  u561_21 108F                    u553_21 1034                    u641_21 09FD  
                  u473_22 0556                    u465_22 0452                    u529_22 14A9  
                  u473_23 055D                    u465_23 0459                    u529_23 14AE  
                  u529_24 14AF                    u529_25 14B4                    u529_26 14B5  
                  u570_20 1B56                    u490_20 0680                    u458_20 039C  
                  u546_20 1580                    u538_20 152F                    u562_20 10A5  
                  u650_20 0B8A                    u642_20 0A09                    u570_21 1B55  
                  u490_21 067F                    u474_21 057A                    u466_21 0475  
                  u458_21 039B                    u546_21 157F                    u538_21 152E  
                  u650_21 0B89                    u642_21 0A08                    u474_22 0581  
                  u466_22 047C                    u474_23 0588                    u466_23 0483  
                  u490_25 067C                    u482_25 060B                    u562_25 10A0  
                  u554_25 1046                    u571_20 1B7E                    u491_20 069A  
                  u483_20 061C                    u475_20 05A2                    u459_20 03BB  
                  u547_20 1585                    u539_20 1534                    u563_20 10B5  
                  u555_20 1054                    u651_20 0BF2                    u643_20 0A12  
                  u571_21 1B7D                    u491_21 0699                    u483_21 061B  
                  u467_21 0491                    u459_21 03BA                    u547_21 1584  
                  u539_21 1533                    u563_21 10B4                    u555_21 1053  
                  u651_21 0BF1                    u643_21 0A11                    u467_22 0498  
                  u467_23 049F                    u491_25 0696                    u475_25 059D  
                  u492_20 06B6                    u484_20 0621                    u548_20 1592  
                  u564_20 10B9                    u572_20 1967                    u652_20 0CAE  
                  u644_20 0A21                    u636_20 09C6                    u492_21 06B5  
                  u484_21 0620                    u476_21 05AE                    u548_21 1591  
                  u564_21 10B8                    u572_21 1966                    u652_21 0CAD  
                  u644_21 0A20                    u636_21 09C5                    u476_22 05B5  
                  u476_23 05BC                    u468_25 04A1                    u556_25 1068  
                  u565_20 1A23                    u573_20 1950                    u485_20 0635  
                  u477_20 05CA                    u549_20 1597                    u557_20 1076  
                  u653_20 0CBB                    u645_20 0A41                    u637_20 09D2  
                  u565_21 1A22                    u573_21 194F                    u485_21 0634  
                  u469_21 04C5                    u549_21 1596                    u557_21 1075  
                  u653_21 0CBA                    u645_21 0A40                    u637_21 09D1  
                  u469_22 04CC                    u469_23 04D3                    u477_25 05C5  
                  u566_20 1A29                    u574_20 1954                    u486_20 063C  
                  u646_20 0A4F                    u638_20 09DB                    u566_21 1A28  
                  u574_21 1953                    u486_21 063B                    u478_21 05D6  
                  u646_21 0A4E                    u638_21 09DA                    u478_22 05DD  
                  u478_23 05E4                    u558_25 107B                    u567_20 1A3F  
                  u487_20 0642                    u559_20 1086                    u575_20 1C65  
                  u647_20 0A57                    u639_20 09E1                    u567_21 1A3E  
                  u487_21 0641                    u559_21 1085                    u575_21 1C64  
                  u647_21 0A56                    u639_21 09E0                    u479_25 05E6  
                  u568_20 1A45                    u488_20 0654                    u648_20 0A64  
                  u568_21 1A44                    u488_21 0653                    u648_21 0A63  
                  u569_20 1B51                    u489_20 0663                    u649_20 0B22  
                  u569_21 1B50                    u649_21 0B21                    u489_25 065E  
                  u499_20 1988                    u499_21 1987                    _SPBRGH 009A  
        __end_of___xxtofl 117D                 ??___fladd 01DA                    ___wmul 1982  
               ??___fldiv 01A6                 ??___flmul 01C0                 ??___fltol 01EA  
        __end_of_initUART 19CC                    _entero 00C5                    _numero 00CB  
                  _servos 1C5C         __end_ofi1___fladd 15A8         __end_ofi1___fldiv 2000  
       __end_ofi1___flmul 06C9         __end_ofi1___fltol 0894                    saved_w 007E  
         i1___fltol@sign1 00A0              ___xxtofl@arg 019A              ___xxtofl@exp 0199  
            ___xxtofl@val 0190   __end_of__initialization 003B                ___fltol@f1 01E6  
            ?i1__Umul8_16 0070            __pcstackCOMMON 0070              __pidataBANK1 0803  
           __end_of_setup 1C5C             __end_of_pulse 1A55                 ?_PWM_duty 0110  
      read_EEPROM@address 0070            _OPTION_REGbits 0081          write_EEPROM@data 0070  
                 ??_setup 011C                   ??_pulse 0070                __pbssBANK1 00C5  
              __pbssBANK2 012F            i1___xxtofl@arg 007A            i1___xxtofl@exp 0079  
          i1___xxtofl@val 0070         __end_of__Umul8_16 1A1C                __pmaintext 0CD5  
                 ?___wmul 0070                __pintentry 0004              ??i1_PWM_duty 00A6  
                 ?_servos 00AE                ??_PWM_duty 0114                 ?___xxtofl 0190  
     i1__Umul8_16@product 0074              PWM_duty@duty 0110                 ?_initUART 0070  
      __end_ofi1_PWM_duty 09C2                   ___fladd 15A8                   ___fldiv 117D  
                 ___flmul 003F                   ___fltol 1A55                   _bandera 012F  
                 _address 00D5                 _ANSELbits 0188              ??i1___xxtofl 0074  
                 __ptext1 1BC7                   __ptext2 06C9                   __ptext3 003F  
                 __ptext4 19F3                   __ptext5 1ACD                   __ptext6 1A55  
                 __ptext7 117D                   __ptext8 19A7                   __ptext9 10C3  
            ??_PWM_config 01F0                 _T2CONbits 0012                ??___xxtofl 0194  
                 clrloop0 07F8      end_of_initialization 003B            i1PWM_duty@duty 00A2  
              ??_initUART 0190       write_EEPROM@address 0071        __end_ofi1___xxtofl 10C3  
      __end_of_PWM_config 1B48                 _RCSTAbits 0018                _valor_uart 0135  
   i1__Umul8_16@word_mpld 0076                 _PORTBbits 0006                 _PORTCbits 0007  
             ___fladd@grs 01E5             ___xxtofl@sign 0198                 _TRISCbits 0087  
               i1___fladd 1350                 i1___fldiv 1E2D                 i1___flmul 0384  
             ___fldiv@grs 01B2                 i1___fltol 0806               ___fldiv@rem 01AB  
             ___flmul@grs 01C7               _CCP1CONbits 0017               _CCP2CONbits 001D  
               _TXSTAbits 0098            __end_of___wmul 19A7            __end_of_servos 1E2D  
     start_initialization 0015               __end_of_TXT 1BC7                ?i1___fladd 0054  
              ?i1___fldiv 0020               __end_of_isr 0CD5                ?i1___flmul 003A  
              ?i1___fltol 0068      i1PWM_duty@particion1 00AA      i1PWM_duty@particion2 00AC  
           ??_read_EEPROM 0070                  ??___wmul 0074                 __Umul8_16 19F3  
             __pdataBANK1 00D6                  ??_servos 00B0                 ___fladd@a 01D6  
               ___fladd@b 01D2                 ___fldiv@a 019E                 ___fldiv@b 01A2  
               ___flmul@a 01BC                 ___flmul@b 01B8                 ___latbits 0002  
           __pcstackBANK0 0020             __pcstackBANK1 00A0             __pcstackBANK2 0110  
           __pcstackBANK3 0190           i1___xxtofl@sign 0078         i1___fldiv@new_exp 0032  
               __pnvBANK2 0137                 _main$1324 0127  i1__Umul8_16@multiplicand 0070  
                ?___fladd 01D2                  ?___fldiv 019E                  ?___flmul 01B8  
                ?___fltol 01E6                ?__Umul8_16 0190       __end_of_read_EEPROM 1960  
           ?_write_EEPROM 0070               ??i1___fladd 005C               ??i1___fldiv 0028  
             ??i1___flmul 0042               ??i1___fltol 006C         interrupt_function 0004  
          ___wmul@product 0074                 clear_ram0 07F7                  _PIE1bits 008C  
                _PIR1bits 000C                 _valorPot1 00CF                 _valorPot2 00CD  
           PWM_duty@canal 0117      PWM_config@periodo_ms 0110                _ADCON0bits 001F  
              _ADCON1bits 009F         ___wmul@multiplier 0070            ??_write_EEPROM 0071  
              servos@dato 00B8                servos@modo 00AE                  _PWM_duty 06C9  
         PWM_config@canal 0114                _EECON1bits 018C             ??i1__Umul8_16 0072  
             _read_EEPROM 1949               ??__Umul8_16 0192     write_EEPROM@gieStatus 0072  
                _caracter 00C7                  ___xxtofl 10C3                  _isr$1433 00C1  
                _main$524 011F                  _main$525 0121                  _main$526 0123  
                _main$527 0125                  __ptext10 15A8                  __ptext11 09C2  
                __ptext20 1E2D                  __ptext12 1960                  __ptext21 1949  
                __ptext13 1C5C                  __ptext22 1A1C                  __ptext14 100B  
                __ptext23 1B48                  __ptext15 1350                  __ptext24 1982  
                __ptext16 0894                  __ptext17 0806                  __ptext18 0384  
                __ptext19 19CC                  _contador 0133                  _initUART 19A7  
      PWM_duty@particion1 0118        PWM_duty@particion2 011A       __end_ofi1__Umul8_16 19F3  
                main@Lmax 012B                  main@Lmin 012D           i1PWM_duty@canal 00A9  
              _INTCONbits 000B              _valor_entero 00C9                  intlevel1 0000  
  i1__Umul8_16@multiplier 0078      __end_of_write_EEPROM 1982             _potenciometro 00D3  
              _OSCCONbits 008F                i1_PWM_duty 0894               _servos$1434 00B4  
  __Umul8_16@multiplicand 0190             ___fladd@signs 01E2              ___fladd@aexp 01E3  
            ___fladd@bexp 01E4      __Umul8_16@multiplier 0198               i1__Umul8_16 19CC  
       __Umul8_16@product 0194  
